
TestAndMeasurement.elf:     file format elf32-avr

Sections:
Idx Name          Size      VMA       LMA       File off  Algn
  0 .data         00000040  00800100  0000351e  000035b2  2**0
                  CONTENTS, ALLOC, LOAD, DATA
  1 .text         0000351e  00000000  00000000  00000094  2**1
                  CONTENTS, ALLOC, LOAD, READONLY, CODE
  2 .bss          00000498  00800140  00800140  000035f2  2**0
                  ALLOC
  3 .comment      00000030  00000000  00000000  000035f2  2**0
                  CONTENTS, READONLY
  4 .note.gnu.avr.deviceinfo 00000040  00000000  00000000  00003624  2**2
                  CONTENTS, READONLY
  5 .debug_aranges 00000458  00000000  00000000  00003664  2**0
                  CONTENTS, READONLY, DEBUGGING
  6 .debug_info   0000b089  00000000  00000000  00003abc  2**0
                  CONTENTS, READONLY, DEBUGGING
  7 .debug_abbrev 000022d6  00000000  00000000  0000eb45  2**0
                  CONTENTS, READONLY, DEBUGGING
  8 .debug_line   00005f45  00000000  00000000  00010e1b  2**0
                  CONTENTS, READONLY, DEBUGGING
  9 .debug_frame  00000c58  00000000  00000000  00016d60  2**2
                  CONTENTS, READONLY, DEBUGGING
 10 .debug_str    000029e6  00000000  00000000  000179b8  2**0
                  CONTENTS, READONLY, DEBUGGING
 11 .debug_loc    00008a55  00000000  00000000  0001a39e  2**0
                  CONTENTS, READONLY, DEBUGGING
 12 .debug_ranges 00000e88  00000000  00000000  00022df3  2**0
                  CONTENTS, READONLY, DEBUGGING

Disassembly of section .text:

00000000 <__vectors>:
       0:	0b c1       	rjmp	.+534    	; 0x218 <__ctors_end>
       2:	00 00       	nop
       4:	25 c1       	rjmp	.+586    	; 0x250 <__bad_interrupt>
       6:	00 00       	nop
       8:	23 c1       	rjmp	.+582    	; 0x250 <__bad_interrupt>
       a:	00 00       	nop
       c:	21 c1       	rjmp	.+578    	; 0x250 <__bad_interrupt>
       e:	00 00       	nop
      10:	1f c1       	rjmp	.+574    	; 0x250 <__bad_interrupt>
      12:	00 00       	nop
      14:	1d c1       	rjmp	.+570    	; 0x250 <__bad_interrupt>
      16:	00 00       	nop
      18:	1b c1       	rjmp	.+566    	; 0x250 <__bad_interrupt>
      1a:	00 00       	nop
      1c:	19 c1       	rjmp	.+562    	; 0x250 <__bad_interrupt>
      1e:	00 00       	nop
      20:	17 c1       	rjmp	.+558    	; 0x250 <__bad_interrupt>
      22:	00 00       	nop
      24:	15 c1       	rjmp	.+554    	; 0x250 <__bad_interrupt>
      26:	00 00       	nop
      28:	0c 94 43 18 	jmp	0x3086	; 0x3086 <__vector_10>
      2c:	11 c1       	rjmp	.+546    	; 0x250 <__bad_interrupt>
      2e:	00 00       	nop
      30:	0f c1       	rjmp	.+542    	; 0x250 <__bad_interrupt>
      32:	00 00       	nop
      34:	0d c1       	rjmp	.+538    	; 0x250 <__bad_interrupt>
      36:	00 00       	nop
      38:	0b c1       	rjmp	.+534    	; 0x250 <__bad_interrupt>
      3a:	00 00       	nop
      3c:	09 c1       	rjmp	.+530    	; 0x250 <__bad_interrupt>
      3e:	00 00       	nop
      40:	07 c1       	rjmp	.+526    	; 0x250 <__bad_interrupt>
      42:	00 00       	nop
      44:	05 c1       	rjmp	.+522    	; 0x250 <__bad_interrupt>
      46:	00 00       	nop
      48:	03 c1       	rjmp	.+518    	; 0x250 <__bad_interrupt>
      4a:	00 00       	nop
      4c:	01 c1       	rjmp	.+514    	; 0x250 <__bad_interrupt>
      4e:	00 00       	nop
      50:	ff c0       	rjmp	.+510    	; 0x250 <__bad_interrupt>
      52:	00 00       	nop
      54:	fd c0       	rjmp	.+506    	; 0x250 <__bad_interrupt>
      56:	00 00       	nop
      58:	fb c0       	rjmp	.+502    	; 0x250 <__bad_interrupt>
      5a:	00 00       	nop
      5c:	0c 94 67 0d 	jmp	0x1ace	; 0x1ace <__vector_23>
      60:	f7 c0       	rjmp	.+494    	; 0x250 <__bad_interrupt>
      62:	00 00       	nop
      64:	f5 c0       	rjmp	.+490    	; 0x250 <__bad_interrupt>
      66:	00 00       	nop
      68:	f3 c0       	rjmp	.+486    	; 0x250 <__bad_interrupt>
      6a:	00 00       	nop
      6c:	f1 c0       	rjmp	.+482    	; 0x250 <__bad_interrupt>
      6e:	00 00       	nop
      70:	ef c0       	rjmp	.+478    	; 0x250 <__bad_interrupt>
      72:	00 00       	nop
      74:	ed c0       	rjmp	.+474    	; 0x250 <__bad_interrupt>
      76:	00 00       	nop
      78:	eb c0       	rjmp	.+470    	; 0x250 <__bad_interrupt>
      7a:	00 00       	nop
      7c:	e9 c0       	rjmp	.+466    	; 0x250 <__bad_interrupt>
      7e:	00 00       	nop
      80:	e7 c0       	rjmp	.+462    	; 0x250 <__bad_interrupt>
      82:	00 00       	nop
      84:	e5 c0       	rjmp	.+458    	; 0x250 <__bad_interrupt>
      86:	00 00       	nop
      88:	e3 c0       	rjmp	.+454    	; 0x250 <__bad_interrupt>
      8a:	00 00       	nop
      8c:	e1 c0       	rjmp	.+450    	; 0x250 <__bad_interrupt>
      8e:	00 00       	nop
      90:	df c0       	rjmp	.+446    	; 0x250 <__bad_interrupt>
      92:	00 00       	nop
      94:	dd c0       	rjmp	.+442    	; 0x250 <__bad_interrupt>
      96:	00 00       	nop
      98:	db c0       	rjmp	.+438    	; 0x250 <__bad_interrupt>
      9a:	00 00       	nop
      9c:	d9 c0       	rjmp	.+434    	; 0x250 <__bad_interrupt>
      9e:	00 00       	nop
      a0:	d7 c0       	rjmp	.+430    	; 0x250 <__bad_interrupt>
      a2:	00 00       	nop
      a4:	d5 c0       	rjmp	.+426    	; 0x250 <__bad_interrupt>
      a6:	00 00       	nop
      a8:	d3 c0       	rjmp	.+422    	; 0x250 <__bad_interrupt>
      aa:	00 00       	nop

000000ac <ProductString>:
      ac:	10 03 47 00 70 00 69 00 62 00 55 00 73 00 62 00     ..G.p.i.b.U.s.b.
      bc:	00 00                                               ..

000000be <ManufacturerString>:
      be:	16 03 58 00 79 00 70 00 68 00 72 00 6f 00 4c 00     ..X.y.p.h.r.o.L.
      ce:	61 00 62 00 73 00 00 00                             a.b.s...

000000d6 <LanguageString>:
      d6:	04 03 09 04                                         ....

000000da <ConfigurationDescriptor>:
      da:	09 02 27 00 01 01 00 c0 32 09 04 00 00 03 fe 03     ..'.....2.......
      ea:	01 00 07 05 03 02 40 00 05 07 05 82 02 40 00 05     ......@......@..
      fa:	07 05 81 03 02 00 05                                .......

00000101 <DeviceDescriptor>:
     101:	12 01 10 01 00 00 00 08 eb 03 65 20 01 00 01 02     ..........e ....
     111:	03 01                                               ..

00000113 <cmd_list>:
     113:	fc 14 02 15 e8 14 ed 14 f2 14 3a 15 17 15 19 15     ..........:.....
     123:	1b 15 50 15 32 15 0d 15 f7 14 fd 14 1d 15 24 15     ..P.2.........$.
     133:	2b 15 e7 14 38 15 03 15 08 15 12 15                 +...8.......

0000013f <cmd_parser>:
     13f:	06 61 0d 74 4a 76 79 30 82 72 99 73 a5 02 75 12     .a.tJvy0.r.s..u.
     14f:	64 44 01 74 15 01 6f 18 01 69 1b 01 64 1e 02 20     dD.t..o..i..d.. 
     15f:	23 bf 05 02 6f 28 73 30 02 ee 00 66 2d 01 e6 01     #...o(s0...f-...
     16f:	01 6c 33 01 6f 36 01 77 39 01 65 3c 02 f2 03 73     .l3.o6.w9.e<...s
     17f:	41 01 f4 04 01 64 47 01 f2 11 01 65 4d 01 72 50     A....dG....eM.rP
     18f:	01 6d 53 02 20 58 bf 09 04 63 61 6c 64 65 67 73     .mS. X...caldegs
     19f:	6d 01 f2 06 01 e6 07 01 6f 6a 01 e9 08 01 74 70     m.......oj....tp
     1af:	01 6f 73 01 72 76 01 e5 0a 01 65 7c 01 72 7f 01     .os.rv....e|.r..
     1bf:	bf 0b 02 30 87 31 8f 01 30 8a 02 b0 0c b1 0d 01     ...0.1..0.......
     1cf:	30 92 03 b0 0e b1 0f b2 10 01 65 9c 01 73 9f 01     0.........e..s..
     1df:	65 a2 01 f4 12 01 74 a8 01 72 ab 01 69 ae 01 6e     e.....t..r..i..n
     1ef:	b1 01 67 b4 02 20 b9 bf 15 02 73 be 6e ca 01 68     ..g.. ....s.n..h
     1ff:	c1 01 6f c4 01 72 c7 01 f4 13 01 6f cd 01 72 d0     ..o..r.....o..r.
     20f:	01 6d d3 01 61 d6 01 ec 14                          .m..a....

00000218 <__ctors_end>:
     218:	11 24       	eor	r1, r1
     21a:	1f be       	out	0x3f, r1	; 63
     21c:	cf ef       	ldi	r28, 0xFF	; 255
     21e:	da e0       	ldi	r29, 0x0A	; 10
     220:	de bf       	out	0x3e, r29	; 62
     222:	cd bf       	out	0x3d, r28	; 61

00000224 <__do_copy_data>:
     224:	11 e0       	ldi	r17, 0x01	; 1
     226:	a0 e0       	ldi	r26, 0x00	; 0
     228:	b1 e0       	ldi	r27, 0x01	; 1
     22a:	ee e1       	ldi	r30, 0x1E	; 30
     22c:	f5 e3       	ldi	r31, 0x35	; 53
     22e:	02 c0       	rjmp	.+4      	; 0x234 <__do_copy_data+0x10>
     230:	05 90       	lpm	r0, Z+
     232:	0d 92       	st	X+, r0
     234:	a0 34       	cpi	r26, 0x40	; 64
     236:	b1 07       	cpc	r27, r17
     238:	d9 f7       	brne	.-10     	; 0x230 <__do_copy_data+0xc>

0000023a <__do_clear_bss>:
     23a:	25 e0       	ldi	r18, 0x05	; 5
     23c:	a0 e4       	ldi	r26, 0x40	; 64
     23e:	b1 e0       	ldi	r27, 0x01	; 1
     240:	01 c0       	rjmp	.+2      	; 0x244 <.do_clear_bss_start>

00000242 <.do_clear_bss_loop>:
     242:	1d 92       	st	X+, r1

00000244 <.do_clear_bss_start>:
     244:	a8 3d       	cpi	r26, 0xD8	; 216
     246:	b2 07       	cpc	r27, r18
     248:	e1 f7       	brne	.-8      	; 0x242 <.do_clear_bss_loop>
     24a:	c2 d7       	rcall	.+3972   	; 0x11d0 <main>
     24c:	0c 94 8d 1a 	jmp	0x351a	; 0x351a <_exit>

00000250 <__bad_interrupt>:
     250:	d7 ce       	rjmp	.-594    	; 0x0 <__vectors>

00000252 <TMC_SetInternalSerial>:
	if (addr >= 255)	/* fallback to GPIB address 1, if no device was found */
		addr = 1;
	gpib_addr = addr; /* set global GPIB address to found address*/
	
	return devicepresent;
}
     252:	2f e5       	ldi	r18, 0x5F	; 95
     254:	30 e0       	ldi	r19, 0x00	; 0
     256:	4f b7       	in	r20, 0x3f	; 63
     258:	f8 94       	cli
     25a:	93 e0       	ldi	r25, 0x03	; 3
     25c:	90 93 66 05 	sts	0x0566, r25	; 0x800566 <tmc_serial_string+0x1>
     260:	88 23       	and	r24, r24
     262:	09 f4       	brne	.+2      	; 0x266 <TMC_SetInternalSerial+0x14>
     264:	64 c0       	rjmp	.+200    	; 0x32e <TMC_SetInternalSerial+0xdc>
     266:	87 e4       	ldi	r24, 0x47	; 71
     268:	90 e0       	ldi	r25, 0x00	; 0
     26a:	90 93 68 05 	sts	0x0568, r25	; 0x800568 <tmc_serial_string+0x3>
     26e:	80 93 67 05 	sts	0x0567, r24	; 0x800567 <tmc_serial_string+0x2>
     272:	80 e5       	ldi	r24, 0x50	; 80
     274:	90 e0       	ldi	r25, 0x00	; 0
     276:	90 93 6a 05 	sts	0x056A, r25	; 0x80056a <tmc_serial_string+0x5>
     27a:	80 93 69 05 	sts	0x0569, r24	; 0x800569 <tmc_serial_string+0x4>
     27e:	89 e4       	ldi	r24, 0x49	; 73
     280:	90 e0       	ldi	r25, 0x00	; 0
     282:	90 93 6c 05 	sts	0x056C, r25	; 0x80056c <tmc_serial_string+0x7>
     286:	80 93 6b 05 	sts	0x056B, r24	; 0x80056b <tmc_serial_string+0x6>
     28a:	82 e4       	ldi	r24, 0x42	; 66
     28c:	90 e0       	ldi	r25, 0x00	; 0
     28e:	90 93 6e 05 	sts	0x056E, r25	; 0x80056e <tmc_serial_string+0x9>
     292:	80 93 6d 05 	sts	0x056D, r24	; 0x80056d <tmc_serial_string+0x8>
     296:	30 93 70 05 	sts	0x0570, r19	; 0x800570 <tmc_serial_string+0xb>
     29a:	20 93 6f 05 	sts	0x056F, r18	; 0x80056f <tmc_serial_string+0xa>
     29e:	80 91 02 01 	lds	r24, 0x0102	; 0x800102 <gpib_addr>
     2a2:	9d ec       	ldi	r25, 0xCD	; 205
     2a4:	89 9f       	mul	r24, r25
     2a6:	91 2d       	mov	r25, r1
     2a8:	11 24       	eor	r1, r1
     2aa:	96 95       	lsr	r25
     2ac:	96 95       	lsr	r25
     2ae:	96 95       	lsr	r25
     2b0:	69 2f       	mov	r22, r25
     2b2:	70 e0       	ldi	r23, 0x00	; 0
     2b4:	60 5d       	subi	r22, 0xD0	; 208
     2b6:	7f 4f       	sbci	r23, 0xFF	; 255
     2b8:	70 93 72 05 	sts	0x0572, r23	; 0x800572 <tmc_serial_string+0xd>
     2bc:	60 93 71 05 	sts	0x0571, r22	; 0x800571 <tmc_serial_string+0xc>
     2c0:	5a e0       	ldi	r21, 0x0A	; 10
     2c2:	95 9f       	mul	r25, r21
     2c4:	80 19       	sub	r24, r0
     2c6:	11 24       	eor	r1, r1
     2c8:	90 e0       	ldi	r25, 0x00	; 0
     2ca:	c0 96       	adiw	r24, 0x30	; 48
     2cc:	90 93 74 05 	sts	0x0574, r25	; 0x800574 <tmc_serial_string+0xf>
     2d0:	80 93 73 05 	sts	0x0573, r24	; 0x800573 <tmc_serial_string+0xe>
     2d4:	30 93 76 05 	sts	0x0576, r19	; 0x800576 <tmc_serial_string+0x11>
     2d8:	20 93 75 05 	sts	0x0575, r18	; 0x800575 <tmc_serial_string+0x10>
     2dc:	28 e0       	ldi	r18, 0x08	; 8
     2de:	80 e0       	ldi	r24, 0x00	; 0
     2e0:	9e e0       	ldi	r25, 0x0E	; 14
     2e2:	31 e2       	ldi	r19, 0x21	; 33
     2e4:	0b c0       	rjmp	.+22     	; 0x2fc <TMC_SetInternalSerial+0xaa>
     2e6:	f0 e0       	ldi	r31, 0x00	; 0
     2e8:	f7 96       	adiw	r30, 0x37	; 55
     2ea:	aa 0f       	add	r26, r26
     2ec:	bb 1f       	adc	r27, r27
     2ee:	a9 59       	subi	r26, 0x99	; 153
     2f0:	ba 4f       	sbci	r27, 0xFA	; 250
     2f2:	ed 93       	st	X+, r30
     2f4:	fc 93       	st	X, r31
     2f6:	8f 5f       	subi	r24, 0xFF	; 255
     2f8:	84 31       	cpi	r24, 0x14	; 20
     2fa:	99 f0       	breq	.+38     	; 0x322 <TMC_SetInternalSerial+0xd0>
     2fc:	a2 2f       	mov	r26, r18
     2fe:	a8 0f       	add	r26, r24
     300:	e9 2f       	mov	r30, r25
     302:	f0 e0       	ldi	r31, 0x00	; 0
     304:	30 93 57 00 	sts	0x0057, r19	; 0x800057 <__TEXT_REGION_LENGTH__+0x7e0057>
     308:	e4 91       	lpm	r30, Z
     30a:	80 ff       	sbrs	r24, 0
     30c:	03 c0       	rjmp	.+6      	; 0x314 <TMC_SetInternalSerial+0xc2>
     30e:	e2 95       	swap	r30
     310:	ef 70       	andi	r30, 0x0F	; 15
     312:	9f 5f       	subi	r25, 0xFF	; 255
     314:	ef 70       	andi	r30, 0x0F	; 15
     316:	b0 e0       	ldi	r27, 0x00	; 0
     318:	ea 30       	cpi	r30, 0x0A	; 10
     31a:	28 f7       	brcc	.-54     	; 0x2e6 <TMC_SetInternalSerial+0x94>
     31c:	f0 e0       	ldi	r31, 0x00	; 0
     31e:	f0 96       	adiw	r30, 0x30	; 48
     320:	e4 cf       	rjmp	.-56     	; 0x2ea <TMC_SetInternalSerial+0x98>
     322:	2b 5e       	subi	r18, 0xEB	; 235
     324:	22 0f       	add	r18, r18
     326:	20 93 65 05 	sts	0x0565, r18	; 0x800565 <tmc_serial_string>
     32a:	4f bf       	out	0x3f, r20	; 63
     32c:	08 95       	ret
     32e:	20 e0       	ldi	r18, 0x00	; 0
     330:	d6 cf       	rjmp	.-84     	; 0x2de <TMC_SetInternalSerial+0x8c>

00000332 <is_timedout>:
     332:	85 e3       	ldi	r24, 0x35	; 53
     334:	8a 95       	dec	r24
     336:	f1 f7       	brne	.-4      	; 0x334 <is_timedout+0x2>
     338:	00 00       	nop
     33a:	80 91 60 05 	lds	r24, 0x0560	; 0x800560 <timeout_val>
     33e:	90 91 61 05 	lds	r25, 0x0561	; 0x800561 <timeout_val+0x1>
     342:	a0 91 62 05 	lds	r26, 0x0562	; 0x800562 <timeout_val+0x2>
     346:	b0 91 63 05 	lds	r27, 0x0563	; 0x800563 <timeout_val+0x3>
     34a:	00 97       	sbiw	r24, 0x00	; 0
     34c:	a1 05       	cpc	r26, r1
     34e:	b1 05       	cpc	r27, r1
     350:	69 f0       	breq	.+26     	; 0x36c <is_timedout+0x3a>
     352:	01 97       	sbiw	r24, 0x01	; 1
     354:	a1 09       	sbc	r26, r1
     356:	b1 09       	sbc	r27, r1
     358:	80 93 60 05 	sts	0x0560, r24	; 0x800560 <timeout_val>
     35c:	90 93 61 05 	sts	0x0561, r25	; 0x800561 <timeout_val+0x1>
     360:	a0 93 62 05 	sts	0x0562, r26	; 0x800562 <timeout_val+0x2>
     364:	b0 93 63 05 	sts	0x0563, r27	; 0x800563 <timeout_val+0x3>
     368:	80 e0       	ldi	r24, 0x00	; 0
     36a:	08 95       	ret
     36c:	81 e0       	ldi	r24, 0x01	; 1
     36e:	08 95       	ret

00000370 <tmc_gpib_write_timedout>:
     370:	0e 94 4b 1a 	call	0x3496	; 0x3496 <USB_USBTask>
     374:	90 91 4d 05 	lds	r25, 0x054D	; 0x80054d <IsTMCBulkOUTReset>
     378:	80 91 4e 05 	lds	r24, 0x054E	; 0x80054e <IsTMCBulkINReset>
     37c:	89 2b       	or	r24, r25
     37e:	08 95       	ret

00000380 <tmc_gpib_read_timedout>:
     380:	0e 94 4b 1a 	call	0x3496	; 0x3496 <USB_USBTask>
     384:	90 91 4e 05 	lds	r25, 0x054E	; 0x80054e <IsTMCBulkINReset>
     388:	80 91 4d 05 	lds	r24, 0x054D	; 0x80054d <IsTMCBulkOUTReset>
     38c:	89 2b       	or	r24, r25
     38e:	08 95       	ret

00000390 <ReadTMCHeader.part.0>:
     390:	dc 01       	movw	r26, r24
     392:	fc 01       	movw	r30, r24
     394:	9c 01       	movw	r18, r24
     396:	24 5f       	subi	r18, 0xF4	; 244
     398:	3f 4f       	sbci	r19, 0xFF	; 255
     39a:	90 91 f1 00 	lds	r25, 0x00F1	; 0x8000f1 <__TEXT_REGION_LENGTH__+0x7e00f1>
     39e:	91 93       	st	Z+, r25
     3a0:	e2 17       	cp	r30, r18
     3a2:	f3 07       	cpc	r31, r19
     3a4:	d1 f7       	brne	.-12     	; 0x39a <ReadTMCHeader.part.0+0xa>
     3a6:	11 96       	adiw	r26, 0x01	; 1
     3a8:	8c 91       	ld	r24, X
     3aa:	80 93 44 05 	sts	0x0544, r24	; 0x800544 <CurrentTransferTag>
     3ae:	90 91 4d 05 	lds	r25, 0x054D	; 0x80054d <IsTMCBulkOUTReset>
     3b2:	81 e0       	ldi	r24, 0x01	; 1
     3b4:	89 27       	eor	r24, r25
     3b6:	08 95       	ret

000003b8 <Jump_To_Bootloader>:
     3b8:	0e 94 ce 17 	call	0x2f9c	; 0x2f9c <USB_Disable>
     3bc:	f8 94       	cli
     3be:	2f ef       	ldi	r18, 0xFF	; 255
     3c0:	87 ea       	ldi	r24, 0xA7	; 167
     3c2:	91 e6       	ldi	r25, 0x61	; 97
     3c4:	21 50       	subi	r18, 0x01	; 1
     3c6:	80 40       	sbci	r24, 0x00	; 0
     3c8:	90 40       	sbci	r25, 0x00	; 0
     3ca:	e1 f7       	brne	.-8      	; 0x3c4 <Jump_To_Bootloader+0xc>
     3cc:	00 c0       	rjmp	.+0      	; 0x3ce <Jump_To_Bootloader+0x16>
     3ce:	00 00       	nop
     3d0:	9c e0       	ldi	r25, 0x0C	; 12
     3d2:	88 e1       	ldi	r24, 0x18	; 24
     3d4:	0f b6       	in	r0, 0x3f	; 63
     3d6:	f8 94       	cli
     3d8:	a8 95       	wdr
     3da:	80 93 60 00 	sts	0x0060, r24	; 0x800060 <__TEXT_REGION_LENGTH__+0x7e0060>
     3de:	0f be       	out	0x3f, r0	; 63
     3e0:	90 93 60 00 	sts	0x0060, r25	; 0x800060 <__TEXT_REGION_LENGTH__+0x7e0060>
     3e4:	ef ef       	ldi	r30, 0xFF	; 255
     3e6:	f9 e6       	ldi	r31, 0x69	; 105
     3e8:	28 e1       	ldi	r18, 0x18	; 24
     3ea:	e1 50       	subi	r30, 0x01	; 1
     3ec:	f0 40       	sbci	r31, 0x00	; 0
     3ee:	20 40       	sbci	r18, 0x00	; 0
     3f0:	e1 f7       	brne	.-8      	; 0x3ea <Jump_To_Bootloader+0x32>
     3f2:	00 c0       	rjmp	.+0      	; 0x3f4 <Jump_To_Bootloader+0x3c>
     3f4:	00 00       	nop
     3f6:	e0 e0       	ldi	r30, 0x00	; 0
     3f8:	f0 e7       	ldi	r31, 0x70	; 112
     3fa:	09 95       	icall
     3fc:	ff cf       	rjmp	.-2      	; 0x3fc <Jump_To_Bootloader+0x44>

000003fe <identifyGpibDevice>:

/* returns TRUE, if a string was received over GPIB */
bool identifyGpibDevice(void)
{
     3fe:	ff 92       	push	r15
     400:	0f 93       	push	r16
     402:	1f 93       	push	r17
     404:	cf 93       	push	r28
     406:	df 93       	push	r29
     408:	00 d0       	rcall	.+0      	; 0x40a <__LOCK_REGION_LENGTH__+0xa>
     40a:	cd b7       	in	r28, 0x3d	; 61
     40c:	de b7       	in	r29, 0x3e	; 62
	
	gotStringViaGPIB = true;
	
	hascomma = false; /* does the response contain a , character? */

	tmc_serial_string.Header.Size = 0;
     40e:	10 92 65 05 	sts	0x0565, r1	; 0x800565 <tmc_serial_string>

uint32_t timeout_val;

void timeout_start(uint32_t timeout)
{
	timeout_val = timeout;
     412:	80 ea       	ldi	r24, 0xA0	; 160
     414:	96 e8       	ldi	r25, 0x86	; 134
     416:	a1 e0       	ldi	r26, 0x01	; 1
     418:	b0 e0       	ldi	r27, 0x00	; 0
     41a:	80 93 60 05 	sts	0x0560, r24	; 0x800560 <timeout_val>
     41e:	90 93 61 05 	sts	0x0561, r25	; 0x800561 <timeout_val+0x1>
     422:	a0 93 62 05 	sts	0x0562, r26	; 0x800562 <timeout_val+0x2>
     426:	b0 93 63 05 	sts	0x0563, r27	; 0x800563 <timeout_val+0x3>
	hascomma = false; /* does the response contain a , character? */

	tmc_serial_string.Header.Size = 0;

	timeout_start(100000); /* 1s timeout*/
	gpib_make_listener(gpib_addr, is_timedout);
     42a:	69 e9       	ldi	r22, 0x99	; 153
     42c:	71 e0       	ldi	r23, 0x01	; 1
     42e:	80 91 02 01 	lds	r24, 0x0102	; 0x800102 <gpib_addr>
     432:	0e 94 fe 12 	call	0x25fc	; 0x25fc <gpib_make_listener>
	if (timeout_val != 0) gpib_writedat('*', false, is_timedout);
     436:	80 91 60 05 	lds	r24, 0x0560	; 0x800560 <timeout_val>
     43a:	90 91 61 05 	lds	r25, 0x0561	; 0x800561 <timeout_val+0x1>
     43e:	a0 91 62 05 	lds	r26, 0x0562	; 0x800562 <timeout_val+0x2>
     442:	b0 91 63 05 	lds	r27, 0x0563	; 0x800563 <timeout_val+0x3>
     446:	89 2b       	or	r24, r25
     448:	8a 2b       	or	r24, r26
     44a:	8b 2b       	or	r24, r27
     44c:	09 f0       	breq	.+2      	; 0x450 <__LOCK_REGION_LENGTH__+0x50>
     44e:	04 c1       	rjmp	.+520    	; 0x658 <__LOCK_REGION_LENGTH__+0x258>
	if (timeout_val != 0) gpib_writedat('I', false, is_timedout);
	if (timeout_val != 0) gpib_writedat('D', false, is_timedout);
	if (timeout_val != 0) gpib_writedat('N', false, is_timedout);
	if (timeout_val != 0) gpib_writedat('?', false, is_timedout);
	if (timeout_val != 0) gpib_writedat('\n', true, is_timedout);
	gpib_untalk_unlisten(is_timedout);
     450:	89 e9       	ldi	r24, 0x99	; 153
     452:	91 e0       	ldi	r25, 0x01	; 1
     454:	0e 94 36 12 	call	0x246c	; 0x246c <gpib_untalk_unlisten>
	
	if (timeout_val != 0) 
     458:	80 91 60 05 	lds	r24, 0x0560	; 0x800560 <timeout_val>
     45c:	90 91 61 05 	lds	r25, 0x0561	; 0x800561 <timeout_val+0x1>
     460:	a0 91 62 05 	lds	r26, 0x0562	; 0x800562 <timeout_val+0x2>
     464:	b0 91 63 05 	lds	r27, 0x0563	; 0x800563 <timeout_val+0x3>
     468:	89 2b       	or	r24, r25
     46a:	8a 2b       	or	r24, r26
     46c:	8b 2b       	or	r24, r27
     46e:	09 f4       	brne	.+2      	; 0x472 <__LOCK_REGION_LENGTH__+0x72>
     470:	d5 c0       	rjmp	.+426    	; 0x61c <__LOCK_REGION_LENGTH__+0x21c>

uint32_t timeout_val;

void timeout_start(uint32_t timeout)
{
	timeout_val = timeout;
     472:	80 ea       	ldi	r24, 0xA0	; 160
     474:	96 e8       	ldi	r25, 0x86	; 134
     476:	a1 e0       	ldi	r26, 0x01	; 1
     478:	b0 e0       	ldi	r27, 0x00	; 0
     47a:	80 93 60 05 	sts	0x0560, r24	; 0x800560 <timeout_val>
     47e:	90 93 61 05 	sts	0x0561, r25	; 0x800561 <timeout_val+0x1>
     482:	a0 93 62 05 	sts	0x0562, r26	; 0x800562 <timeout_val+0x2>
     486:	b0 93 63 05 	sts	0x0563, r27	; 0x800563 <timeout_val+0x3>
	gpib_untalk_unlisten(is_timedout);
	
	if (timeout_val != 0) 
	{
		timeout_start(100000); /* 1s timeout*/
		gpib_make_talker(gpib_addr, is_timedout);
     48a:	69 e9       	ldi	r22, 0x99	; 153
     48c:	71 e0       	ldi	r23, 0x01	; 1
     48e:	80 91 02 01 	lds	r24, 0x0102	; 0x800102 <gpib_addr>
     492:	0e 94 aa 12 	call	0x2554	; 0x2554 <gpib_make_talker>
	bool    eoi, timedout;
	bool    gotStringViaGPIB;
	
	gotStringViaGPIB = true;
	
	hascomma = false; /* does the response contain a , character? */
     496:	f1 2c       	mov	r15, r1
	
	if (timeout_val != 0) 
	{
		timeout_start(100000); /* 1s timeout*/
		gpib_make_talker(gpib_addr, is_timedout);
		len = 0;
     498:	10 e0       	ldi	r17, 0x00	; 0
		do
		{
			c = gpib_readdat(&eoi, &timedout, is_timedout);
     49a:	49 e9       	ldi	r20, 0x99	; 153
     49c:	51 e0       	ldi	r21, 0x01	; 1
     49e:	be 01       	movw	r22, r28
     4a0:	6f 5f       	subi	r22, 0xFF	; 255
     4a2:	7f 4f       	sbci	r23, 0xFF	; 255
     4a4:	ce 01       	movw	r24, r28
     4a6:	02 96       	adiw	r24, 0x02	; 2
     4a8:	0e 94 c6 11 	call	0x238c	; 0x238c <gpib_readdat>
			hascomma = hascomma || (c == ',');
     4ac:	f1 10       	cpse	r15, r1
     4ae:	d1 c0       	rjmp	.+418    	; 0x652 <__LOCK_REGION_LENGTH__+0x252>
     4b0:	8c 32       	cpi	r24, 0x2C	; 44
     4b2:	b1 f0       	breq	.+44     	; 0x4e0 <__LOCK_REGION_LENGTH__+0xe0>
			if ( (c=='\"') || (c=='*') || (c=='/') || (c=='\\') || (c==':') || (c=='?') || (c==' ') || (c==',') || (c=='&') ) /* YEP, a comma and amphersand is allowed in USBTMC spec, but R&S SW does not like this... */
     4b4:	98 2f       	mov	r25, r24
     4b6:	9f 7e       	andi	r25, 0xEF	; 239
     4b8:	9a 32       	cpi	r25, 0x2A	; 42
     4ba:	a1 f0       	breq	.+40     	; 0x4e4 <__LOCK_REGION_LENGTH__+0xe4>
     4bc:	9f 32       	cpi	r25, 0x2F	; 47
     4be:	91 f0       	breq	.+36     	; 0x4e4 <__LOCK_REGION_LENGTH__+0xe4>
     4c0:	8c 35       	cpi	r24, 0x5C	; 92
     4c2:	81 f0       	breq	.+32     	; 0x4e4 <__LOCK_REGION_LENGTH__+0xe4>
     4c4:	98 2f       	mov	r25, r24
     4c6:	9d 7f       	andi	r25, 0xFD	; 253
     4c8:	90 32       	cpi	r25, 0x20	; 32
     4ca:	61 f0       	breq	.+24     	; 0x4e4 <__LOCK_REGION_LENGTH__+0xe4>
     4cc:	8c 32       	cpi	r24, 0x2C	; 44
     4ce:	51 f0       	breq	.+20     	; 0x4e4 <__LOCK_REGION_LENGTH__+0xe4>
     4d0:	86 32       	cpi	r24, 0x26	; 38
     4d2:	41 f0       	breq	.+16     	; 0x4e4 <__LOCK_REGION_LENGTH__+0xe4>
				c='_';
			if ( (c >=32) && (c <=126))
     4d4:	90 ee       	ldi	r25, 0xE0	; 224
     4d6:	98 0f       	add	r25, r24
     4d8:	9f 35       	cpi	r25, 0x5F	; 95
     4da:	78 f4       	brcc	.+30     	; 0x4fa <__LOCK_REGION_LENGTH__+0xfa>
     4dc:	90 e0       	ldi	r25, 0x00	; 0
     4de:	04 c0       	rjmp	.+8      	; 0x4e8 <__LOCK_REGION_LENGTH__+0xe8>
		gpib_make_talker(gpib_addr, is_timedout);
		len = 0;
		do
		{
			c = gpib_readdat(&eoi, &timedout, is_timedout);
			hascomma = hascomma || (c == ',');
     4e0:	ff 24       	eor	r15, r15
     4e2:	f3 94       	inc	r15
     4e4:	8f e5       	ldi	r24, 0x5F	; 95
     4e6:	90 e0       	ldi	r25, 0x00	; 0
			if ( (c=='\"') || (c=='*') || (c=='/') || (c=='\\') || (c==':') || (c=='?') || (c==' ') || (c==',') || (c=='&') ) /* YEP, a comma and amphersand is allowed in USBTMC spec, but R&S SW does not like this... */
				c='_';
			if ( (c >=32) && (c <=126))
				tmc_serial_string.UnicodeString[len++] = cpu_to_le16(c);
     4e8:	e1 2f       	mov	r30, r17
     4ea:	f0 e0       	ldi	r31, 0x00	; 0
     4ec:	ee 0f       	add	r30, r30
     4ee:	ff 1f       	adc	r31, r31
     4f0:	e9 59       	subi	r30, 0x99	; 153
     4f2:	fa 4f       	sbci	r31, 0xFA	; 250
     4f4:	91 83       	std	Z+1, r25	; 0x01
     4f6:	80 83       	st	Z, r24
     4f8:	1f 5f       	subi	r17, 0xFF	; 255
		}
		while ((len < TMC_MAX_SERIAL_STRING_LENGTH) && (!timedout) && (!eoi));
     4fa:	12 33       	cpi	r17, 0x32	; 50
     4fc:	08 f0       	brcs	.+2      	; 0x500 <__LOCK_REGION_LENGTH__+0x100>
     4fe:	3b c1       	rjmp	.+630    	; 0x776 <__LOCK_REGION_LENGTH__+0x376>
     500:	89 81       	ldd	r24, Y+1	; 0x01
     502:	81 11       	cpse	r24, r1
     504:	03 c0       	rjmp	.+6      	; 0x50c <__LOCK_REGION_LENGTH__+0x10c>
     506:	8a 81       	ldd	r24, Y+2	; 0x02
     508:	88 23       	and	r24, r24
     50a:	39 f2       	breq	.-114    	; 0x49a <__LOCK_REGION_LENGTH__+0x9a>
		/* strip away spaces at end */
		while ((tmc_serial_string.UnicodeString[len-1] == '_') && (len > 1))
     50c:	e1 2f       	mov	r30, r17
     50e:	f0 e0       	ldi	r31, 0x00	; 0
     510:	ee 0f       	add	r30, r30
     512:	ff 1f       	adc	r31, r31
     514:	eb 59       	subi	r30, 0x9B	; 155
     516:	fa 4f       	sbci	r31, 0xFA	; 250
     518:	80 81       	ld	r24, Z
     51a:	91 81       	ldd	r25, Z+1	; 0x01
     51c:	8f 35       	cpi	r24, 0x5F	; 95
     51e:	91 05       	cpc	r25, r1
     520:	09 f0       	breq	.+2      	; 0x524 <__LOCK_REGION_LENGTH__+0x124>
     522:	35 c1       	rjmp	.+618    	; 0x78e <__LOCK_REGION_LENGTH__+0x38e>
     524:	12 30       	cpi	r17, 0x02	; 2
     526:	28 f4       	brcc	.+10     	; 0x532 <__LOCK_REGION_LENGTH__+0x132>
     528:	32 c1       	rjmp	.+612    	; 0x78e <__LOCK_REGION_LENGTH__+0x38e>
     52a:	10 2f       	mov	r17, r16
     52c:	01 30       	cpi	r16, 0x01	; 1
     52e:	09 f4       	brne	.+2      	; 0x532 <__LOCK_REGION_LENGTH__+0x132>
     530:	f9 c0       	rjmp	.+498    	; 0x724 <__LOCK_REGION_LENGTH__+0x324>
			len--;
     532:	0f ef       	ldi	r16, 0xFF	; 255
     534:	01 0f       	add	r16, r17
			if ( (c >=32) && (c <=126))
				tmc_serial_string.UnicodeString[len++] = cpu_to_le16(c);
		}
		while ((len < TMC_MAX_SERIAL_STRING_LENGTH) && (!timedout) && (!eoi));
		/* strip away spaces at end */
		while ((tmc_serial_string.UnicodeString[len-1] == '_') && (len > 1))
     536:	e0 2f       	mov	r30, r16
     538:	f0 e0       	ldi	r31, 0x00	; 0
     53a:	ee 0f       	add	r30, r30
     53c:	ff 1f       	adc	r31, r31
     53e:	eb 59       	subi	r30, 0x9B	; 155
     540:	fa 4f       	sbci	r31, 0xFA	; 250
     542:	80 81       	ld	r24, Z
     544:	91 81       	ldd	r25, Z+1	; 0x01
     546:	8f 35       	cpi	r24, 0x5F	; 95
     548:	91 05       	cpc	r25, r1
     54a:	79 f3       	breq	.-34     	; 0x52a <__LOCK_REGION_LENGTH__+0x12a>
			len--;
		tmc_serial_string.Header.Size = len*2 + sizeof(USB_Descriptor_Header_t);
     54c:	11 0f       	add	r17, r17
     54e:	10 93 65 05 	sts	0x0565, r17	; 0x800565 <tmc_serial_string>
		
		gpib_untalk_unlisten(is_timedout);
     552:	89 e9       	ldi	r24, 0x99	; 153
     554:	91 e0       	ldi	r25, 0x01	; 1
     556:	0e 94 36 12 	call	0x246c	; 0x246c <gpib_untalk_unlisten>
		
		if ( (timeout_val == 0) || (len==0) ) /* no response to *IDN? string*/
     55a:	80 91 60 05 	lds	r24, 0x0560	; 0x800560 <timeout_val>
     55e:	90 91 61 05 	lds	r25, 0x0561	; 0x800561 <timeout_val+0x1>
     562:	a0 91 62 05 	lds	r26, 0x0562	; 0x800562 <timeout_val+0x2>
     566:	b0 91 63 05 	lds	r27, 0x0563	; 0x800563 <timeout_val+0x3>
     56a:	00 97       	sbiw	r24, 0x00	; 0
     56c:	a1 05       	cpc	r26, r1
     56e:	b1 05       	cpc	r27, r1
     570:	09 f0       	breq	.+2      	; 0x574 <__LOCK_REGION_LENGTH__+0x174>
     572:	ec c0       	rjmp	.+472    	; 0x74c <__LOCK_REGION_LENGTH__+0x34c>

uint32_t timeout_val;

void timeout_start(uint32_t timeout)
{
	timeout_val = timeout;
     574:	80 ea       	ldi	r24, 0xA0	; 160
     576:	96 e8       	ldi	r25, 0x86	; 134
     578:	a1 e0       	ldi	r26, 0x01	; 1
     57a:	b0 e0       	ldi	r27, 0x00	; 0
     57c:	80 93 60 05 	sts	0x0560, r24	; 0x800560 <timeout_val>
     580:	90 93 61 05 	sts	0x0561, r25	; 0x800561 <timeout_val+0x1>
     584:	a0 93 62 05 	sts	0x0562, r26	; 0x800562 <timeout_val+0x2>
     588:	b0 93 63 05 	sts	0x0563, r27	; 0x800563 <timeout_val+0x3>
		gpib_untalk_unlisten(is_timedout);
		
		if ( (timeout_val == 0) || (len==0) ) /* no response to *IDN? string*/
		{ /* so try out ID? query */
			timeout_start(100000); /* 1s timeout*/
			gpib_make_listener(gpib_addr, is_timedout);
     58c:	69 e9       	ldi	r22, 0x99	; 153
     58e:	71 e0       	ldi	r23, 0x01	; 1
     590:	80 91 02 01 	lds	r24, 0x0102	; 0x800102 <gpib_addr>
     594:	0e 94 fe 12 	call	0x25fc	; 0x25fc <gpib_make_listener>
			if (timeout_val != 0) gpib_writedat('I', false, is_timedout);
     598:	80 91 60 05 	lds	r24, 0x0560	; 0x800560 <timeout_val>
     59c:	90 91 61 05 	lds	r25, 0x0561	; 0x800561 <timeout_val+0x1>
     5a0:	a0 91 62 05 	lds	r26, 0x0562	; 0x800562 <timeout_val+0x2>
     5a4:	b0 91 63 05 	lds	r27, 0x0563	; 0x800563 <timeout_val+0x3>
     5a8:	89 2b       	or	r24, r25
     5aa:	8a 2b       	or	r24, r26
     5ac:	8b 2b       	or	r24, r27
     5ae:	09 f0       	breq	.+2      	; 0x5b2 <__LOCK_REGION_LENGTH__+0x1b2>
     5b0:	91 c1       	rjmp	.+802    	; 0x8d4 <__LOCK_REGION_LENGTH__+0x4d4>
			if (timeout_val != 0) gpib_writedat('D', false, is_timedout);
			if (timeout_val != 0) gpib_writedat('?', false, is_timedout);
			if (timeout_val != 0) gpib_writedat('\n', true, is_timedout);
			gpib_untalk_unlisten(is_timedout);
     5b2:	89 e9       	ldi	r24, 0x99	; 153
     5b4:	91 e0       	ldi	r25, 0x01	; 1
     5b6:	0e 94 36 12 	call	0x246c	; 0x246c <gpib_untalk_unlisten>
			if (timeout_val != 0) 
     5ba:	80 91 60 05 	lds	r24, 0x0560	; 0x800560 <timeout_val>
     5be:	90 91 61 05 	lds	r25, 0x0561	; 0x800561 <timeout_val+0x1>
     5c2:	a0 91 62 05 	lds	r26, 0x0562	; 0x800562 <timeout_val+0x2>
     5c6:	b0 91 63 05 	lds	r27, 0x0563	; 0x800563 <timeout_val+0x3>
     5ca:	00 97       	sbiw	r24, 0x00	; 0
     5cc:	a1 05       	cpc	r26, r1
     5ce:	b1 05       	cpc	r27, r1
     5d0:	09 f0       	breq	.+2      	; 0x5d4 <__LOCK_REGION_LENGTH__+0x1d4>
     5d2:	f7 c0       	rjmp	.+494    	; 0x7c2 <__LOCK_REGION_LENGTH__+0x3c2>
				gpib_untalk_unlisten(is_timedout);
			}				
		}
		
		
		if (!hascomma)
     5d4:	f1 10       	cpse	r15, r1
     5d6:	22 c0       	rjmp	.+68     	; 0x61c <__LOCK_REGION_LENGTH__+0x21c>
			if ( (tmc_serial_string.UnicodeString[0] == 'H') &&
     5d8:	20 91 67 05 	lds	r18, 0x0567	; 0x800567 <tmc_serial_string+0x2>
     5dc:	30 91 68 05 	lds	r19, 0x0568	; 0x800568 <tmc_serial_string+0x3>
     5e0:	28 34       	cpi	r18, 0x48	; 72
     5e2:	31 05       	cpc	r19, r1
     5e4:	d9 f4       	brne	.+54     	; 0x61c <__LOCK_REGION_LENGTH__+0x21c>
     5e6:	20 91 69 05 	lds	r18, 0x0569	; 0x800569 <tmc_serial_string+0x4>
     5ea:	30 91 6a 05 	lds	r19, 0x056A	; 0x80056a <tmc_serial_string+0x5>
     5ee:	20 35       	cpi	r18, 0x50	; 80
     5f0:	31 05       	cpc	r19, r1
     5f2:	a1 f4       	brne	.+40     	; 0x61c <__LOCK_REGION_LENGTH__+0x21c>
     5f4:	20 91 6b 05 	lds	r18, 0x056B	; 0x80056b <tmc_serial_string+0x6>
     5f8:	30 91 6c 05 	lds	r19, 0x056C	; 0x80056c <tmc_serial_string+0x7>
     5fc:	20 53       	subi	r18, 0x30	; 48
     5fe:	31 09       	sbc	r19, r1
     600:	ff 24       	eor	r15, r15
     602:	f3 94       	inc	r15
     604:	2a 30       	cpi	r18, 0x0A	; 10
     606:	31 05       	cpc	r19, r1
     608:	08 f0       	brcs	.+2      	; 0x60c <__LOCK_REGION_LENGTH__+0x20c>
     60a:	a4 c1       	rjmp	.+840    	; 0x954 <__LOCK_REGION_LENGTH__+0x554>
			{
				hascomma = true;
			}
		
		
		if ((timeout_val == 0) || (len == 0)  || (!hascomma) ) /* timeout happened or length is 0 => build a serial number based on GPIB address */
     60c:	89 2b       	or	r24, r25
     60e:	8a 2b       	or	r24, r26
     610:	8b 2b       	or	r24, r27
     612:	21 f0       	breq	.+8      	; 0x61c <__LOCK_REGION_LENGTH__+0x21c>
     614:	00 23       	and	r16, r16
     616:	11 f0       	breq	.+4      	; 0x61c <__LOCK_REGION_LENGTH__+0x21c>
     618:	f1 10       	cpse	r15, r1
     61a:	ab c0       	rjmp	.+342    	; 0x772 <__LOCK_REGION_LENGTH__+0x372>
		{
			TMC_SetInternalSerial(true);
     61c:	81 e0       	ldi	r24, 0x01	; 1
     61e:	19 de       	rcall	.-974    	; 0x252 <TMC_SetInternalSerial>
			gotStringViaGPIB = false;
     620:	10 e0       	ldi	r17, 0x00	; 0
		gotStringViaGPIB = false;
	}
	
	//TMC_SetInternalSerial(false);
	
	gpib_ren(false);
     622:	80 e0       	ldi	r24, 0x00	; 0
     624:	0e 94 ae 11 	call	0x235c	; 0x235c <gpib_ren>
	#else
		//round up by default
		__ticks_dc = (uint32_t)(ceil(fabs(__tmp)));
	#endif

	__builtin_avr_delay_cycles(__ticks_dc);
     628:	2f ef       	ldi	r18, 0xFF	; 255
     62a:	81 ee       	ldi	r24, 0xE1	; 225
     62c:	94 e0       	ldi	r25, 0x04	; 4
     62e:	21 50       	subi	r18, 0x01	; 1
     630:	80 40       	sbci	r24, 0x00	; 0
     632:	90 40       	sbci	r25, 0x00	; 0
     634:	e1 f7       	brne	.-8      	; 0x62e <__LOCK_REGION_LENGTH__+0x22e>
     636:	00 c0       	rjmp	.+0      	; 0x638 <__LOCK_REGION_LENGTH__+0x238>
     638:	00 00       	nop
	_delay_ms(100);
	gpib_ren(true);
     63a:	81 e0       	ldi	r24, 0x01	; 1
     63c:	0e 94 ae 11 	call	0x235c	; 0x235c <gpib_ren>
	return gotStringViaGPIB;
}
     640:	81 2f       	mov	r24, r17
     642:	0f 90       	pop	r0
     644:	0f 90       	pop	r0
     646:	df 91       	pop	r29
     648:	cf 91       	pop	r28
     64a:	1f 91       	pop	r17
     64c:	0f 91       	pop	r16
     64e:	ff 90       	pop	r15
     650:	08 95       	ret
     652:	ff 24       	eor	r15, r15
     654:	f3 94       	inc	r15
     656:	2e cf       	rjmp	.-420    	; 0x4b4 <__LOCK_REGION_LENGTH__+0xb4>

	tmc_serial_string.Header.Size = 0;

	timeout_start(100000); /* 1s timeout*/
	gpib_make_listener(gpib_addr, is_timedout);
	if (timeout_val != 0) gpib_writedat('*', false, is_timedout);
     658:	49 e9       	ldi	r20, 0x99	; 153
     65a:	51 e0       	ldi	r21, 0x01	; 1
     65c:	60 e0       	ldi	r22, 0x00	; 0
     65e:	8a e2       	ldi	r24, 0x2A	; 42
     660:	0e 94 83 13 	call	0x2706	; 0x2706 <gpib_writedat>
	if (timeout_val != 0) gpib_writedat('I', false, is_timedout);
     664:	80 91 60 05 	lds	r24, 0x0560	; 0x800560 <timeout_val>
     668:	90 91 61 05 	lds	r25, 0x0561	; 0x800561 <timeout_val+0x1>
     66c:	a0 91 62 05 	lds	r26, 0x0562	; 0x800562 <timeout_val+0x2>
     670:	b0 91 63 05 	lds	r27, 0x0563	; 0x800563 <timeout_val+0x3>
     674:	00 97       	sbiw	r24, 0x00	; 0
     676:	a1 05       	cpc	r26, r1
     678:	b1 05       	cpc	r27, r1
     67a:	09 f4       	brne	.+2      	; 0x67e <__LOCK_REGION_LENGTH__+0x27e>
     67c:	47 c0       	rjmp	.+142    	; 0x70c <__LOCK_REGION_LENGTH__+0x30c>
     67e:	49 e9       	ldi	r20, 0x99	; 153
     680:	51 e0       	ldi	r21, 0x01	; 1
     682:	60 e0       	ldi	r22, 0x00	; 0
     684:	89 e4       	ldi	r24, 0x49	; 73
     686:	0e 94 83 13 	call	0x2706	; 0x2706 <gpib_writedat>
	if (timeout_val != 0) gpib_writedat('D', false, is_timedout);
     68a:	80 91 60 05 	lds	r24, 0x0560	; 0x800560 <timeout_val>
     68e:	90 91 61 05 	lds	r25, 0x0561	; 0x800561 <timeout_val+0x1>
     692:	a0 91 62 05 	lds	r26, 0x0562	; 0x800562 <timeout_val+0x2>
     696:	b0 91 63 05 	lds	r27, 0x0563	; 0x800563 <timeout_val+0x3>
     69a:	89 2b       	or	r24, r25
     69c:	8a 2b       	or	r24, r26
     69e:	8b 2b       	or	r24, r27
     6a0:	09 f4       	brne	.+2      	; 0x6a4 <__LOCK_REGION_LENGTH__+0x2a4>
     6a2:	d6 ce       	rjmp	.-596    	; 0x450 <__LOCK_REGION_LENGTH__+0x50>
     6a4:	49 e9       	ldi	r20, 0x99	; 153
     6a6:	51 e0       	ldi	r21, 0x01	; 1
     6a8:	60 e0       	ldi	r22, 0x00	; 0
     6aa:	84 e4       	ldi	r24, 0x44	; 68
     6ac:	0e 94 83 13 	call	0x2706	; 0x2706 <gpib_writedat>
	if (timeout_val != 0) gpib_writedat('N', false, is_timedout);
     6b0:	80 91 60 05 	lds	r24, 0x0560	; 0x800560 <timeout_val>
     6b4:	90 91 61 05 	lds	r25, 0x0561	; 0x800561 <timeout_val+0x1>
     6b8:	a0 91 62 05 	lds	r26, 0x0562	; 0x800562 <timeout_val+0x2>
     6bc:	b0 91 63 05 	lds	r27, 0x0563	; 0x800563 <timeout_val+0x3>
     6c0:	89 2b       	or	r24, r25
     6c2:	8a 2b       	or	r24, r26
     6c4:	8b 2b       	or	r24, r27
     6c6:	09 f4       	brne	.+2      	; 0x6ca <__LOCK_REGION_LENGTH__+0x2ca>
     6c8:	c3 ce       	rjmp	.-634    	; 0x450 <__LOCK_REGION_LENGTH__+0x50>
     6ca:	49 e9       	ldi	r20, 0x99	; 153
     6cc:	51 e0       	ldi	r21, 0x01	; 1
     6ce:	60 e0       	ldi	r22, 0x00	; 0
     6d0:	8e e4       	ldi	r24, 0x4E	; 78
     6d2:	0e 94 83 13 	call	0x2706	; 0x2706 <gpib_writedat>
	if (timeout_val != 0) gpib_writedat('?', false, is_timedout);
     6d6:	80 91 60 05 	lds	r24, 0x0560	; 0x800560 <timeout_val>
     6da:	90 91 61 05 	lds	r25, 0x0561	; 0x800561 <timeout_val+0x1>
     6de:	a0 91 62 05 	lds	r26, 0x0562	; 0x800562 <timeout_val+0x2>
     6e2:	b0 91 63 05 	lds	r27, 0x0563	; 0x800563 <timeout_val+0x3>
     6e6:	89 2b       	or	r24, r25
     6e8:	8a 2b       	or	r24, r26
     6ea:	8b 2b       	or	r24, r27
     6ec:	09 f4       	brne	.+2      	; 0x6f0 <__LOCK_REGION_LENGTH__+0x2f0>
     6ee:	b0 ce       	rjmp	.-672    	; 0x450 <__LOCK_REGION_LENGTH__+0x50>
     6f0:	49 e9       	ldi	r20, 0x99	; 153
     6f2:	51 e0       	ldi	r21, 0x01	; 1
     6f4:	60 e0       	ldi	r22, 0x00	; 0
     6f6:	8f e3       	ldi	r24, 0x3F	; 63
     6f8:	0e 94 83 13 	call	0x2706	; 0x2706 <gpib_writedat>
     6fc:	80 91 60 05 	lds	r24, 0x0560	; 0x800560 <timeout_val>
     700:	90 91 61 05 	lds	r25, 0x0561	; 0x800561 <timeout_val+0x1>
     704:	a0 91 62 05 	lds	r26, 0x0562	; 0x800562 <timeout_val+0x2>
     708:	b0 91 63 05 	lds	r27, 0x0563	; 0x800563 <timeout_val+0x3>
	if (timeout_val != 0) gpib_writedat('\n', true, is_timedout);
     70c:	89 2b       	or	r24, r25
     70e:	8a 2b       	or	r24, r26
     710:	8b 2b       	or	r24, r27
     712:	09 f4       	brne	.+2      	; 0x716 <__LOCK_REGION_LENGTH__+0x316>
     714:	9d ce       	rjmp	.-710    	; 0x450 <__LOCK_REGION_LENGTH__+0x50>
     716:	49 e9       	ldi	r20, 0x99	; 153
     718:	51 e0       	ldi	r21, 0x01	; 1
     71a:	61 e0       	ldi	r22, 0x01	; 1
     71c:	8a e0       	ldi	r24, 0x0A	; 10
     71e:	0e 94 83 13 	call	0x2706	; 0x2706 <gpib_writedat>
     722:	96 ce       	rjmp	.-724    	; 0x450 <__LOCK_REGION_LENGTH__+0x50>
		}
		while ((len < TMC_MAX_SERIAL_STRING_LENGTH) && (!timedout) && (!eoi));
		/* strip away spaces at end */
		while ((tmc_serial_string.UnicodeString[len-1] == '_') && (len > 1))
			len--;
		tmc_serial_string.Header.Size = len*2 + sizeof(USB_Descriptor_Header_t);
     724:	84 e0       	ldi	r24, 0x04	; 4
     726:	80 93 65 05 	sts	0x0565, r24	; 0x800565 <tmc_serial_string>
		
		gpib_untalk_unlisten(is_timedout);
     72a:	89 e9       	ldi	r24, 0x99	; 153
     72c:	91 e0       	ldi	r25, 0x01	; 1
     72e:	0e 94 36 12 	call	0x246c	; 0x246c <gpib_untalk_unlisten>
		
		if ( (timeout_val == 0) || (len==0) ) /* no response to *IDN? string*/
     732:	80 91 60 05 	lds	r24, 0x0560	; 0x800560 <timeout_val>
     736:	90 91 61 05 	lds	r25, 0x0561	; 0x800561 <timeout_val+0x1>
     73a:	a0 91 62 05 	lds	r26, 0x0562	; 0x800562 <timeout_val+0x2>
     73e:	b0 91 63 05 	lds	r27, 0x0563	; 0x800563 <timeout_val+0x3>
     742:	00 97       	sbiw	r24, 0x00	; 0
     744:	a1 05       	cpc	r26, r1
     746:	b1 05       	cpc	r27, r1
     748:	09 f4       	brne	.+2      	; 0x74c <__LOCK_REGION_LENGTH__+0x34c>
     74a:	14 cf       	rjmp	.-472    	; 0x574 <__LOCK_REGION_LENGTH__+0x174>
				gpib_untalk_unlisten(is_timedout);
			}				
		}
		
		
		if (!hascomma)
     74c:	f1 10       	cpse	r15, r1
     74e:	11 c0       	rjmp	.+34     	; 0x772 <__LOCK_REGION_LENGTH__+0x372>
			if ( (tmc_serial_string.UnicodeString[0] == 'H') &&
     750:	20 91 67 05 	lds	r18, 0x0567	; 0x800567 <tmc_serial_string+0x2>
     754:	30 91 68 05 	lds	r19, 0x0568	; 0x800568 <tmc_serial_string+0x3>
     758:	28 34       	cpi	r18, 0x48	; 72
     75a:	31 05       	cpc	r19, r1
     75c:	09 f0       	breq	.+2      	; 0x760 <__LOCK_REGION_LENGTH__+0x360>
     75e:	5e cf       	rjmp	.-324    	; 0x61c <__LOCK_REGION_LENGTH__+0x21c>
     760:	20 91 69 05 	lds	r18, 0x0569	; 0x800569 <tmc_serial_string+0x4>
     764:	30 91 6a 05 	lds	r19, 0x056A	; 0x80056a <tmc_serial_string+0x5>
     768:	20 35       	cpi	r18, 0x50	; 80
     76a:	31 05       	cpc	r19, r1
     76c:	09 f0       	breq	.+2      	; 0x770 <__LOCK_REGION_LENGTH__+0x370>
     76e:	56 cf       	rjmp	.-340    	; 0x61c <__LOCK_REGION_LENGTH__+0x21c>
     770:	41 cf       	rjmp	.-382    	; 0x5f4 <__LOCK_REGION_LENGTH__+0x1f4>
{
	uint8_t c, len, hascomma;
	bool    eoi, timedout;
	bool    gotStringViaGPIB;
	
	gotStringViaGPIB = true;
     772:	11 e0       	ldi	r17, 0x01	; 1
     774:	56 cf       	rjmp	.-340    	; 0x622 <__LOCK_REGION_LENGTH__+0x222>
			if ( (c >=32) && (c <=126))
				tmc_serial_string.UnicodeString[len++] = cpu_to_le16(c);
		}
		while ((len < TMC_MAX_SERIAL_STRING_LENGTH) && (!timedout) && (!eoi));
		/* strip away spaces at end */
		while ((tmc_serial_string.UnicodeString[len-1] == '_') && (len > 1))
     776:	e1 2f       	mov	r30, r17
     778:	f0 e0       	ldi	r31, 0x00	; 0
     77a:	ee 0f       	add	r30, r30
     77c:	ff 1f       	adc	r31, r31
     77e:	eb 59       	subi	r30, 0x9B	; 155
     780:	fa 4f       	sbci	r31, 0xFA	; 250
     782:	80 81       	ld	r24, Z
     784:	91 81       	ldd	r25, Z+1	; 0x01
     786:	8f 35       	cpi	r24, 0x5F	; 95
     788:	91 05       	cpc	r25, r1
     78a:	09 f4       	brne	.+2      	; 0x78e <__LOCK_REGION_LENGTH__+0x38e>
     78c:	d2 ce       	rjmp	.-604    	; 0x532 <__LOCK_REGION_LENGTH__+0x132>
			len--;
		tmc_serial_string.Header.Size = len*2 + sizeof(USB_Descriptor_Header_t);
     78e:	81 e0       	ldi	r24, 0x01	; 1
     790:	81 0f       	add	r24, r17
     792:	88 0f       	add	r24, r24
     794:	80 93 65 05 	sts	0x0565, r24	; 0x800565 <tmc_serial_string>
		
		gpib_untalk_unlisten(is_timedout);
     798:	89 e9       	ldi	r24, 0x99	; 153
     79a:	91 e0       	ldi	r25, 0x01	; 1
     79c:	0e 94 36 12 	call	0x246c	; 0x246c <gpib_untalk_unlisten>
		
		if ( (timeout_val == 0) || (len==0) ) /* no response to *IDN? string*/
     7a0:	80 91 60 05 	lds	r24, 0x0560	; 0x800560 <timeout_val>
     7a4:	90 91 61 05 	lds	r25, 0x0561	; 0x800561 <timeout_val+0x1>
     7a8:	a0 91 62 05 	lds	r26, 0x0562	; 0x800562 <timeout_val+0x2>
     7ac:	b0 91 63 05 	lds	r27, 0x0563	; 0x800563 <timeout_val+0x3>
     7b0:	00 97       	sbiw	r24, 0x00	; 0
     7b2:	a1 05       	cpc	r26, r1
     7b4:	b1 05       	cpc	r27, r1
     7b6:	09 f4       	brne	.+2      	; 0x7ba <__LOCK_REGION_LENGTH__+0x3ba>
     7b8:	ef c0       	rjmp	.+478    	; 0x998 <__LOCK_REGION_LENGTH__+0x598>
     7ba:	11 11       	cpse	r17, r1
     7bc:	eb c0       	rjmp	.+470    	; 0x994 <__LOCK_REGION_LENGTH__+0x594>
     7be:	00 e0       	ldi	r16, 0x00	; 0
     7c0:	d9 ce       	rjmp	.-590    	; 0x574 <__LOCK_REGION_LENGTH__+0x174>

uint32_t timeout_val;

void timeout_start(uint32_t timeout)
{
	timeout_val = timeout;
     7c2:	80 ea       	ldi	r24, 0xA0	; 160
     7c4:	96 e8       	ldi	r25, 0x86	; 134
     7c6:	a1 e0       	ldi	r26, 0x01	; 1
     7c8:	b0 e0       	ldi	r27, 0x00	; 0
     7ca:	80 93 60 05 	sts	0x0560, r24	; 0x800560 <timeout_val>
     7ce:	90 93 61 05 	sts	0x0561, r25	; 0x800561 <timeout_val+0x1>
     7d2:	a0 93 62 05 	sts	0x0562, r26	; 0x800562 <timeout_val+0x2>
     7d6:	b0 93 63 05 	sts	0x0563, r27	; 0x800563 <timeout_val+0x3>
			if (timeout_val != 0) gpib_writedat('\n', true, is_timedout);
			gpib_untalk_unlisten(is_timedout);
			if (timeout_val != 0) 
			{
				timeout_start(100000); /* 1s timeout*/
				gpib_make_talker(gpib_addr, is_timedout);
     7da:	69 e9       	ldi	r22, 0x99	; 153
     7dc:	71 e0       	ldi	r23, 0x01	; 1
     7de:	80 91 02 01 	lds	r24, 0x0102	; 0x800102 <gpib_addr>
     7e2:	0e 94 aa 12 	call	0x2554	; 0x2554 <gpib_make_talker>
				len = 0;
     7e6:	00 e0       	ldi	r16, 0x00	; 0
				do
				{
					c = gpib_readdat(&eoi, &timedout, is_timedout);
     7e8:	49 e9       	ldi	r20, 0x99	; 153
     7ea:	51 e0       	ldi	r21, 0x01	; 1
     7ec:	be 01       	movw	r22, r28
     7ee:	6f 5f       	subi	r22, 0xFF	; 255
     7f0:	7f 4f       	sbci	r23, 0xFF	; 255
     7f2:	ce 01       	movw	r24, r28
     7f4:	02 96       	adiw	r24, 0x02	; 2
     7f6:	0e 94 c6 11 	call	0x238c	; 0x238c <gpib_readdat>
					hascomma = hascomma || (c == ',');
     7fa:	f1 10       	cpse	r15, r1
     7fc:	68 c0       	rjmp	.+208    	; 0x8ce <__LOCK_REGION_LENGTH__+0x4ce>
     7fe:	8c 32       	cpi	r24, 0x2C	; 44
     800:	b9 f0       	breq	.+46     	; 0x830 <__LOCK_REGION_LENGTH__+0x430>
					if ( (c=='\"') || (c=='*') || (c=='/') || (c=='\\') || (c==':') || (c=='?') || (c==' ') || (c==',') || (c=='&'))
     802:	98 2f       	mov	r25, r24
     804:	9f 7e       	andi	r25, 0xEF	; 239
     806:	9a 32       	cpi	r25, 0x2A	; 42
     808:	a9 f0       	breq	.+42     	; 0x834 <__LOCK_REGION_LENGTH__+0x434>
     80a:	9f 32       	cpi	r25, 0x2F	; 47
     80c:	99 f0       	breq	.+38     	; 0x834 <__LOCK_REGION_LENGTH__+0x434>
     80e:	8c 35       	cpi	r24, 0x5C	; 92
     810:	89 f0       	breq	.+34     	; 0x834 <__LOCK_REGION_LENGTH__+0x434>
     812:	98 2f       	mov	r25, r24
     814:	9d 7f       	andi	r25, 0xFD	; 253
     816:	90 32       	cpi	r25, 0x20	; 32
     818:	69 f0       	breq	.+26     	; 0x834 <__LOCK_REGION_LENGTH__+0x434>
     81a:	8c 32       	cpi	r24, 0x2C	; 44
     81c:	59 f0       	breq	.+22     	; 0x834 <__LOCK_REGION_LENGTH__+0x434>
     81e:	86 32       	cpi	r24, 0x26	; 38
     820:	49 f0       	breq	.+18     	; 0x834 <__LOCK_REGION_LENGTH__+0x434>
						c='_';
					if ( (c >=32) && (c <=126) )
     822:	90 ee       	ldi	r25, 0xE0	; 224
     824:	98 0f       	add	r25, r24
     826:	9f 35       	cpi	r25, 0x5F	; 95
     828:	88 f4       	brcc	.+34     	; 0x84c <__LOCK_REGION_LENGTH__+0x44c>
     82a:	28 2f       	mov	r18, r24
     82c:	30 e0       	ldi	r19, 0x00	; 0
     82e:	05 c0       	rjmp	.+10     	; 0x83a <__LOCK_REGION_LENGTH__+0x43a>
				gpib_make_talker(gpib_addr, is_timedout);
				len = 0;
				do
				{
					c = gpib_readdat(&eoi, &timedout, is_timedout);
					hascomma = hascomma || (c == ',');
     830:	ff 24       	eor	r15, r15
     832:	f3 94       	inc	r15
     834:	2f e5       	ldi	r18, 0x5F	; 95
     836:	30 e0       	ldi	r19, 0x00	; 0
     838:	8f e5       	ldi	r24, 0x5F	; 95
					if ( (c=='\"') || (c=='*') || (c=='/') || (c=='\\') || (c==':') || (c=='?') || (c==' ') || (c==',') || (c=='&'))
						c='_';
					if ( (c >=32) && (c <=126) )
						tmc_serial_string.UnicodeString[len++] = cpu_to_le16(c);
     83a:	e0 2f       	mov	r30, r16
     83c:	f0 e0       	ldi	r31, 0x00	; 0
     83e:	ee 0f       	add	r30, r30
     840:	ff 1f       	adc	r31, r31
     842:	e9 59       	subi	r30, 0x99	; 153
     844:	fa 4f       	sbci	r31, 0xFA	; 250
     846:	31 83       	std	Z+1, r19	; 0x01
     848:	20 83       	st	Z, r18
     84a:	0f 5f       	subi	r16, 0xFF	; 255
				}
				while ((len < TMC_MAX_SERIAL_STRING_LENGTH) && (!timedout) && (!eoi) && (c != '\r') && (c != '\n'));
     84c:	02 33       	cpi	r16, 0x32	; 50
     84e:	08 f0       	brcs	.+2      	; 0x852 <__LOCK_REGION_LENGTH__+0x452>
     850:	94 c0       	rjmp	.+296    	; 0x97a <__LOCK_REGION_LENGTH__+0x57a>
     852:	99 81       	ldd	r25, Y+1	; 0x01
     854:	91 11       	cpse	r25, r1
     856:	08 c0       	rjmp	.+16     	; 0x868 <__LOCK_REGION_LENGTH__+0x468>
     858:	9a 81       	ldd	r25, Y+2	; 0x02
     85a:	91 11       	cpse	r25, r1
     85c:	05 c0       	rjmp	.+10     	; 0x868 <__LOCK_REGION_LENGTH__+0x468>
     85e:	8d 30       	cpi	r24, 0x0D	; 13
     860:	19 f0       	breq	.+6      	; 0x868 <__LOCK_REGION_LENGTH__+0x468>
     862:	8a 30       	cpi	r24, 0x0A	; 10
     864:	09 f0       	breq	.+2      	; 0x868 <__LOCK_REGION_LENGTH__+0x468>
     866:	c0 cf       	rjmp	.-128    	; 0x7e8 <__LOCK_REGION_LENGTH__+0x3e8>
				/* strip away spaces at end */
				while ((tmc_serial_string.UnicodeString[len-1] == '_') && (len > 1))
     868:	e0 2f       	mov	r30, r16
     86a:	f0 e0       	ldi	r31, 0x00	; 0
     86c:	ee 0f       	add	r30, r30
     86e:	ff 1f       	adc	r31, r31
     870:	eb 59       	subi	r30, 0x9B	; 155
     872:	fa 4f       	sbci	r31, 0xFA	; 250
     874:	80 81       	ld	r24, Z
     876:	91 81       	ldd	r25, Z+1	; 0x01
     878:	8f 35       	cpi	r24, 0x5F	; 95
     87a:	91 05       	cpc	r25, r1
     87c:	89 f4       	brne	.+34     	; 0x8a0 <__LOCK_REGION_LENGTH__+0x4a0>
     87e:	02 30       	cpi	r16, 0x02	; 2
     880:	18 f4       	brcc	.+6      	; 0x888 <__LOCK_REGION_LENGTH__+0x488>
     882:	0e c0       	rjmp	.+28     	; 0x8a0 <__LOCK_REGION_LENGTH__+0x4a0>
     884:	01 30       	cpi	r16, 0x01	; 1
     886:	61 f0       	breq	.+24     	; 0x8a0 <__LOCK_REGION_LENGTH__+0x4a0>
					len--;
     888:	01 50       	subi	r16, 0x01	; 1
					if ( (c >=32) && (c <=126) )
						tmc_serial_string.UnicodeString[len++] = cpu_to_le16(c);
				}
				while ((len < TMC_MAX_SERIAL_STRING_LENGTH) && (!timedout) && (!eoi) && (c != '\r') && (c != '\n'));
				/* strip away spaces at end */
				while ((tmc_serial_string.UnicodeString[len-1] == '_') && (len > 1))
     88a:	e0 2f       	mov	r30, r16
     88c:	f0 e0       	ldi	r31, 0x00	; 0
     88e:	ee 0f       	add	r30, r30
     890:	ff 1f       	adc	r31, r31
     892:	eb 59       	subi	r30, 0x9B	; 155
     894:	fa 4f       	sbci	r31, 0xFA	; 250
     896:	80 81       	ld	r24, Z
     898:	91 81       	ldd	r25, Z+1	; 0x01
     89a:	8f 35       	cpi	r24, 0x5F	; 95
     89c:	91 05       	cpc	r25, r1
     89e:	91 f3       	breq	.-28     	; 0x884 <__LOCK_REGION_LENGTH__+0x484>
					len--;
				tmc_serial_string.Header.Size = len*2 + sizeof(USB_Descriptor_Header_t);
     8a0:	81 e0       	ldi	r24, 0x01	; 1
     8a2:	80 0f       	add	r24, r16
     8a4:	88 0f       	add	r24, r24
     8a6:	80 93 65 05 	sts	0x0565, r24	; 0x800565 <tmc_serial_string>
				gpib_untalk_unlisten(is_timedout);
     8aa:	89 e9       	ldi	r24, 0x99	; 153
     8ac:	91 e0       	ldi	r25, 0x01	; 1
     8ae:	0e 94 36 12 	call	0x246c	; 0x246c <gpib_untalk_unlisten>
     8b2:	80 91 60 05 	lds	r24, 0x0560	; 0x800560 <timeout_val>
     8b6:	90 91 61 05 	lds	r25, 0x0561	; 0x800561 <timeout_val+0x1>
     8ba:	a0 91 62 05 	lds	r26, 0x0562	; 0x800562 <timeout_val+0x2>
     8be:	b0 91 63 05 	lds	r27, 0x0563	; 0x800563 <timeout_val+0x3>
			}				
		}
		
		
		if (!hascomma)
     8c2:	ff 20       	and	r15, r15
     8c4:	09 f4       	brne	.+2      	; 0x8c8 <__LOCK_REGION_LENGTH__+0x4c8>
     8c6:	48 c0       	rjmp	.+144    	; 0x958 <__LOCK_REGION_LENGTH__+0x558>
     8c8:	ff 24       	eor	r15, r15
     8ca:	f3 94       	inc	r15
     8cc:	9f ce       	rjmp	.-706    	; 0x60c <__LOCK_REGION_LENGTH__+0x20c>
     8ce:	ff 24       	eor	r15, r15
     8d0:	f3 94       	inc	r15
     8d2:	97 cf       	rjmp	.-210    	; 0x802 <__LOCK_REGION_LENGTH__+0x402>
		
		if ( (timeout_val == 0) || (len==0) ) /* no response to *IDN? string*/
		{ /* so try out ID? query */
			timeout_start(100000); /* 1s timeout*/
			gpib_make_listener(gpib_addr, is_timedout);
			if (timeout_val != 0) gpib_writedat('I', false, is_timedout);
     8d4:	49 e9       	ldi	r20, 0x99	; 153
     8d6:	51 e0       	ldi	r21, 0x01	; 1
     8d8:	60 e0       	ldi	r22, 0x00	; 0
     8da:	89 e4       	ldi	r24, 0x49	; 73
     8dc:	0e 94 83 13 	call	0x2706	; 0x2706 <gpib_writedat>
			if (timeout_val != 0) gpib_writedat('D', false, is_timedout);
     8e0:	80 91 60 05 	lds	r24, 0x0560	; 0x800560 <timeout_val>
     8e4:	90 91 61 05 	lds	r25, 0x0561	; 0x800561 <timeout_val+0x1>
     8e8:	a0 91 62 05 	lds	r26, 0x0562	; 0x800562 <timeout_val+0x2>
     8ec:	b0 91 63 05 	lds	r27, 0x0563	; 0x800563 <timeout_val+0x3>
     8f0:	89 2b       	or	r24, r25
     8f2:	8a 2b       	or	r24, r26
     8f4:	8b 2b       	or	r24, r27
     8f6:	09 f4       	brne	.+2      	; 0x8fa <__LOCK_REGION_LENGTH__+0x4fa>
     8f8:	5c ce       	rjmp	.-840    	; 0x5b2 <__LOCK_REGION_LENGTH__+0x1b2>
     8fa:	49 e9       	ldi	r20, 0x99	; 153
     8fc:	51 e0       	ldi	r21, 0x01	; 1
     8fe:	60 e0       	ldi	r22, 0x00	; 0
     900:	84 e4       	ldi	r24, 0x44	; 68
     902:	0e 94 83 13 	call	0x2706	; 0x2706 <gpib_writedat>
			if (timeout_val != 0) gpib_writedat('?', false, is_timedout);
     906:	80 91 60 05 	lds	r24, 0x0560	; 0x800560 <timeout_val>
     90a:	90 91 61 05 	lds	r25, 0x0561	; 0x800561 <timeout_val+0x1>
     90e:	a0 91 62 05 	lds	r26, 0x0562	; 0x800562 <timeout_val+0x2>
     912:	b0 91 63 05 	lds	r27, 0x0563	; 0x800563 <timeout_val+0x3>
     916:	89 2b       	or	r24, r25
     918:	8a 2b       	or	r24, r26
     91a:	8b 2b       	or	r24, r27
     91c:	09 f4       	brne	.+2      	; 0x920 <__LOCK_REGION_LENGTH__+0x520>
     91e:	49 ce       	rjmp	.-878    	; 0x5b2 <__LOCK_REGION_LENGTH__+0x1b2>
     920:	49 e9       	ldi	r20, 0x99	; 153
     922:	51 e0       	ldi	r21, 0x01	; 1
     924:	60 e0       	ldi	r22, 0x00	; 0
     926:	8f e3       	ldi	r24, 0x3F	; 63
     928:	0e 94 83 13 	call	0x2706	; 0x2706 <gpib_writedat>
			if (timeout_val != 0) gpib_writedat('\n', true, is_timedout);
     92c:	80 91 60 05 	lds	r24, 0x0560	; 0x800560 <timeout_val>
     930:	90 91 61 05 	lds	r25, 0x0561	; 0x800561 <timeout_val+0x1>
     934:	a0 91 62 05 	lds	r26, 0x0562	; 0x800562 <timeout_val+0x2>
     938:	b0 91 63 05 	lds	r27, 0x0563	; 0x800563 <timeout_val+0x3>
     93c:	89 2b       	or	r24, r25
     93e:	8a 2b       	or	r24, r26
     940:	8b 2b       	or	r24, r27
     942:	09 f4       	brne	.+2      	; 0x946 <__LOCK_REGION_LENGTH__+0x546>
     944:	36 ce       	rjmp	.-916    	; 0x5b2 <__LOCK_REGION_LENGTH__+0x1b2>
     946:	49 e9       	ldi	r20, 0x99	; 153
     948:	51 e0       	ldi	r21, 0x01	; 1
     94a:	61 e0       	ldi	r22, 0x01	; 1
     94c:	8a e0       	ldi	r24, 0x0A	; 10
     94e:	0e 94 83 13 	call	0x2706	; 0x2706 <gpib_writedat>
     952:	2f ce       	rjmp	.-930    	; 0x5b2 <__LOCK_REGION_LENGTH__+0x1b2>
     954:	f1 2c       	mov	r15, r1
     956:	5a ce       	rjmp	.-844    	; 0x60c <__LOCK_REGION_LENGTH__+0x20c>
			}				
		}
		
		
		if (!hascomma)
			if ( (tmc_serial_string.UnicodeString[0] == 'H') &&
     958:	20 91 67 05 	lds	r18, 0x0567	; 0x800567 <tmc_serial_string+0x2>
     95c:	30 91 68 05 	lds	r19, 0x0568	; 0x800568 <tmc_serial_string+0x3>
     960:	28 34       	cpi	r18, 0x48	; 72
     962:	31 05       	cpc	r19, r1
     964:	09 f0       	breq	.+2      	; 0x968 <__LOCK_REGION_LENGTH__+0x568>
     966:	52 ce       	rjmp	.-860    	; 0x60c <__LOCK_REGION_LENGTH__+0x20c>
     968:	20 91 69 05 	lds	r18, 0x0569	; 0x800569 <tmc_serial_string+0x4>
     96c:	30 91 6a 05 	lds	r19, 0x056A	; 0x80056a <tmc_serial_string+0x5>
     970:	20 35       	cpi	r18, 0x50	; 80
     972:	31 05       	cpc	r19, r1
     974:	09 f0       	breq	.+2      	; 0x978 <__LOCK_REGION_LENGTH__+0x578>
     976:	4a ce       	rjmp	.-876    	; 0x60c <__LOCK_REGION_LENGTH__+0x20c>
     978:	3d ce       	rjmp	.-902    	; 0x5f4 <__LOCK_REGION_LENGTH__+0x1f4>
					if ( (c >=32) && (c <=126) )
						tmc_serial_string.UnicodeString[len++] = cpu_to_le16(c);
				}
				while ((len < TMC_MAX_SERIAL_STRING_LENGTH) && (!timedout) && (!eoi) && (c != '\r') && (c != '\n'));
				/* strip away spaces at end */
				while ((tmc_serial_string.UnicodeString[len-1] == '_') && (len > 1))
     97a:	e0 2f       	mov	r30, r16
     97c:	f0 e0       	ldi	r31, 0x00	; 0
     97e:	ee 0f       	add	r30, r30
     980:	ff 1f       	adc	r31, r31
     982:	eb 59       	subi	r30, 0x9B	; 155
     984:	fa 4f       	sbci	r31, 0xFA	; 250
     986:	80 81       	ld	r24, Z
     988:	91 81       	ldd	r25, Z+1	; 0x01
     98a:	8f 35       	cpi	r24, 0x5F	; 95
     98c:	91 05       	cpc	r25, r1
     98e:	09 f4       	brne	.+2      	; 0x992 <__LOCK_REGION_LENGTH__+0x592>
     990:	7b cf       	rjmp	.-266    	; 0x888 <__LOCK_REGION_LENGTH__+0x488>
     992:	86 cf       	rjmp	.-244    	; 0x8a0 <__LOCK_REGION_LENGTH__+0x4a0>
     994:	01 2f       	mov	r16, r17
     996:	da ce       	rjmp	.-588    	; 0x74c <__LOCK_REGION_LENGTH__+0x34c>
     998:	01 2f       	mov	r16, r17
     99a:	ec cd       	rjmp	.-1064   	; 0x574 <__LOCK_REGION_LENGTH__+0x174>

0000099c <eeprom_update_if_changed>:
		Jump_To_Bootloader();
	}
}

void eeprom_update_if_changed(uint16_t addr, uint8_t value)
{
     99c:	1f 93       	push	r17
     99e:	cf 93       	push	r28
     9a0:	df 93       	push	r29
     9a2:	ec 01       	movw	r28, r24
     9a4:	16 2f       	mov	r17, r22
	uint8_t oldval;
	eeprom_busy_wait();
     9a6:	f9 99       	sbic	0x1f, 1	; 31
     9a8:	fe cf       	rjmp	.-4      	; 0x9a6 <eeprom_update_if_changed+0xa>
	oldval = eeprom_read_byte((uint8_t*)addr); /* read previous gpib address */
     9aa:	ce 01       	movw	r24, r28
     9ac:	0e 94 77 1a 	call	0x34ee	; 0x34ee <eeprom_read_byte>
	if (oldval != value)
     9b0:	81 17       	cp	r24, r17
     9b2:	49 f0       	breq	.+18     	; 0x9c6 <eeprom_update_if_changed+0x2a>
	{
		eeprom_busy_wait();
     9b4:	f9 99       	sbic	0x1f, 1	; 31
     9b6:	fe cf       	rjmp	.-4      	; 0x9b4 <eeprom_update_if_changed+0x18>
		eeprom_write_byte((uint8_t*)addr, value);		
     9b8:	61 2f       	mov	r22, r17
     9ba:	ce 01       	movw	r24, r28
	}
}
     9bc:	df 91       	pop	r29
     9be:	cf 91       	pop	r28
     9c0:	1f 91       	pop	r17
	eeprom_busy_wait();
	oldval = eeprom_read_byte((uint8_t*)addr); /* read previous gpib address */
	if (oldval != value)
	{
		eeprom_busy_wait();
		eeprom_write_byte((uint8_t*)addr, value);		
     9c2:	0c 94 7f 1a 	jmp	0x34fe	; 0x34fe <eeprom_write_byte>
	}
}
     9c6:	df 91       	pop	r29
     9c8:	cf 91       	pop	r28
     9ca:	1f 91       	pop	r17
     9cc:	08 95       	ret

000009ce <SetupHardware>:

/** Configures the board hardware and chip peripherals for the demo's functionality. */
void SetupHardware(void)
{
	/* Disable watchdog if enabled by bootloader/fuses */
	MCUSR &= ~(1 << WDRF);
     9ce:	84 b7       	in	r24, 0x34	; 52
     9d0:	87 7f       	andi	r24, 0xF7	; 247
     9d2:	84 bf       	out	0x34, r24	; 52
		);
	}
	else
	{
        uint8_t register temp_reg;
		__asm__ __volatile__ (
     9d4:	0f b6       	in	r0, 0x3f	; 63
     9d6:	f8 94       	cli
     9d8:	a8 95       	wdr
     9da:	80 91 60 00 	lds	r24, 0x0060	; 0x800060 <__TEXT_REGION_LENGTH__+0x7e0060>
     9de:	88 61       	ori	r24, 0x18	; 24
     9e0:	80 93 60 00 	sts	0x0060, r24	; 0x800060 <__TEXT_REGION_LENGTH__+0x7e0060>
     9e4:	10 92 60 00 	sts	0x0060, r1	; 0x800060 <__TEXT_REGION_LENGTH__+0x7e0060>
     9e8:	0f be       	out	0x3f, r0	; 63
from 1 to 129. Thus, one does not need to use \c clock_div_t type as argument.
*/
void clock_prescale_set(clock_div_t __x)
{
    uint8_t __tmp = _BV(CLKPCE);
    __asm__ __volatile__ (
     9ea:	90 e0       	ldi	r25, 0x00	; 0
     9ec:	80 e8       	ldi	r24, 0x80	; 128
     9ee:	0f b6       	in	r0, 0x3f	; 63
     9f0:	f8 94       	cli
     9f2:	80 93 61 00 	sts	0x0061, r24	; 0x800061 <__TEXT_REGION_LENGTH__+0x7e0061>
     9f6:	90 93 61 00 	sts	0x0061, r25	; 0x800061 <__TEXT_REGION_LENGTH__+0x7e0061>
     9fa:	0f be       	out	0x3f, r0	; 63
	/* Disable clock division */
	clock_prescale_set(clock_div_1);
	

	/* Hardware Initialization */
	USB_Init();
     9fc:	0e 94 26 18 	call	0x304c	; 0x304c <USB_Init>
			 *  enumerating the device once attached until \ref USB_Attach() is called.
			 */
			static inline void USB_Detach(void) ATTR_ALWAYS_INLINE;
			static inline void USB_Detach(void)
			{
				UDCON  |=  (1 << DETACH);
     a00:	e0 ee       	ldi	r30, 0xE0	; 224
     a02:	f0 e0       	ldi	r31, 0x00	; 0
     a04:	80 81       	ld	r24, Z
     a06:	81 60       	ori	r24, 0x01	; 1
     a08:	80 83       	st	Z, r24
	USB_Detach();

	
	/* update the TMC default serial number*/
	TMC_SetInternalSerial(false);
     a0a:	80 e0       	ldi	r24, 0x00	; 0
     a0c:	22 dc       	rcall	.-1980   	; 0x252 <TMC_SetInternalSerial>
	
	/* LED to output and turn on */
	DDRF |= (1<<5);
     a0e:	85 9a       	sbi	0x10, 5	; 16
	LED(1);
     a10:	8d 9a       	sbi	0x11, 5	; 17
     a12:	08 95       	ret

00000a14 <EVENT_USB_Device_Connect>:
     a14:	08 95       	ret

00000a16 <EVENT_USB_Device_Disconnect>:

/** Event handler for the USB_Disconnect event. This indicates that the device is no longer connected to a host via
 *  the status LEDs and stops the USB management and CDC management tasks.
 */
void EVENT_USB_Device_Disconnect(void)
{
     a16:	08 95       	ret

00000a18 <EVENT_USB_Device_ConfigurationChanged>:
				uint8_t Number = (Address & ENDPOINT_EPNUM_MASK);

				if (Number >= ENDPOINT_TOTAL_ENDPOINTS)
				  return false;

				return Endpoint_ConfigureEndpoint_Prv(Number,
     a18:	42 e0       	ldi	r20, 0x02	; 2
     a1a:	61 ec       	ldi	r22, 0xC1	; 193
     a1c:	81 e0       	ldi	r24, 0x01	; 1
     a1e:	0e 94 61 17 	call	0x2ec2	; 0x2ec2 <Endpoint_ConfigureEndpoint_Prv>
     a22:	46 e3       	ldi	r20, 0x36	; 54
     a24:	61 e8       	ldi	r22, 0x81	; 129
     a26:	82 e0       	ldi	r24, 0x02	; 2
     a28:	0e 94 61 17 	call	0x2ec2	; 0x2ec2 <Endpoint_ConfigureEndpoint_Prv>
     a2c:	46 e3       	ldi	r20, 0x36	; 54
     a2e:	60 e8       	ldi	r22, 0x80	; 128
     a30:	83 e0       	ldi	r24, 0x03	; 3
     a32:	0c 94 61 17 	jmp	0x2ec2	; 0x2ec2 <Endpoint_ConfigureEndpoint_Prv>

00000a36 <handle_control_Req_ReadStatusByte>:
 *  the device from the USB host before passing along unhandled control requests to the library for processing
 *  internally.
 */

void handle_control_Req_ReadStatusByte(void)
{
     a36:	cf 93       	push	r28
     a38:	df 93       	push	r29
			 */
			static inline uint8_t Endpoint_GetCurrentEndpoint(void) ATTR_WARN_UNUSED_RESULT ATTR_ALWAYS_INLINE;
			static inline uint8_t Endpoint_GetCurrentEndpoint(void)
			{
				#if !defined(CONTROL_ONLY_DEVICE)
					return ((UENUM & ENDPOINT_EPNUM_MASK) | Endpoint_GetEndpointDirection());
     a3a:	c0 91 e9 00 	lds	r28, 0x00E9	; 0x8000e9 <__TEXT_REGION_LENGTH__+0x7e00e9>
     a3e:	cf 70       	andi	r28, 0x0F	; 15
			 *  \return The currently selected endpoint's direction, as a \c ENDPOINT_DIR_* mask.
			 */
			static inline uint8_t Endpoint_GetEndpointDirection(void) ATTR_WARN_UNUSED_RESULT ATTR_ALWAYS_INLINE;
			static inline uint8_t Endpoint_GetEndpointDirection(void)
			{
				return (UECFG0X & (1 << EPDIR)) ? ENDPOINT_DIR_IN : ENDPOINT_DIR_OUT;
     a40:	80 91 ec 00 	lds	r24, 0x00EC	; 0x8000ec <__TEXT_REGION_LENGTH__+0x7e00ec>
			 */
			static inline void Endpoint_SelectEndpoint(const uint8_t Address) ATTR_ALWAYS_INLINE;
			static inline void Endpoint_SelectEndpoint(const uint8_t Address)
			{
				#if !defined(CONTROL_ONLY_DEVICE)
					UENUM = (Address & ENDPOINT_EPNUM_MASK);
     a44:	10 92 e9 00 	sts	0x00E9, r1	; 0x8000e9 <__TEXT_REGION_LENGTH__+0x7e00e9>
	uint8_t btag, statusReg;
	uint8_t PrevEndpoint = Endpoint_GetCurrentEndpoint();

	Endpoint_SelectEndpoint(ENDPOINT_CONTROLEP);
	btag = handleReadStatusByte_btagvalue;
     a48:	d0 91 48 05 	lds	r29, 0x0548	; 0x800548 <handleReadStatusByte_btagvalue>

	gpib_ren(1); /* ensure that remote control is enabled */
     a4c:	81 e0       	ldi	r24, 0x01	; 1
     a4e:	0e 94 ae 11 	call	0x235c	; 0x235c <gpib_ren>

uint32_t timeout_val;

void timeout_start(uint32_t timeout)
{
	timeout_val = timeout;
     a52:	80 ef       	ldi	r24, 0xF0	; 240
     a54:	99 e4       	ldi	r25, 0x49	; 73
     a56:	a2 e0       	ldi	r26, 0x02	; 2
     a58:	b0 e0       	ldi	r27, 0x00	; 0
     a5a:	80 93 60 05 	sts	0x0560, r24	; 0x800560 <timeout_val>
     a5e:	90 93 61 05 	sts	0x0561, r25	; 0x800561 <timeout_val+0x1>
     a62:	a0 93 62 05 	sts	0x0562, r26	; 0x800562 <timeout_val+0x2>
     a66:	b0 93 63 05 	sts	0x0563, r27	; 0x800563 <timeout_val+0x3>
	Endpoint_SelectEndpoint(ENDPOINT_CONTROLEP);
	btag = handleReadStatusByte_btagvalue;

	gpib_ren(1); /* ensure that remote control is enabled */
	timeout_start(150000); /* 1.5s timeout*/
	statusReg =  gpib_readStatusByte(gpib_addr, is_timedout);
     a6a:	69 e9       	ldi	r22, 0x99	; 153
     a6c:	71 e0       	ldi	r23, 0x01	; 1
     a6e:	80 91 02 01 	lds	r24, 0x0102	; 0x800102 <gpib_addr>
     a72:	0e 94 a4 10 	call	0x2148	; 0x2148 <gpib_readStatusByte>
	statusReg |= srq_statusbyte; // or previously read autoread status byte (Visa will issue a read status byte after receiving a SRQ interrupt transfer)
     a76:	90 91 48 01 	lds	r25, 0x0148	; 0x800148 <srq_statusbyte>
     a7a:	89 2b       	or	r24, r25
	srq_statusbyte = 0x00; // clear previously read autoread status byte
     a7c:	10 92 48 01 	sts	0x0148, r1	; 0x800148 <srq_statusbyte>
			 *  \param[in] Data  Data to write into the the currently selected endpoint's FIFO buffer.
			 */
			static inline void Endpoint_Write_8(const uint8_t Data) ATTR_ALWAYS_INLINE;
			static inline void Endpoint_Write_8(const uint8_t Data)
			{
				UEDATX = Data;
     a80:	91 e0       	ldi	r25, 0x01	; 1
     a82:	90 93 f1 00 	sts	0x00F1, r25	; 0x8000f1 <__TEXT_REGION_LENGTH__+0x7e00f1>
     a86:	d0 93 f1 00 	sts	0x00F1, r29	; 0x8000f1 <__TEXT_REGION_LENGTH__+0x7e00f1>
     a8a:	80 93 f1 00 	sts	0x00F1, r24	; 0x8000f1 <__TEXT_REGION_LENGTH__+0x7e00f1>
	Endpoint_Write_8(TMC_STATUS_SUCCESS);
	Endpoint_Write_8(btag);
	Endpoint_Write_8(statusReg);
	
	/* prepare interrupt response */
	RSTB_btag = btag;
     a8e:	d0 93 46 05 	sts	0x0546, r29	; 0x800546 <RSTB_btag>
	RSTB_status = statusReg;
     a92:	80 93 45 05 	sts	0x0545, r24	; 0x800545 <RSTB_status>
	handleRSTB = true;
     a96:	90 93 47 05 	sts	0x0547, r25	; 0x800547 <handleRSTB>
			 */
			static inline void Endpoint_ClearIN(void) ATTR_ALWAYS_INLINE;
			static inline void Endpoint_ClearIN(void)
			{
				#if !defined(CONTROL_ONLY_DEVICE)
					UEINTX &= ~((1 << TXINI) | (1 << FIFOCON));
     a9a:	80 91 e8 00 	lds	r24, 0x00E8	; 0x8000e8 <__TEXT_REGION_LENGTH__+0x7e00e8>
     a9e:	8e 77       	andi	r24, 0x7E	; 126
     aa0:	80 93 e8 00 	sts	0x00E8, r24	; 0x8000e8 <__TEXT_REGION_LENGTH__+0x7e00e8>

	Endpoint_ClearIN();
	Endpoint_ClearStatusStage();
     aa4:	0e 94 75 17 	call	0x2eea	; 0x2eea <Endpoint_ClearStatusStage>
	
	handleReadStatusByte = false; /* no matter what - we can cancel the pending transfer handling */
     aa8:	10 92 49 05 	sts	0x0549, r1	; 0x800549 <handleReadStatusByte>
			 */
			static inline void Endpoint_SelectEndpoint(const uint8_t Address) ATTR_ALWAYS_INLINE;
			static inline void Endpoint_SelectEndpoint(const uint8_t Address)
			{
				#if !defined(CONTROL_ONLY_DEVICE)
					UENUM = (Address & ENDPOINT_EPNUM_MASK);
     aac:	c0 93 e9 00 	sts	0x00E9, r28	; 0x8000e9 <__TEXT_REGION_LENGTH__+0x7e00e9>
	Endpoint_SelectEndpoint(PrevEndpoint);
}
     ab0:	df 91       	pop	r29
     ab2:	cf 91       	pop	r28
     ab4:	08 95       	ret

00000ab6 <EVENT_USB_Device_ControlRequest>:

void EVENT_USB_Device_ControlRequest(void)
{
     ab6:	cf 93       	push	r28
	uint8_t TMCRequestStatus = TMC_STATUS_SUCCESS;	
	
	if ( ((USB_ControlRequest.wIndex == INTERFACE_ID_TestAndMeasurement) && ((USB_ControlRequest.bmRequestType & REQREC_INTERFACE)!=0)) ||
     ab8:	80 91 d4 05 	lds	r24, 0x05D4	; 0x8005d4 <USB_ControlRequest+0x4>
     abc:	90 91 d5 05 	lds	r25, 0x05D5	; 0x8005d5 <USB_ControlRequest+0x5>
     ac0:	00 97       	sbiw	r24, 0x00	; 0
     ac2:	b9 f5       	brne	.+110    	; 0xb32 <__stack+0x33>
     ac4:	90 91 d0 05 	lds	r25, 0x05D0	; 0x8005d0 <USB_ControlRequest>
     ac8:	90 ff       	sbrs	r25, 0
     aca:	31 c0       	rjmp	.+98     	; 0xb2e <__stack+0x2f>
	     (((USB_ControlRequest.wIndex == TMC_IN_EPADDR) || (USB_ControlRequest.wIndex == TMC_OUT_EPADDR)) && ((USB_ControlRequest.bmRequestType & REQREC_ENDPOINT)!=0))     )
	{
		/* Process TMC specific control requests */
		switch (USB_ControlRequest.bRequest)
     acc:	80 91 d1 05 	lds	r24, 0x05D1	; 0x8005d1 <USB_ControlRequest+0x1>
     ad0:	86 30       	cpi	r24, 0x06	; 6
     ad2:	09 f4       	brne	.+2      	; 0xad6 <EVENT_USB_Device_ControlRequest+0x20>
     ad4:	bb c0       	rjmp	.+374    	; 0xc4c <__stack+0x14d>
     ad6:	87 30       	cpi	r24, 0x07	; 7
     ad8:	d0 f1       	brcs	.+116    	; 0xb4e <__stack+0x4f>
     ada:	80 38       	cpi	r24, 0x80	; 128
     adc:	b9 f0       	breq	.+46     	; 0xb0c <__stack+0xd>
     ade:	08 f4       	brcc	.+2      	; 0xae2 <EVENT_USB_Device_ControlRequest+0x2c>
     ae0:	66 c0       	rjmp	.+204    	; 0xbae <__stack+0xaf>
     ae2:	81 3a       	cpi	r24, 0xA1	; 161
     ae4:	09 f4       	brne	.+2      	; 0xae8 <EVENT_USB_Device_ControlRequest+0x32>
     ae6:	27 c1       	rjmp	.+590    	; 0xd36 <__stack+0x237>
     ae8:	82 3a       	cpi	r24, 0xA2	; 162
     aea:	09 f4       	brne	.+2      	; 0xaee <EVENT_USB_Device_ControlRequest+0x38>
     aec:	a4 c0       	rjmp	.+328    	; 0xc36 <__stack+0x137>
     aee:	80 3a       	cpi	r24, 0xA0	; 160
     af0:	f1 f4       	brne	.+60     	; 0xb2e <__stack+0x2f>
				
				s_nextwrite_mightbeparameterset = true;
				break;

			case Req_RenControl:
				if ((USB_ControlRequest.wValue & 0xff) == 1)
     af2:	80 91 d2 05 	lds	r24, 0x05D2	; 0x8005d2 <USB_ControlRequest+0x2>
     af6:	81 30       	cpi	r24, 0x01	; 1
     af8:	09 f0       	breq	.+2      	; 0xafc <EVENT_USB_Device_ControlRequest+0x46>
				{
					gpib_ren(1);
				}
				else
				{
					gpib_ren(0);
     afa:	80 e0       	ldi	r24, 0x00	; 0
     afc:	0e 94 ae 11 	call	0x235c	; 0x235c <gpib_ren>
			 *  \note This is not applicable for non CONTROL type endpoints.
			 */
			static inline void Endpoint_ClearSETUP(void) ATTR_ALWAYS_INLINE;
			static inline void Endpoint_ClearSETUP(void)
			{
				UEINTX &= ~(1 << RXSTPI);
     b00:	80 91 e8 00 	lds	r24, 0x00E8	; 0x8000e8 <__TEXT_REGION_LENGTH__+0x7e00e8>
     b04:	87 7f       	andi	r24, 0xF7	; 247
     b06:	80 93 e8 00 	sts	0x00E8, r24	; 0x8000e8 <__TEXT_REGION_LENGTH__+0x7e00e8>
     b0a:	8a c0       	rjmp	.+276    	; 0xc20 <__stack+0x121>
     b0c:	80 91 e8 00 	lds	r24, 0x00E8	; 0x8000e8 <__TEXT_REGION_LENGTH__+0x7e00e8>
     b10:	87 7f       	andi	r24, 0xF7	; 247
     b12:	80 93 e8 00 	sts	0x00E8, r24	; 0x8000e8 <__TEXT_REGION_LENGTH__+0x7e00e8>
		/* Process TMC specific control requests */
		switch (USB_ControlRequest.bRequest)
		{
			case Req_ReadStatusByte:
				Endpoint_ClearSETUP();
				handleReadStatusByte_btagvalue = USB_ControlRequest.wValue;
     b16:	80 91 d2 05 	lds	r24, 0x05D2	; 0x8005d2 <USB_ControlRequest+0x2>
     b1a:	80 93 48 05 	sts	0x0548, r24	; 0x800548 <handleReadStatusByte_btagvalue>
				if ( !gpib_write_is_busy )
     b1e:	80 91 46 01 	lds	r24, 0x0146	; 0x800146 <gpib_write_is_busy>
     b22:	88 23       	and	r24, r24
     b24:	09 f4       	brne	.+2      	; 0xb28 <__stack+0x29>
     b26:	0b c1       	rjmp	.+534    	; 0xd3e <__stack+0x23f>
				{ /* no write transfer active, thus handle the request immediately */
					handle_control_Req_ReadStatusByte();
				}
				else
				{ /* a USB triggered GPIB write transfer is active. Mark the handling of this request for later */
					handleReadStatusByte = true;
     b28:	81 e0       	ldi	r24, 0x01	; 1
     b2a:	80 93 49 05 	sts	0x0549, r24	; 0x800549 <handleReadStatusByte>
				Endpoint_ClearIN();
				Endpoint_ClearStatusStage();
				break;
		}
	}
}
     b2e:	cf 91       	pop	r28
     b30:	08 95       	ret

void EVENT_USB_Device_ControlRequest(void)
{
	uint8_t TMCRequestStatus = TMC_STATUS_SUCCESS;	
	
	if ( ((USB_ControlRequest.wIndex == INTERFACE_ID_TestAndMeasurement) && ((USB_ControlRequest.bmRequestType & REQREC_INTERFACE)!=0)) ||
     b32:	82 38       	cpi	r24, 0x82	; 130
     b34:	91 05       	cpc	r25, r1
     b36:	11 f0       	breq	.+4      	; 0xb3c <__stack+0x3d>
	     (((USB_ControlRequest.wIndex == TMC_IN_EPADDR) || (USB_ControlRequest.wIndex == TMC_OUT_EPADDR)) && ((USB_ControlRequest.bmRequestType & REQREC_ENDPOINT)!=0))     )
     b38:	03 97       	sbiw	r24, 0x03	; 3
     b3a:	c9 f7       	brne	.-14     	; 0xb2e <__stack+0x2f>
     b3c:	90 91 d0 05 	lds	r25, 0x05D0	; 0x8005d0 <USB_ControlRequest>
     b40:	91 ff       	sbrs	r25, 1
     b42:	f5 cf       	rjmp	.-22     	; 0xb2e <__stack+0x2f>
	{
		/* Process TMC specific control requests */
		switch (USB_ControlRequest.bRequest)
     b44:	80 91 d1 05 	lds	r24, 0x05D1	; 0x8005d1 <USB_ControlRequest+0x1>
     b48:	86 30       	cpi	r24, 0x06	; 6
     b4a:	29 f6       	brne	.-118    	; 0xad6 <EVENT_USB_Device_ControlRequest+0x20>
     b4c:	7f c0       	rjmp	.+254    	; 0xc4c <__stack+0x14d>
     b4e:	83 30       	cpi	r24, 0x03	; 3
     b50:	09 f4       	brne	.+2      	; 0xb54 <__stack+0x55>
     b52:	8f c0       	rjmp	.+286    	; 0xc72 <__stack+0x173>
     b54:	08 f0       	brcs	.+2      	; 0xb58 <__stack+0x59>
     b56:	4e c0       	rjmp	.+156    	; 0xbf4 <__stack+0xf5>
     b58:	81 30       	cpi	r24, 0x01	; 1
     b5a:	09 f4       	brne	.+2      	; 0xb5e <__stack+0x5f>
     b5c:	ce c0       	rjmp	.+412    	; 0xcfa <__stack+0x1fb>
     b5e:	82 30       	cpi	r24, 0x02	; 2
     b60:	31 f7       	brne	.-52     	; 0xb2e <__stack+0x2f>
					Endpoint_ClearStatusStage();
				}

				break;
			case Req_CheckAbortBulkOutStatus:
				if (USB_ControlRequest.bmRequestType == (REQDIR_DEVICETOHOST | REQTYPE_CLASS | REQREC_ENDPOINT))
     b62:	92 3a       	cpi	r25, 0xA2	; 162
     b64:	21 f7       	brne	.-56     	; 0xb2e <__stack+0x2f>
				{
					/* Check that an ABORT BULK OUT transaction has been requested and that the request has completed */
					if (RequestInProgress != Req_InitiateAbortBulkOut)
     b66:	80 91 4f 05 	lds	r24, 0x054F	; 0x80054f <RequestInProgress>
     b6a:	81 30       	cpi	r24, 0x01	; 1
     b6c:	09 f4       	brne	.+2      	; 0xb70 <__stack+0x71>
     b6e:	db c0       	rjmp	.+438    	; 0xd26 <__stack+0x227>
			case Req_CheckAbortBulkInStatus:
				if (USB_ControlRequest.bmRequestType == (REQDIR_DEVICETOHOST | REQTYPE_CLASS | REQREC_ENDPOINT))
				{
					/* Check that an ABORT BULK IN transaction has been requested and that the request has completed */
					if (RequestInProgress != Req_InitiateAbortBulkIn)
					  TMCRequestStatus = TMC_STATUS_SPLIT_NOT_IN_PROGRESS;
     b70:	92 e8       	ldi	r25, 0x82	; 130
     b72:	80 91 e8 00 	lds	r24, 0x00E8	; 0x8000e8 <__TEXT_REGION_LENGTH__+0x7e00e8>
     b76:	87 7f       	andi	r24, 0xF7	; 247
     b78:	80 93 e8 00 	sts	0x00E8, r24	; 0x8000e8 <__TEXT_REGION_LENGTH__+0x7e00e8>
			 *  \param[in] Data  Data to write into the the currently selected endpoint's FIFO buffer.
			 */
			static inline void Endpoint_Write_8(const uint8_t Data) ATTR_ALWAYS_INLINE;
			static inline void Endpoint_Write_8(const uint8_t Data)
			{
				UEDATX = Data;
     b7c:	90 93 f1 00 	sts	0x00F1, r25	; 0x8000f1 <__TEXT_REGION_LENGTH__+0x7e00f1>
			 *  \param[in] Data  Data to write to the currently selected endpoint's FIFO buffer.
			 */
			static inline void Endpoint_Write_16_LE(const uint16_t Data) ATTR_ALWAYS_INLINE;
			static inline void Endpoint_Write_16_LE(const uint16_t Data)
			{
				UEDATX = (Data & 0xFF);
     b80:	10 92 f1 00 	sts	0x00F1, r1	; 0x8000f1 <__TEXT_REGION_LENGTH__+0x7e00f1>
				UEDATX = (Data >> 8);
     b84:	10 92 f1 00 	sts	0x00F1, r1	; 0x8000f1 <__TEXT_REGION_LENGTH__+0x7e00f1>
					Endpoint_ClearSETUP();

					/* Write the request response bytes */
					Endpoint_Write_8(TMCRequestStatus);
					Endpoint_Write_16_LE(0);
					Endpoint_Write_32_LE(LastTransferLength);
     b88:	80 91 42 05 	lds	r24, 0x0542	; 0x800542 <LastTransferLength>
     b8c:	90 91 43 05 	lds	r25, 0x0543	; 0x800543 <LastTransferLength+0x1>
			 *  \param[in] Data  Data to write to the currently selected endpoint's FIFO buffer.
			 */
			static inline void Endpoint_Write_32_LE(const uint32_t Data) ATTR_ALWAYS_INLINE;
			static inline void Endpoint_Write_32_LE(const uint32_t Data)
			{
				UEDATX = (Data &  0xFF);
     b90:	80 93 f1 00 	sts	0x00F1, r24	; 0x8000f1 <__TEXT_REGION_LENGTH__+0x7e00f1>
				UEDATX = (Data >> 8);
     b94:	a0 e0       	ldi	r26, 0x00	; 0
     b96:	b0 e0       	ldi	r27, 0x00	; 0
     b98:	89 2f       	mov	r24, r25
     b9a:	9a 2f       	mov	r25, r26
     b9c:	ab 2f       	mov	r26, r27
     b9e:	bb 27       	eor	r27, r27
     ba0:	80 93 f1 00 	sts	0x00F1, r24	; 0x8000f1 <__TEXT_REGION_LENGTH__+0x7e00f1>
				UEDATX = (Data >> 16);
     ba4:	10 92 f1 00 	sts	0x00F1, r1	; 0x8000f1 <__TEXT_REGION_LENGTH__+0x7e00f1>
				UEDATX = (Data >> 24);
     ba8:	10 92 f1 00 	sts	0x00F1, r1	; 0x8000f1 <__TEXT_REGION_LENGTH__+0x7e00f1>
     bac:	3c c0       	rjmp	.+120    	; 0xc26 <__stack+0x127>
	
	if ( ((USB_ControlRequest.wIndex == INTERFACE_ID_TestAndMeasurement) && ((USB_ControlRequest.bmRequestType & REQREC_INTERFACE)!=0)) ||
	     (((USB_ControlRequest.wIndex == TMC_IN_EPADDR) || (USB_ControlRequest.wIndex == TMC_OUT_EPADDR)) && ((USB_ControlRequest.bmRequestType & REQREC_ENDPOINT)!=0))     )
	{
		/* Process TMC specific control requests */
		switch (USB_ControlRequest.bRequest)
     bae:	87 30       	cpi	r24, 0x07	; 7
     bb0:	09 f4       	brne	.+2      	; 0xbb4 <__stack+0xb5>
     bb2:	8f c0       	rjmp	.+286    	; 0xcd2 <__stack+0x1d3>
     bb4:	80 34       	cpi	r24, 0x40	; 64
     bb6:	09 f0       	breq	.+2      	; 0xbba <__stack+0xbb>
     bb8:	ba cf       	rjmp	.-140    	; 0xb2e <__stack+0x2f>
			 *  \note This is not applicable for non CONTROL type endpoints.
			 */
			static inline void Endpoint_ClearSETUP(void) ATTR_ALWAYS_INLINE;
			static inline void Endpoint_ClearSETUP(void)
			{
				UEINTX &= ~(1 << RXSTPI);
     bba:	80 91 e8 00 	lds	r24, 0x00E8	; 0x8000e8 <__TEXT_REGION_LENGTH__+0x7e00e8>
     bbe:	87 7f       	andi	r24, 0xF7	; 247
     bc0:	80 93 e8 00 	sts	0x00E8, r24	; 0x8000e8 <__TEXT_REGION_LENGTH__+0x7e00e8>
			 *  \param[in] Data  Data to write into the the currently selected endpoint's FIFO buffer.
			 */
			static inline void Endpoint_Write_8(const uint8_t Data) ATTR_ALWAYS_INLINE;
			static inline void Endpoint_Write_8(const uint8_t Data)
			{
				UEDATX = Data;
     bc4:	c1 e0       	ldi	r28, 0x01	; 1
     bc6:	c0 93 f1 00 	sts	0x00F1, r28	; 0x8000f1 <__TEXT_REGION_LENGTH__+0x7e00f1>
			 */
			static inline void Endpoint_ClearIN(void) ATTR_ALWAYS_INLINE;
			static inline void Endpoint_ClearIN(void)
			{
				#if !defined(CONTROL_ONLY_DEVICE)
					UEINTX &= ~((1 << TXINI) | (1 << FIFOCON));
     bca:	80 91 e8 00 	lds	r24, 0x00E8	; 0x8000e8 <__TEXT_REGION_LENGTH__+0x7e00e8>
     bce:	8e 77       	andi	r24, 0x7E	; 126
     bd0:	80 93 e8 00 	sts	0x00E8, r24	; 0x8000e8 <__TEXT_REGION_LENGTH__+0x7e00e8>
				Endpoint_ClearSETUP();

				/* USBTMC Status response (1 Byte) */
				Endpoint_Write_8(TMC_STATUS_SUCCESS);
				Endpoint_ClearIN();
				Endpoint_ClearStatusStage();
     bd4:	0e 94 75 17 	call	0x2eea	; 0x2eea <Endpoint_ClearStatusStage>
				
				LED(0);
     bd8:	8d 98       	cbi	0x11, 5	; 17
     bda:	2f ef       	ldi	r18, 0xFF	; 255
     bdc:	84 e3       	ldi	r24, 0x34	; 52
     bde:	9c e0       	ldi	r25, 0x0C	; 12
     be0:	21 50       	subi	r18, 0x01	; 1
     be2:	80 40       	sbci	r24, 0x00	; 0
     be4:	90 40       	sbci	r25, 0x00	; 0
     be6:	e1 f7       	brne	.-8      	; 0xbe0 <__stack+0xe1>
     be8:	00 c0       	rjmp	.+0      	; 0xbea <__stack+0xeb>
     bea:	00 00       	nop
				_delay_ms(250);
				LED(1);
     bec:	8d 9a       	sbi	0x11, 5	; 17
				
				s_nextwrite_mightbeparameterset = true;
     bee:	c0 93 41 05 	sts	0x0541, r28	; 0x800541 <s_nextwrite_mightbeparameterset>
				break;
     bf2:	9d cf       	rjmp	.-198    	; 0xb2e <__stack+0x2f>
	
	if ( ((USB_ControlRequest.wIndex == INTERFACE_ID_TestAndMeasurement) && ((USB_ControlRequest.bmRequestType & REQREC_INTERFACE)!=0)) ||
	     (((USB_ControlRequest.wIndex == TMC_IN_EPADDR) || (USB_ControlRequest.wIndex == TMC_OUT_EPADDR)) && ((USB_ControlRequest.bmRequestType & REQREC_ENDPOINT)!=0))     )
	{
		/* Process TMC specific control requests */
		switch (USB_ControlRequest.bRequest)
     bf4:	84 30       	cpi	r24, 0x04	; 4
     bf6:	09 f4       	brne	.+2      	; 0xbfa <__stack+0xfb>
     bf8:	5e c0       	rjmp	.+188    	; 0xcb6 <__stack+0x1b7>
     bfa:	85 30       	cpi	r24, 0x05	; 5
     bfc:	09 f0       	breq	.+2      	; 0xc00 <__stack+0x101>
     bfe:	97 cf       	rjmp	.-210    	; 0xb2e <__stack+0x2f>
				}

				break;
			case Req_InitiateClear:
			
				if (USB_ControlRequest.bmRequestType == (REQDIR_DEVICETOHOST | REQTYPE_CLASS | REQREC_INTERFACE))
     c00:	91 3a       	cpi	r25, 0xA1	; 161
     c02:	09 f0       	breq	.+2      	; 0xc06 <__stack+0x107>
     c04:	94 cf       	rjmp	.-216    	; 0xb2e <__stack+0x2f>
			 *  \note This is not applicable for non CONTROL type endpoints.
			 */
			static inline void Endpoint_ClearSETUP(void) ATTR_ALWAYS_INLINE;
			static inline void Endpoint_ClearSETUP(void)
			{
				UEINTX &= ~(1 << RXSTPI);
     c06:	90 91 e8 00 	lds	r25, 0x00E8	; 0x8000e8 <__TEXT_REGION_LENGTH__+0x7e00e8>
     c0a:	97 7f       	andi	r25, 0xF7	; 247
     c0c:	90 93 e8 00 	sts	0x00E8, r25	; 0x8000e8 <__TEXT_REGION_LENGTH__+0x7e00e8>
				{
					Endpoint_ClearSETUP();
					/* Check that no split transaction is already in progress */
					if (RequestInProgress != 0)
     c10:	90 91 4f 05 	lds	r25, 0x054F	; 0x80054f <RequestInProgress>
     c14:	99 23       	and	r25, r25
     c16:	09 f4       	brne	.+2      	; 0xc1a <__stack+0x11b>
     c18:	94 c0       	rjmp	.+296    	; 0xd42 <__stack+0x243>
			 *  \param[in] Data  Data to write into the the currently selected endpoint's FIFO buffer.
			 */
			static inline void Endpoint_Write_8(const uint8_t Data) ATTR_ALWAYS_INLINE;
			static inline void Endpoint_Write_8(const uint8_t Data)
			{
				UEDATX = Data;
     c1a:	83 e8       	ldi	r24, 0x83	; 131
     c1c:	80 93 f1 00 	sts	0x00F1, r24	; 0x8000f1 <__TEXT_REGION_LENGTH__+0x7e00f1>
     c20:	81 e0       	ldi	r24, 0x01	; 1
     c22:	80 93 f1 00 	sts	0x00F1, r24	; 0x8000f1 <__TEXT_REGION_LENGTH__+0x7e00f1>
			 */
			static inline void Endpoint_ClearIN(void) ATTR_ALWAYS_INLINE;
			static inline void Endpoint_ClearIN(void)
			{
				#if !defined(CONTROL_ONLY_DEVICE)
					UEINTX &= ~((1 << TXINI) | (1 << FIFOCON));
     c26:	80 91 e8 00 	lds	r24, 0x00E8	; 0x8000e8 <__TEXT_REGION_LENGTH__+0x7e00e8>
     c2a:	8e 77       	andi	r24, 0x7E	; 126
     c2c:	80 93 e8 00 	sts	0x00E8, r24	; 0x8000e8 <__TEXT_REGION_LENGTH__+0x7e00e8>
				Endpoint_ClearIN();
				Endpoint_ClearStatusStage();
				break;
		}
	}
}
     c30:	cf 91       	pop	r28

				Endpoint_ClearSETUP();
				/* USBTMC Status response (1 Byte) */
				Endpoint_Write_8(TMC_STATUS_SUCCESS);
				Endpoint_ClearIN();
				Endpoint_ClearStatusStage();
     c32:	0c 94 75 17 	jmp	0x2eea	; 0x2eea <Endpoint_ClearStatusStage>
				Endpoint_ClearIN();
				Endpoint_ClearStatusStage();
				break;
				
			case Req_LocalLockout:
				handleLocalLockout = true; // trigger handling of local lockout within TMC_TASK
     c36:	91 e0       	ldi	r25, 0x01	; 1
     c38:	90 93 4b 05 	sts	0x054B, r25	; 0x80054b <handleLocalLockout>
			 *  \note This is not applicable for non CONTROL type endpoints.
			 */
			static inline void Endpoint_ClearSETUP(void) ATTR_ALWAYS_INLINE;
			static inline void Endpoint_ClearSETUP(void)
			{
				UEINTX &= ~(1 << RXSTPI);
     c3c:	80 91 e8 00 	lds	r24, 0x00E8	; 0x8000e8 <__TEXT_REGION_LENGTH__+0x7e00e8>
     c40:	87 7f       	andi	r24, 0xF7	; 247
     c42:	80 93 e8 00 	sts	0x00E8, r24	; 0x8000e8 <__TEXT_REGION_LENGTH__+0x7e00e8>
			 *  \param[in] Data  Data to write into the the currently selected endpoint's FIFO buffer.
			 */
			static inline void Endpoint_Write_8(const uint8_t Data) ATTR_ALWAYS_INLINE;
			static inline void Endpoint_Write_8(const uint8_t Data)
			{
				UEDATX = Data;
     c46:	90 93 f1 00 	sts	0x00F1, r25	; 0x8000f1 <__TEXT_REGION_LENGTH__+0x7e00f1>
     c4a:	ed cf       	rjmp	.-38     	; 0xc26 <__stack+0x127>
					Endpoint_ClearStatusStage();
				}

				break;
			case Req_CheckClearStatus:
				if (USB_ControlRequest.bmRequestType == (REQDIR_DEVICETOHOST | REQTYPE_CLASS | REQREC_INTERFACE))
     c4c:	91 3a       	cpi	r25, 0xA1	; 161
     c4e:	09 f0       	breq	.+2      	; 0xc52 <__stack+0x153>
     c50:	6e cf       	rjmp	.-292    	; 0xb2e <__stack+0x2f>
				{
					/* Check that a CLEAR transaction has been requested and that the request has completed */
					if (RequestInProgress != Req_InitiateClear)
     c52:	80 91 4f 05 	lds	r24, 0x054F	; 0x80054f <RequestInProgress>
     c56:	85 30       	cpi	r24, 0x05	; 5
     c58:	09 f4       	brne	.+2      	; 0xc5c <__stack+0x15d>
     c5a:	81 c0       	rjmp	.+258    	; 0xd5e <__stack+0x25f>
						TMCRequestStatus = TMC_STATUS_SPLIT_NOT_IN_PROGRESS;
     c5c:	92 e8       	ldi	r25, 0x82	; 130
			 *  \note This is not applicable for non CONTROL type endpoints.
			 */
			static inline void Endpoint_ClearSETUP(void) ATTR_ALWAYS_INLINE;
			static inline void Endpoint_ClearSETUP(void)
			{
				UEINTX &= ~(1 << RXSTPI);
     c5e:	80 91 e8 00 	lds	r24, 0x00E8	; 0x8000e8 <__TEXT_REGION_LENGTH__+0x7e00e8>
     c62:	87 7f       	andi	r24, 0xF7	; 247
     c64:	80 93 e8 00 	sts	0x00E8, r24	; 0x8000e8 <__TEXT_REGION_LENGTH__+0x7e00e8>
			 *  \param[in] Data  Data to write into the the currently selected endpoint's FIFO buffer.
			 */
			static inline void Endpoint_Write_8(const uint8_t Data) ATTR_ALWAYS_INLINE;
			static inline void Endpoint_Write_8(const uint8_t Data)
			{
				UEDATX = Data;
     c68:	90 93 f1 00 	sts	0x00F1, r25	; 0x8000f1 <__TEXT_REGION_LENGTH__+0x7e00f1>
     c6c:	10 92 f1 00 	sts	0x00F1, r1	; 0x8000f1 <__TEXT_REGION_LENGTH__+0x7e00f1>
     c70:	da cf       	rjmp	.-76     	; 0xc26 <__stack+0x127>
					Endpoint_ClearStatusStage();
				}

				break;
			case Req_InitiateAbortBulkIn:
				if (USB_ControlRequest.bmRequestType == (REQDIR_DEVICETOHOST | REQTYPE_CLASS | REQREC_ENDPOINT))
     c72:	92 3a       	cpi	r25, 0xA2	; 162
     c74:	09 f0       	breq	.+2      	; 0xc78 <__stack+0x179>
     c76:	5b cf       	rjmp	.-330    	; 0xb2e <__stack+0x2f>
				{
					/* Check that no split transaction is already in progress and the data transfer tag is valid */
					if (RequestInProgress != 0)
     c78:	90 91 4f 05 	lds	r25, 0x054F	; 0x80054f <RequestInProgress>
     c7c:	91 11       	cpse	r25, r1
     c7e:	6b c0       	rjmp	.+214    	; 0xd56 <__stack+0x257>
					{
						TMCRequestStatus = TMC_STATUS_SPLIT_IN_PROGRESS;
					}
					else if (USB_ControlRequest.wValue != CurrentTransferTag)
     c80:	20 91 44 05 	lds	r18, 0x0544	; 0x800544 <CurrentTransferTag>
     c84:	30 e0       	ldi	r19, 0x00	; 0
     c86:	40 91 d2 05 	lds	r20, 0x05D2	; 0x8005d2 <USB_ControlRequest+0x2>
     c8a:	50 91 d3 05 	lds	r21, 0x05D3	; 0x8005d3 <USB_ControlRequest+0x3>
     c8e:	42 17       	cp	r20, r18
     c90:	53 07       	cpc	r21, r19
     c92:	09 f4       	brne	.+2      	; 0xc96 <__stack+0x197>
     c94:	7a c0       	rjmp	.+244    	; 0xd8a <__stack+0x28b>
					{
						TMCRequestStatus = TMC_STATUS_TRANSFER_NOT_IN_PROGRESS;
     c96:	91 e8       	ldi	r25, 0x81	; 129
						IsTMCBulkINReset = true;

						/* Save the split request for later checking when a new request is received */
						RequestInProgress = Req_InitiateAbortBulkIn;
					}
					IsTMCBulkINReset = true;
     c98:	81 e0       	ldi	r24, 0x01	; 1
     c9a:	80 93 4e 05 	sts	0x054E, r24	; 0x80054e <IsTMCBulkINReset>
			 *  \note This is not applicable for non CONTROL type endpoints.
			 */
			static inline void Endpoint_ClearSETUP(void) ATTR_ALWAYS_INLINE;
			static inline void Endpoint_ClearSETUP(void)
			{
				UEINTX &= ~(1 << RXSTPI);
     c9e:	80 91 e8 00 	lds	r24, 0x00E8	; 0x8000e8 <__TEXT_REGION_LENGTH__+0x7e00e8>
     ca2:	87 7f       	andi	r24, 0xF7	; 247
     ca4:	80 93 e8 00 	sts	0x00E8, r24	; 0x8000e8 <__TEXT_REGION_LENGTH__+0x7e00e8>
			 *  \param[in] Data  Data to write into the the currently selected endpoint's FIFO buffer.
			 */
			static inline void Endpoint_Write_8(const uint8_t Data) ATTR_ALWAYS_INLINE;
			static inline void Endpoint_Write_8(const uint8_t Data)
			{
				UEDATX = Data;
     ca8:	90 93 f1 00 	sts	0x00F1, r25	; 0x8000f1 <__TEXT_REGION_LENGTH__+0x7e00f1>

					Endpoint_ClearSETUP();

					/* Write the request response bytes */
					Endpoint_Write_8(TMCRequestStatus);
					Endpoint_Write_8(CurrentTransferTag);
     cac:	80 91 44 05 	lds	r24, 0x0544	; 0x800544 <CurrentTransferTag>
     cb0:	80 93 f1 00 	sts	0x00F1, r24	; 0x8000f1 <__TEXT_REGION_LENGTH__+0x7e00f1>
     cb4:	b8 cf       	rjmp	.-144    	; 0xc26 <__stack+0x127>
					Endpoint_ClearStatusStage();
				}

				break;
			case Req_CheckAbortBulkInStatus:
				if (USB_ControlRequest.bmRequestType == (REQDIR_DEVICETOHOST | REQTYPE_CLASS | REQREC_ENDPOINT))
     cb6:	92 3a       	cpi	r25, 0xA2	; 162
     cb8:	09 f0       	breq	.+2      	; 0xcbc <__stack+0x1bd>
     cba:	39 cf       	rjmp	.-398    	; 0xb2e <__stack+0x2f>
				{
					/* Check that an ABORT BULK IN transaction has been requested and that the request has completed */
					if (RequestInProgress != Req_InitiateAbortBulkIn)
     cbc:	80 91 4f 05 	lds	r24, 0x054F	; 0x80054f <RequestInProgress>
     cc0:	83 30       	cpi	r24, 0x03	; 3
     cc2:	09 f0       	breq	.+2      	; 0xcc6 <__stack+0x1c7>
     cc4:	55 cf       	rjmp	.-342    	; 0xb70 <__stack+0x71>
					  TMCRequestStatus = TMC_STATUS_SPLIT_NOT_IN_PROGRESS;
					else if (IsTMCBulkINReset)
     cc6:	80 91 4e 05 	lds	r24, 0x054E	; 0x80054e <IsTMCBulkINReset>
     cca:	88 23       	and	r24, r24
     ccc:	81 f1       	breq	.+96     	; 0xd2e <__stack+0x22f>
					  TMCRequestStatus = TMC_STATUS_PENDING;
     cce:	92 e0       	ldi	r25, 0x02	; 2
     cd0:	50 cf       	rjmp	.-352    	; 0xb72 <__stack+0x73>
					Endpoint_ClearStatusStage();
				}

				break;
			case Req_GetCapabilities:
				if (USB_ControlRequest.bmRequestType == (REQDIR_DEVICETOHOST | REQTYPE_CLASS | REQREC_INTERFACE))
     cd2:	91 3a       	cpi	r25, 0xA1	; 161
     cd4:	09 f0       	breq	.+2      	; 0xcd8 <__stack+0x1d9>
     cd6:	2b cf       	rjmp	.-426    	; 0xb2e <__stack+0x2f>
			 *  \note This is not applicable for non CONTROL type endpoints.
			 */
			static inline void Endpoint_ClearSETUP(void) ATTR_ALWAYS_INLINE;
			static inline void Endpoint_ClearSETUP(void)
			{
				UEINTX &= ~(1 << RXSTPI);
     cd8:	80 91 e8 00 	lds	r24, 0x00E8	; 0x8000e8 <__TEXT_REGION_LENGTH__+0x7e00e8>
     cdc:	87 7f       	andi	r24, 0xF7	; 247
     cde:	80 93 e8 00 	sts	0x00E8, r24	; 0x8000e8 <__TEXT_REGION_LENGTH__+0x7e00e8>
				{
					Endpoint_ClearSETUP();

					/* Write the device capabilities to the control endpoint */
					Endpoint_Write_Control_Stream_LE(&Capabilities, sizeof(TMC_Capabilities_t));
     ce2:	68 e1       	ldi	r22, 0x18	; 24
     ce4:	70 e0       	ldi	r23, 0x00	; 0
     ce6:	83 e0       	ldi	r24, 0x03	; 3
     ce8:	91 e0       	ldi	r25, 0x01	; 1
     cea:	0e 94 11 16 	call	0x2c22	; 0x2c22 <Endpoint_Write_Control_Stream_LE>
			 */
			static inline void Endpoint_ClearOUT(void) ATTR_ALWAYS_INLINE;
			static inline void Endpoint_ClearOUT(void)
			{
				#if !defined(CONTROL_ONLY_DEVICE)
					UEINTX &= ~((1 << RXOUTI) | (1 << FIFOCON));
     cee:	80 91 e8 00 	lds	r24, 0x00E8	; 0x8000e8 <__TEXT_REGION_LENGTH__+0x7e00e8>
     cf2:	8b 77       	andi	r24, 0x7B	; 123
     cf4:	80 93 e8 00 	sts	0x00E8, r24	; 0x8000e8 <__TEXT_REGION_LENGTH__+0x7e00e8>
     cf8:	1a cf       	rjmp	.-460    	; 0xb2e <__stack+0x2f>
					handleReadStatusByte = true;
				}
			
				break;
			case Req_InitiateAbortBulkOut:
				if (USB_ControlRequest.bmRequestType == (REQDIR_DEVICETOHOST | REQTYPE_CLASS | REQREC_ENDPOINT))
     cfa:	92 3a       	cpi	r25, 0xA2	; 162
     cfc:	09 f0       	breq	.+2      	; 0xd00 <__stack+0x201>
     cfe:	17 cf       	rjmp	.-466    	; 0xb2e <__stack+0x2f>
				{
					/* Check that no split transaction is already in progress and the data transfer tag is valid */
					if (RequestInProgress != 0)
     d00:	90 91 4f 05 	lds	r25, 0x054F	; 0x80054f <RequestInProgress>
     d04:	91 11       	cpse	r25, r1
     d06:	29 c0       	rjmp	.+82     	; 0xd5a <__stack+0x25b>
					{
						TMCRequestStatus = TMC_STATUS_SPLIT_IN_PROGRESS;
					}
					else if (USB_ControlRequest.wValue != CurrentTransferTag)
     d08:	20 91 44 05 	lds	r18, 0x0544	; 0x800544 <CurrentTransferTag>
     d0c:	30 e0       	ldi	r19, 0x00	; 0
     d0e:	40 91 d2 05 	lds	r20, 0x05D2	; 0x8005d2 <USB_ControlRequest+0x2>
     d12:	50 91 d3 05 	lds	r21, 0x05D3	; 0x8005d3 <USB_ControlRequest+0x3>
     d16:	42 17       	cp	r20, r18
     d18:	53 07       	cpc	r21, r19
     d1a:	99 f1       	breq	.+102    	; 0xd82 <__stack+0x283>
					{
						TMCRequestStatus = TMC_STATUS_TRANSFER_NOT_IN_PROGRESS;
     d1c:	91 e8       	ldi	r25, 0x81	; 129
						IsTMCBulkOUTReset = true;

						/* Save the split request for later checking when a new request is received */
						RequestInProgress = Req_InitiateAbortBulkOut;
					}
					IsTMCBulkOUTReset = true;
     d1e:	81 e0       	ldi	r24, 0x01	; 1
     d20:	80 93 4d 05 	sts	0x054D, r24	; 0x80054d <IsTMCBulkOUTReset>
     d24:	8b cf       	rjmp	.-234    	; 0xc3c <__stack+0x13d>
				if (USB_ControlRequest.bmRequestType == (REQDIR_DEVICETOHOST | REQTYPE_CLASS | REQREC_ENDPOINT))
				{
					/* Check that an ABORT BULK OUT transaction has been requested and that the request has completed */
					if (RequestInProgress != Req_InitiateAbortBulkOut)
					  TMCRequestStatus = TMC_STATUS_SPLIT_NOT_IN_PROGRESS;
					else if (IsTMCBulkOUTReset)
     d26:	80 91 4d 05 	lds	r24, 0x054D	; 0x80054d <IsTMCBulkOUTReset>
     d2a:	81 11       	cpse	r24, r1
     d2c:	d0 cf       	rjmp	.-96     	; 0xcce <__stack+0x1cf>
					if (RequestInProgress != Req_InitiateAbortBulkIn)
					  TMCRequestStatus = TMC_STATUS_SPLIT_NOT_IN_PROGRESS;
					else if (IsTMCBulkINReset)
					  TMCRequestStatus = TMC_STATUS_PENDING;
					else
					  RequestInProgress = 0;
     d2e:	10 92 4f 05 	sts	0x054F, r1	; 0x80054f <RequestInProgress>
	Endpoint_SelectEndpoint(PrevEndpoint);
}

void EVENT_USB_Device_ControlRequest(void)
{
	uint8_t TMCRequestStatus = TMC_STATUS_SUCCESS;	
     d32:	91 e0       	ldi	r25, 0x01	; 1
     d34:	1e cf       	rjmp	.-452    	; 0xb72 <__stack+0x73>
				Endpoint_ClearIN();
				Endpoint_ClearStatusStage();
				break;
				
			case Req_GoToLocal:
				handleGoToLocal = true; // trigger handling of local lockout within TMC_TASK
     d36:	91 e0       	ldi	r25, 0x01	; 1
     d38:	90 93 4a 05 	sts	0x054A, r25	; 0x80054a <handleGoToLocal>
     d3c:	7f cf       	rjmp	.-258    	; 0xc3c <__stack+0x13d>
				Endpoint_ClearIN();
				Endpoint_ClearStatusStage();
				break;
		}
	}
}
     d3e:	cf 91       	pop	r28
			case Req_ReadStatusByte:
				Endpoint_ClearSETUP();
				handleReadStatusByte_btagvalue = USB_ControlRequest.wValue;
				if ( !gpib_write_is_busy )
				{ /* no write transfer active, thus handle the request immediately */
					handle_control_Req_ReadStatusByte();
     d40:	7a ce       	rjmp	.-780    	; 0xa36 <handle_control_Req_ReadStatusByte>
						Endpoint_Write_8(TMC_STATUS_SPLIT_IN_PROGRESS);
					}
					else
					{
						/* Indicate that all in-progress/pending data IN and OUT requests should be aborted */
						IsTMCBulkINReset  = true;
     d42:	91 e0       	ldi	r25, 0x01	; 1
     d44:	90 93 4e 05 	sts	0x054E, r25	; 0x80054e <IsTMCBulkINReset>
						IsTMCBulkOUTReset = true;
     d48:	90 93 4d 05 	sts	0x054D, r25	; 0x80054d <IsTMCBulkOUTReset>
						handleSDC = true; // trigger handling of SDC command to device
     d4c:	90 93 4c 05 	sts	0x054C, r25	; 0x80054c <handleSDC>
						
						/* Save the split request for later checking when a new request is received */
						RequestInProgress = Req_InitiateClear;
     d50:	80 93 4f 05 	sts	0x054F, r24	; 0x80054f <RequestInProgress>
     d54:	65 cf       	rjmp	.-310    	; 0xc20 <__stack+0x121>
				if (USB_ControlRequest.bmRequestType == (REQDIR_DEVICETOHOST | REQTYPE_CLASS | REQREC_ENDPOINT))
				{
					/* Check that no split transaction is already in progress and the data transfer tag is valid */
					if (RequestInProgress != 0)
					{
						TMCRequestStatus = TMC_STATUS_SPLIT_IN_PROGRESS;
     d56:	93 e8       	ldi	r25, 0x83	; 131
     d58:	9f cf       	rjmp	.-194    	; 0xc98 <__stack+0x199>
				if (USB_ControlRequest.bmRequestType == (REQDIR_DEVICETOHOST | REQTYPE_CLASS | REQREC_ENDPOINT))
				{
					/* Check that no split transaction is already in progress and the data transfer tag is valid */
					if (RequestInProgress != 0)
					{
						TMCRequestStatus = TMC_STATUS_SPLIT_IN_PROGRESS;
     d5a:	93 e8       	ldi	r25, 0x83	; 131
     d5c:	e0 cf       	rjmp	.-64     	; 0xd1e <__stack+0x21f>
				if (USB_ControlRequest.bmRequestType == (REQDIR_DEVICETOHOST | REQTYPE_CLASS | REQREC_INTERFACE))
				{
					/* Check that a CLEAR transaction has been requested and that the request has completed */
					if (RequestInProgress != Req_InitiateClear)
						TMCRequestStatus = TMC_STATUS_SPLIT_NOT_IN_PROGRESS;
					else if (IsTMCBulkINReset || IsTMCBulkOUTReset || handleSDC)
     d5e:	80 91 4e 05 	lds	r24, 0x054E	; 0x80054e <IsTMCBulkINReset>
     d62:	81 11       	cpse	r24, r1
     d64:	0c c0       	rjmp	.+24     	; 0xd7e <__stack+0x27f>
     d66:	80 91 4d 05 	lds	r24, 0x054D	; 0x80054d <IsTMCBulkOUTReset>
     d6a:	81 11       	cpse	r24, r1
     d6c:	08 c0       	rjmp	.+16     	; 0xd7e <__stack+0x27f>
     d6e:	80 91 4c 05 	lds	r24, 0x054C	; 0x80054c <handleSDC>
     d72:	81 11       	cpse	r24, r1
     d74:	04 c0       	rjmp	.+8      	; 0xd7e <__stack+0x27f>
						TMCRequestStatus = TMC_STATUS_PENDING;
					else 
					{
						TMCRequestStatus = TMC_STATUS_SUCCESS;
						RequestInProgress = 0;
     d76:	10 92 4f 05 	sts	0x054F, r1	; 0x80054f <RequestInProgress>
						TMCRequestStatus = TMC_STATUS_SPLIT_NOT_IN_PROGRESS;
					else if (IsTMCBulkINReset || IsTMCBulkOUTReset || handleSDC)
						TMCRequestStatus = TMC_STATUS_PENDING;
					else 
					{
						TMCRequestStatus = TMC_STATUS_SUCCESS;
     d7a:	91 e0       	ldi	r25, 0x01	; 1
     d7c:	70 cf       	rjmp	.-288    	; 0xc5e <__stack+0x15f>
				{
					/* Check that a CLEAR transaction has been requested and that the request has completed */
					if (RequestInProgress != Req_InitiateClear)
						TMCRequestStatus = TMC_STATUS_SPLIT_NOT_IN_PROGRESS;
					else if (IsTMCBulkINReset || IsTMCBulkOUTReset || handleSDC)
						TMCRequestStatus = TMC_STATUS_PENDING;
     d7e:	92 e0       	ldi	r25, 0x02	; 2
     d80:	6e cf       	rjmp	.-292    	; 0xc5e <__stack+0x15f>
					{
						/* Indicate that all in-progress/pending data OUT requests should be aborted */
						IsTMCBulkOUTReset = true;

						/* Save the split request for later checking when a new request is received */
						RequestInProgress = Req_InitiateAbortBulkOut;
     d82:	80 93 4f 05 	sts	0x054F, r24	; 0x80054f <RequestInProgress>
	Endpoint_SelectEndpoint(PrevEndpoint);
}

void EVENT_USB_Device_ControlRequest(void)
{
	uint8_t TMCRequestStatus = TMC_STATUS_SUCCESS;	
     d86:	91 e0       	ldi	r25, 0x01	; 1
     d88:	ca cf       	rjmp	.-108    	; 0xd1e <__stack+0x21f>
					{
						/* Indicate that all in-progress/pending data IN requests should be aborted */
						IsTMCBulkINReset = true;

						/* Save the split request for later checking when a new request is received */
						RequestInProgress = Req_InitiateAbortBulkIn;
     d8a:	80 93 4f 05 	sts	0x054F, r24	; 0x80054f <RequestInProgress>
	Endpoint_SelectEndpoint(PrevEndpoint);
}

void EVENT_USB_Device_ControlRequest(void)
{
	uint8_t TMCRequestStatus = TMC_STATUS_SUCCESS;	
     d8e:	91 e0       	ldi	r25, 0x01	; 1
     d90:	83 cf       	rjmp	.-250    	; 0xc98 <__stack+0x199>

00000d92 <set_internal_response>:
		val = c-'A'+10;
	return val;
}

void set_internal_response(uint8_t *pdat, uint8_t len)
{
     d92:	cf 93       	push	r28
	if (len < sizeof(internal_response_buffer))
     d94:	68 30       	cpi	r22, 0x08	; 8
     d96:	60 f4       	brcc	.+24     	; 0xdb0 <set_internal_response+0x1e>
     d98:	c6 2f       	mov	r28, r22
     d9a:	bc 01       	movw	r22, r24
	{
		memcpy(internal_response_buffer, pdat, len);
     d9c:	4c 2f       	mov	r20, r28
     d9e:	50 e0       	ldi	r21, 0x00	; 0
     da0:	88 e5       	ldi	r24, 0x58	; 88
     da2:	95 e0       	ldi	r25, 0x05	; 5
     da4:	0e 94 6e 1a 	call	0x34dc	; 0x34dc <memcpy>
		internal_response_buffer_len = len;
     da8:	c0 93 44 01 	sts	0x0144, r28	; 0x800144 <internal_response_buffer_len>
		internal_response_buffer_rpos = 0;
     dac:	10 92 45 01 	sts	0x0145, r1	; 0x800145 <internal_response_buffer_rpos>
	}
}
     db0:	cf 91       	pop	r28
     db2:	08 95       	ret

00000db4 <ProcessInternalCommand>:
					0x00 or 0xff => EOI termination
					0x01         => EOI or '\n' (LF = linefeed)
					0x02         => EOI or '\r' (CR = carriage return)
*/
void ProcessInternalCommand(uint8_t Length)
{
     db4:	cf 93       	push	r28
     db6:	c8 2f       	mov	r28, r24
	bool cmd_executed;

	// clear any old response
	internal_response_buffer_len = 0;
     db8:	10 92 44 01 	sts	0x0144, r1	; 0x800144 <internal_response_buffer_len>
	internal_response_buffer_rpos = 0; 
     dbc:	10 92 45 01 	sts	0x0145, r1	; 0x800145 <internal_response_buffer_rpos>
	
	parser_reset();
     dc0:	0e 94 64 15 	call	0x2ac8	; 0x2ac8 <parser_reset>
	cmd_executed = false;
	while ( (Length--) && (!cmd_executed) )
     dc4:	cc 23       	and	r28, r28
     dc6:	59 f0       	breq	.+22     	; 0xdde <ProcessInternalCommand+0x2a>
     dc8:	c2 50       	subi	r28, 0x02	; 2
     dca:	03 c0       	rjmp	.+6      	; 0xdd2 <ProcessInternalCommand+0x1e>
     dcc:	c1 50       	subi	r28, 0x01	; 1
     dce:	81 11       	cpse	r24, r1
     dd0:	06 c0       	rjmp	.+12     	; 0xdde <ProcessInternalCommand+0x2a>
			 *  \return Next byte in the currently selected endpoint's FIFO buffer.
			 */
			static inline uint8_t Endpoint_Read_8(void) ATTR_WARN_UNUSED_RESULT ATTR_ALWAYS_INLINE;
			static inline uint8_t Endpoint_Read_8(void)
			{
				return UEDATX;
     dd2:	80 91 f1 00 	lds	r24, 0x00F1	; 0x8000f1 <__TEXT_REGION_LENGTH__+0x7e00f1>
	{
		uint8_t dat = Endpoint_Read_8();
		cmd_executed = parser_add( dat );
     dd6:	0e 94 6b 15 	call	0x2ad6	; 0x2ad6 <parser_add>
	internal_response_buffer_len = 0;
	internal_response_buffer_rpos = 0; 
	
	parser_reset();
	cmd_executed = false;
	while ( (Length--) && (!cmd_executed) )
     dda:	cf 3f       	cpi	r28, 0xFF	; 255
     ddc:	b9 f7       	brne	.-18     	; 0xdcc <ProcessInternalCommand+0x18>
	{
		uint8_t dat = Endpoint_Read_8();
		cmd_executed = parser_add( dat );
	}
}
     dde:	cf 91       	pop	r28
     de0:	08 95       	ret

00000de2 <ProcessSentMessage>:

void ProcessSentMessage(uint8_t* const Data, uint8_t Length, bool isFirstTransfer, bool isLastTransfer, bool sendEom, gpibtimeout_t ptimeoutfunc)
{
     de2:	df 92       	push	r13
     de4:	ef 92       	push	r14
     de6:	ff 92       	push	r15
     de8:	0f 93       	push	r16
     dea:	1f 93       	push	r17
     dec:	cf 93       	push	r28
     dee:	df 93       	push	r29
     df0:	c6 2f       	mov	r28, r22
     df2:	d2 2e       	mov	r13, r18
	uint8_t dat;
	bool timedout, isinternalcommand;
	
	gpib_write_is_busy = true; /* required to handle read status byte synchronization issue */
     df4:	11 e0       	ldi	r17, 0x01	; 1
     df6:	10 93 46 01 	sts	0x0146, r17	; 0x800146 <gpib_write_is_busy>
     dfa:	d0 91 f1 00 	lds	r29, 0x00F1	; 0x8000f1 <__TEXT_REGION_LENGTH__+0x7e00f1>
	timedout = false;
	
	dat = Endpoint_Read_8();
	/* check, if this is an internal command (=sidechannel for configuration settings )*/ 
	isinternalcommand = isFirstTransfer && s_nextwrite_mightbeparameterset && (dat == '!');
     dfe:	44 23       	and	r20, r20
     e00:	71 f1       	breq	.+92     	; 0xe5e <ProcessSentMessage+0x7c>
     e02:	80 91 41 05 	lds	r24, 0x0541	; 0x800541 <s_nextwrite_mightbeparameterset>
     e06:	81 11       	cpse	r24, r1
     e08:	69 c0       	rjmp	.+210    	; 0xedc <ProcessSentMessage+0xfa>
		ProcessInternalCommand(Length);
	}
	else
	{
		
		gpib_ren(1); /* ensure that remote control is enabled */
     e0a:	81 e0       	ldi	r24, 0x01	; 1
     e0c:	0e 94 ae 11 	call	0x235c	; 0x235c <gpib_ren>
		
		LED(0);
     e10:	8d 98       	cbi	0x11, 5	; 17
		if (isFirstTransfer)
			timedout = gpib_make_listener(gpib_addr, ptimeoutfunc);
     e12:	b7 01       	movw	r22, r14
     e14:	80 91 02 01 	lds	r24, 0x0102	; 0x800102 <gpib_addr>
     e18:	0e 94 fe 12 	call	0x25fc	; 0x25fc <gpib_make_listener>
			
		if (handleReadStatusByte && !timedout)
     e1c:	90 91 49 05 	lds	r25, 0x0549	; 0x800549 <handleReadStatusByte>
     e20:	99 23       	and	r25, r25
     e22:	09 f4       	brne	.+2      	; 0xe26 <ProcessSentMessage+0x44>
     e24:	eb c0       	rjmp	.+470    	; 0xffc <ProcessSentMessage+0x21a>
     e26:	88 23       	and	r24, r24
     e28:	09 f4       	brne	.+2      	; 0xe2c <ProcessSentMessage+0x4a>
     e2a:	df c0       	rjmp	.+446    	; 0xfea <ProcessSentMessage+0x208>
			gpib_untalk_unlisten(ptimeoutfunc);
			handle_control_Req_ReadStatusByte();
			timedout = gpib_make_listener(gpib_addr, ptimeoutfunc);
		}

		while ( (Length > 0) && !timedout)
     e2c:	c1 11       	cpse	r28, r1
     e2e:	ce c0       	rjmp	.+412    	; 0xfcc <ProcessSentMessage+0x1ea>
				dat = Endpoint_Read_8();
			}
			
		}
		
		if (isLastTransfer && !timedout) /* in case of timeout the interface is cleared within the writedat function, no need to untalk!*/
     e30:	d1 10       	cpse	r13, r1
     e32:	cc c0       	rjmp	.+408    	; 0xfcc <ProcessSentMessage+0x1ea>
			gpib_untalk_unlisten(ptimeoutfunc);
		LED(1);
     e34:	8d 9a       	sbi	0x11, 5	; 17
	}
	s_nextwrite_mightbeparameterset = false;
     e36:	10 92 41 05 	sts	0x0541, r1	; 0x800541 <s_nextwrite_mightbeparameterset>
	gpib_write_is_busy = !isLastTransfer; /* required to handle read status byte synchronization issue */
     e3a:	91 e0       	ldi	r25, 0x01	; 1
     e3c:	90 93 46 01 	sts	0x0146, r25	; 0x800146 <gpib_write_is_busy>
	
	if (handleReadStatusByte && !timedout)
     e40:	90 91 49 05 	lds	r25, 0x0549	; 0x800549 <handleReadStatusByte>
     e44:	99 23       	and	r25, r25
     e46:	19 f0       	breq	.+6      	; 0xe4e <ProcessSentMessage+0x6c>
     e48:	88 23       	and	r24, r24
     e4a:	09 f4       	brne	.+2      	; 0xe4e <ProcessSentMessage+0x6c>
     e4c:	ad c0       	rjmp	.+346    	; 0xfa8 <ProcessSentMessage+0x1c6>
			gpib_untalk_unlisten(ptimeoutfunc);
		handle_control_Req_ReadStatusByte();
		if (!(isLastTransfer && !timedout))
			timedout = gpib_make_listener(gpib_addr, ptimeoutfunc);
	}	
}
     e4e:	df 91       	pop	r29
     e50:	cf 91       	pop	r28
     e52:	1f 91       	pop	r17
     e54:	0f 91       	pop	r16
     e56:	ff 90       	pop	r15
     e58:	ef 90       	pop	r14
     e5a:	df 90       	pop	r13
     e5c:	08 95       	ret
		ProcessInternalCommand(Length);
	}
	else
	{
		
		gpib_ren(1); /* ensure that remote control is enabled */
     e5e:	81 e0       	ldi	r24, 0x01	; 1
     e60:	0e 94 ae 11 	call	0x235c	; 0x235c <gpib_ren>
		
		LED(0);
     e64:	8d 98       	cbi	0x11, 5	; 17
		if (isFirstTransfer)
			timedout = gpib_make_listener(gpib_addr, ptimeoutfunc);
			
		if (handleReadStatusByte && !timedout)
     e66:	80 91 49 05 	lds	r24, 0x0549	; 0x800549 <handleReadStatusByte>
     e6a:	81 11       	cpse	r24, r1
     e6c:	be c0       	rjmp	.+380    	; 0xfea <ProcessSentMessage+0x208>
			gpib_untalk_unlisten(ptimeoutfunc);
			handle_control_Req_ReadStatusByte();
			timedout = gpib_make_listener(gpib_addr, ptimeoutfunc);
		}

		while ( (Length > 0) && !timedout)
     e6e:	cc 23       	and	r28, r28
     e70:	09 f4       	brne	.+2      	; 0xe74 <ProcessSentMessage+0x92>
     e72:	8e c0       	rjmp	.+284    	; 0xf90 <ProcessSentMessage+0x1ae>
		{
			if (handleReadStatusByte)
     e74:	81 11       	cpse	r24, r1
     e76:	28 c0       	rjmp	.+80     	; 0xec8 <ProcessSentMessage+0xe6>
			{
				gpib_untalk_unlisten(ptimeoutfunc);
				handle_control_Req_ReadStatusByte();
				timedout = gpib_make_listener(gpib_addr, ptimeoutfunc);
			}
			Length--;
     e78:	c1 50       	subi	r28, 0x01	; 1
			timedout = gpib_writedat_quick(dat, (Length == 0)  && sendEom, ptimeoutfunc, false);
     e7a:	11 f4       	brne	.+4      	; 0xe80 <ProcessSentMessage+0x9e>
     e7c:	01 11       	cpse	r16, r1
static inline bool gpib_writedat_quick(uint8_t dat, bool Eoi, gpibtimeout_t ptimeoutfunc, bool quickTimeoutPoll)
{
	bool timedout;
	if (Eoi)
	{
		EOI_LOW; /* make EOI L */
     e7e:	24 9a       	sbi	0x04, 4	; 4
			_delay_us(70);
	}
	else
	{
		bool atn_was_low = !ATN_OUT_STATE;
		if (atn_was_low)
     e80:	86 99       	sbic	0x10, 6	; 16
     e82:	6e c0       	rjmp	.+220    	; 0xf60 <ProcessSentMessage+0x17e>
			_delay_us(220);
		ATN_HIGH;
     e84:	86 98       	cbi	0x10, 6	; 16
		if (atn_was_low)
			_delay_us(70);
	}
		
	DAV_HIGH;
     e86:	26 98       	cbi	0x04, 6	; 4
	
	
	NRFD_HIGH;
     e88:	3e 98       	cbi	0x07, 6	; 7
	NDAC_HIGH;  /* they should be already high, but let's enforce it */
     e8a:	3f 98       	cbi	0x07, 7	; 7
	

	DDRD = dat;
     e8c:	da b9       	out	0x0a, r29	; 10
extern volatile bool timer0_ticked; /* flag going high every 100ms - defined in gpib.c */

/* check if 100ms timer ticked. returns true once every 100ms */
static inline bool timer_ticked(void)
{
	bool ticked = timer0_ticked;
     e8e:	80 91 51 05 	lds	r24, 0x0551	; 0x800551 <timer0_ticked>
	timer0_ticked = false;
     e92:	10 92 51 05 	sts	0x0551, r1	; 0x800551 <timer0_ticked>
	//_delay_us(10);
		
	/* wait until ready for data acceptance (NRFD=H, NDAC=L)*/
	do
	{
		if (timer_ticked() || quickTimeoutPoll) /* the timeout function can consume significant time */
     e96:	81 11       	cpse	r24, r1
     e98:	3b c0       	rjmp	.+118    	; 0xf10 <ProcessSentMessage+0x12e>
			timedout = ptimeoutfunc();
	}
	while ( (NRFD_STATE == 0) && !timedout); /* wait until ready for data (NRFD to get high) */
     e9a:	36 9b       	sbis	0x06, 6	; 6
     e9c:	f8 cf       	rjmp	.-16     	; 0xe8e <ProcessSentMessage+0xac>

	if (!timedout)
	{
		DAV_LOW;
     e9e:	26 9a       	sbi	0x04, 6	; 4
extern volatile bool timer0_ticked; /* flag going high every 100ms - defined in gpib.c */

/* check if 100ms timer ticked. returns true once every 100ms */
static inline bool timer_ticked(void)
{
	bool ticked = timer0_ticked;
     ea0:	80 91 51 05 	lds	r24, 0x0551	; 0x800551 <timer0_ticked>
	timer0_ticked = false;
     ea4:	10 92 51 05 	sts	0x0551, r1	; 0x800551 <timer0_ticked>
	if (!timedout)
	{
		DAV_LOW;
		do
		{
			if (timer_ticked() || quickTimeoutPoll)
     ea8:	81 11       	cpse	r24, r1
     eaa:	51 c0       	rjmp	.+162    	; 0xf4e <ProcessSentMessage+0x16c>
				timedout = ptimeoutfunc();
		}
		while ( (NDAC_STATE == 0) && !timedout ); /* wait until NDAC gets high*/
     eac:	37 9b       	sbis	0x06, 7	; 6
     eae:	f8 cf       	rjmp	.-16     	; 0xea0 <ProcessSentMessage+0xbe>
		DAV_HIGH;
     eb0:	26 98       	cbi	0x04, 6	; 4
	}
	
	DDRD = 0x00; /* release data bus */
     eb2:	1a b8       	out	0x0a, r1	; 10
	if (Eoi)
	{
		EOI_LOW; /* make EOI L */
	}
	timedout = gpib_tx_quick(dat, false, ptimeoutfunc, quickTimeoutPoll);
	EOI_HIGH;    /* make EOI H */
     eb4:	24 98       	cbi	0x04, 4	; 4
			if (Length > 0)
     eb6:	cc 23       	and	r28, r28
     eb8:	09 f4       	brne	.+2      	; 0xebc <ProcessSentMessage+0xda>
     eba:	a8 c0       	rjmp	.+336    	; 0x100c <ProcessSentMessage+0x22a>
     ebc:	d0 91 f1 00 	lds	r29, 0x00F1	; 0x8000f1 <__TEXT_REGION_LENGTH__+0x7e00f1>
     ec0:	80 91 49 05 	lds	r24, 0x0549	; 0x800549 <handleReadStatusByte>
			timedout = gpib_make_listener(gpib_addr, ptimeoutfunc);
		}

		while ( (Length > 0) && !timedout)
		{
			if (handleReadStatusByte)
     ec4:	88 23       	and	r24, r24
     ec6:	c1 f2       	breq	.-80     	; 0xe78 <ProcessSentMessage+0x96>
			{
				gpib_untalk_unlisten(ptimeoutfunc);
     ec8:	c7 01       	movw	r24, r14
     eca:	0e 94 36 12 	call	0x246c	; 0x246c <gpib_untalk_unlisten>
				handle_control_Req_ReadStatusByte();
     ece:	b3 dd       	rcall	.-1178   	; 0xa36 <handle_control_Req_ReadStatusByte>
				timedout = gpib_make_listener(gpib_addr, ptimeoutfunc);
     ed0:	b7 01       	movw	r22, r14
     ed2:	80 91 02 01 	lds	r24, 0x0102	; 0x800102 <gpib_addr>
     ed6:	0e 94 fe 12 	call	0x25fc	; 0x25fc <gpib_make_listener>
     eda:	ce cf       	rjmp	.-100    	; 0xe78 <ProcessSentMessage+0x96>
	gpib_write_is_busy = true; /* required to handle read status byte synchronization issue */
	timedout = false;
	
	dat = Endpoint_Read_8();
	/* check, if this is an internal command (=sidechannel for configuration settings )*/ 
	isinternalcommand = isFirstTransfer && s_nextwrite_mightbeparameterset && (dat == '!');
     edc:	d1 32       	cpi	r29, 0x21	; 33
     ede:	09 f0       	breq	.+2      	; 0xee2 <ProcessSentMessage+0x100>
     ee0:	94 cf       	rjmp	.-216    	; 0xe0a <ProcessSentMessage+0x28>
	if (isinternalcommand)
	{
		ProcessInternalCommand(Length);
     ee2:	86 2f       	mov	r24, r22
     ee4:	67 df       	rcall	.-306    	; 0xdb4 <ProcessInternalCommand>
		
		if (isLastTransfer && !timedout) /* in case of timeout the interface is cleared within the writedat function, no need to untalk!*/
			gpib_untalk_unlisten(ptimeoutfunc);
		LED(1);
	}
	s_nextwrite_mightbeparameterset = false;
     ee6:	10 92 41 05 	sts	0x0541, r1	; 0x800541 <s_nextwrite_mightbeparameterset>
	gpib_write_is_busy = !isLastTransfer; /* required to handle read status byte synchronization issue */
     eea:	1d 25       	eor	r17, r13
     eec:	10 93 46 01 	sts	0x0146, r17	; 0x800146 <gpib_write_is_busy>
	
	if (handleReadStatusByte && !timedout)
     ef0:	80 91 49 05 	lds	r24, 0x0549	; 0x800549 <handleReadStatusByte>
     ef4:	88 23       	and	r24, r24
     ef6:	09 f4       	brne	.+2      	; 0xefa <ProcessSentMessage+0x118>
     ef8:	aa cf       	rjmp	.-172    	; 0xe4e <ProcessSentMessage+0x6c>
	{
		if (!(isLastTransfer && !timedout))
     efa:	dd 20       	and	r13, r13
     efc:	09 f4       	brne	.+2      	; 0xf00 <ProcessSentMessage+0x11e>
     efe:	54 c0       	rjmp	.+168    	; 0xfa8 <ProcessSentMessage+0x1c6>
			gpib_untalk_unlisten(ptimeoutfunc);
		handle_control_Req_ReadStatusByte();
		if (!(isLastTransfer && !timedout))
			timedout = gpib_make_listener(gpib_addr, ptimeoutfunc);
	}	
}
     f00:	df 91       	pop	r29
     f02:	cf 91       	pop	r28
     f04:	1f 91       	pop	r17
     f06:	0f 91       	pop	r16
     f08:	ff 90       	pop	r15
     f0a:	ef 90       	pop	r14
	
	if (handleReadStatusByte && !timedout)
	{
		if (!(isLastTransfer && !timedout))
			gpib_untalk_unlisten(ptimeoutfunc);
		handle_control_Req_ReadStatusByte();
     f0c:	df 90       	pop	r13
     f0e:	93 cd       	rjmp	.-1242   	; 0xa36 <handle_control_Req_ReadStatusByte>
		
	/* wait until ready for data acceptance (NRFD=H, NDAC=L)*/
	do
	{
		if (timer_ticked() || quickTimeoutPoll) /* the timeout function can consume significant time */
			timedout = ptimeoutfunc();
     f10:	f7 01       	movw	r30, r14
     f12:	09 95       	icall
	}
	while ( (NRFD_STATE == 0) && !timedout); /* wait until ready for data (NRFD to get high) */
     f14:	36 99       	sbic	0x06, 6	; 6
     f16:	32 c0       	rjmp	.+100    	; 0xf7c <ProcessSentMessage+0x19a>
     f18:	88 23       	and	r24, r24
     f1a:	09 f4       	brne	.+2      	; 0xf1e <ProcessSentMessage+0x13c>
		}
		while ( (NDAC_STATE == 0) && !timedout ); /* wait until NDAC gets high*/
		DAV_HIGH;
	}
	
	DDRD = 0x00; /* release data bus */
     f1c:	b8 cf       	rjmp	.-144    	; 0xe8e <ProcessSentMessage+0xac>
	
	if (timedout)
	{
		gpib_recover();
     f1e:	1a b8       	out	0x0a, r1	; 10
     f20:	46 d6       	rcall	.+3212   	; 0x1bae <gpib_recover>
	if (Eoi)
	{
		EOI_LOW; /* make EOI L */
	}
	timedout = gpib_tx_quick(dat, false, ptimeoutfunc, quickTimeoutPoll);
	EOI_HIGH;    /* make EOI H */
     f22:	24 98       	cbi	0x04, 4	; 4
				handle_control_Req_ReadStatusByte();
				timedout = gpib_make_listener(gpib_addr, ptimeoutfunc);
			}
			Length--;
			timedout = gpib_writedat_quick(dat, (Length == 0)  && sendEom, ptimeoutfunc, false);
			if (Length > 0)
     f24:	c1 11       	cpse	r28, r1
     f26:	50 c0       	rjmp	.+160    	; 0xfc8 <ProcessSentMessage+0x1e6>
     f28:	81 e0       	ldi	r24, 0x01	; 1
				dat = Endpoint_Read_8();
			}
			
		}
		
		if (isLastTransfer && !timedout) /* in case of timeout the interface is cleared within the writedat function, no need to untalk!*/
     f2a:	dd 20       	and	r13, r13
     f2c:	09 f4       	brne	.+2      	; 0xf30 <ProcessSentMessage+0x14e>
     f2e:	82 cf       	rjmp	.-252    	; 0xe34 <ProcessSentMessage+0x52>
     f30:	81 11       	cpse	r24, r1
     f32:	4c c0       	rjmp	.+152    	; 0xfcc <ProcessSentMessage+0x1ea>
			gpib_untalk_unlisten(ptimeoutfunc);
     f34:	c7 01       	movw	r24, r14
     f36:	0e 94 36 12 	call	0x246c	; 0x246c <gpib_untalk_unlisten>
		LED(1);
     f3a:	8d 9a       	sbi	0x11, 5	; 17
	}
	s_nextwrite_mightbeparameterset = false;
     f3c:	10 92 41 05 	sts	0x0541, r1	; 0x800541 <s_nextwrite_mightbeparameterset>
	gpib_write_is_busy = !isLastTransfer; /* required to handle read status byte synchronization issue */
     f40:	10 92 46 01 	sts	0x0146, r1	; 0x800146 <gpib_write_is_busy>
	
	if (handleReadStatusByte && !timedout)
     f44:	80 91 49 05 	lds	r24, 0x0549	; 0x800549 <handleReadStatusByte>
     f48:	81 11       	cpse	r24, r1
     f4a:	da cf       	rjmp	.-76     	; 0xf00 <ProcessSentMessage+0x11e>
     f4c:	80 cf       	rjmp	.-256    	; 0xe4e <ProcessSentMessage+0x6c>
	{
		DAV_LOW;
		do
		{
			if (timer_ticked() || quickTimeoutPoll)
				timedout = ptimeoutfunc();
     f4e:	f7 01       	movw	r30, r14
     f50:	09 95       	icall
		}
		while ( (NDAC_STATE == 0) && !timedout ); /* wait until NDAC gets high*/
     f52:	37 99       	sbic	0x06, 7	; 6
     f54:	17 c0       	rjmp	.+46     	; 0xf84 <ProcessSentMessage+0x1a2>
     f56:	88 23       	and	r24, r24
     f58:	09 f4       	brne	.+2      	; 0xf5c <ProcessSentMessage+0x17a>
     f5a:	a2 cf       	rjmp	.-188    	; 0xea0 <ProcessSentMessage+0xbe>
		DAV_HIGH;
     f5c:	26 98       	cbi	0x04, 6	; 4
     f5e:	df cf       	rjmp	.-66     	; 0xf1e <ProcessSentMessage+0x13c>
	#else
		//round up by default
		__ticks_dc = (uint32_t)(ceil(fabs(__tmp)));
	#endif

	__builtin_avr_delay_cycles(__ticks_dc);
     f60:	8f e6       	ldi	r24, 0x6F	; 111
     f62:	93 e0       	ldi	r25, 0x03	; 3
     f64:	01 97       	sbiw	r24, 0x01	; 1
     f66:	f1 f7       	brne	.-4      	; 0xf64 <ProcessSentMessage+0x182>
     f68:	00 c0       	rjmp	.+0      	; 0xf6a <ProcessSentMessage+0x188>
     f6a:	00 00       	nop
	else
	{
		bool atn_was_low = !ATN_OUT_STATE;
		if (atn_was_low)
			_delay_us(220);
		ATN_HIGH;
     f6c:	86 98       	cbi	0x10, 6	; 16
     f6e:	e7 e1       	ldi	r30, 0x17	; 23
     f70:	f1 e0       	ldi	r31, 0x01	; 1
     f72:	31 97       	sbiw	r30, 0x01	; 1
     f74:	f1 f7       	brne	.-4      	; 0xf72 <ProcessSentMessage+0x190>
     f76:	00 c0       	rjmp	.+0      	; 0xf78 <ProcessSentMessage+0x196>
     f78:	00 00       	nop
     f7a:	85 cf       	rjmp	.-246    	; 0xe86 <ProcessSentMessage+0xa4>
		if (timer_ticked() || quickTimeoutPoll) /* the timeout function can consume significant time */
			timedout = ptimeoutfunc();
	}
	while ( (NRFD_STATE == 0) && !timedout); /* wait until ready for data (NRFD to get high) */

	if (!timedout)
     f7c:	88 23       	and	r24, r24
     f7e:	09 f4       	brne	.+2      	; 0xf82 <ProcessSentMessage+0x1a0>
     f80:	8e cf       	rjmp	.-228    	; 0xe9e <ProcessSentMessage+0xbc>
     f82:	cd cf       	rjmp	.-102    	; 0xf1e <ProcessSentMessage+0x13c>
		{
			if (timer_ticked() || quickTimeoutPoll)
				timedout = ptimeoutfunc();
		}
		while ( (NDAC_STATE == 0) && !timedout ); /* wait until NDAC gets high*/
		DAV_HIGH;
     f84:	26 98       	cbi	0x04, 6	; 4
	}
	
	DDRD = 0x00; /* release data bus */
     f86:	1a b8       	out	0x0a, r1	; 10
	
	if (timedout)
     f88:	88 23       	and	r24, r24
     f8a:	09 f4       	brne	.+2      	; 0xf8e <ProcessSentMessage+0x1ac>
     f8c:	93 cf       	rjmp	.-218    	; 0xeb4 <ProcessSentMessage+0xd2>
     f8e:	c8 cf       	rjmp	.-112    	; 0xf20 <ProcessSentMessage+0x13e>
				dat = Endpoint_Read_8();
			}
			
		}
		
		if (isLastTransfer && !timedout) /* in case of timeout the interface is cleared within the writedat function, no need to untalk!*/
     f90:	d1 10       	cpse	r13, r1
     f92:	d0 cf       	rjmp	.-96     	; 0xf34 <ProcessSentMessage+0x152>
			gpib_untalk_unlisten(ptimeoutfunc);
		LED(1);
     f94:	8d 9a       	sbi	0x11, 5	; 17
	}
	s_nextwrite_mightbeparameterset = false;
     f96:	10 92 41 05 	sts	0x0541, r1	; 0x800541 <s_nextwrite_mightbeparameterset>
	gpib_write_is_busy = !isLastTransfer; /* required to handle read status byte synchronization issue */
     f9a:	10 93 46 01 	sts	0x0146, r17	; 0x800146 <gpib_write_is_busy>
	
	if (handleReadStatusByte && !timedout)
     f9e:	80 91 49 05 	lds	r24, 0x0549	; 0x800549 <handleReadStatusByte>
     fa2:	88 23       	and	r24, r24
     fa4:	09 f4       	brne	.+2      	; 0xfa8 <ProcessSentMessage+0x1c6>
	{
		if (!(isLastTransfer && !timedout))
			gpib_untalk_unlisten(ptimeoutfunc);
     fa6:	53 cf       	rjmp	.-346    	; 0xe4e <ProcessSentMessage+0x6c>
     fa8:	c7 01       	movw	r24, r14
     faa:	0e 94 36 12 	call	0x246c	; 0x246c <gpib_untalk_unlisten>
		handle_control_Req_ReadStatusByte();
     fae:	43 dd       	rcall	.-1402   	; 0xa36 <handle_control_Req_ReadStatusByte>
		if (!(isLastTransfer && !timedout))
			timedout = gpib_make_listener(gpib_addr, ptimeoutfunc);
     fb0:	b7 01       	movw	r22, r14
     fb2:	80 91 02 01 	lds	r24, 0x0102	; 0x800102 <gpib_addr>
	}	
}
     fb6:	df 91       	pop	r29
     fb8:	cf 91       	pop	r28
     fba:	1f 91       	pop	r17
     fbc:	0f 91       	pop	r16
     fbe:	ff 90       	pop	r15
     fc0:	ef 90       	pop	r14
     fc2:	df 90       	pop	r13
	{
		if (!(isLastTransfer && !timedout))
			gpib_untalk_unlisten(ptimeoutfunc);
		handle_control_Req_ReadStatusByte();
		if (!(isLastTransfer && !timedout))
			timedout = gpib_make_listener(gpib_addr, ptimeoutfunc);
     fc4:	0c 94 fe 12 	jmp	0x25fc	; 0x25fc <gpib_make_listener>
     fc8:	80 91 f1 00 	lds	r24, 0x00F1	; 0x8000f1 <__TEXT_REGION_LENGTH__+0x7e00f1>
			
		}
		
		if (isLastTransfer && !timedout) /* in case of timeout the interface is cleared within the writedat function, no need to untalk!*/
			gpib_untalk_unlisten(ptimeoutfunc);
		LED(1);
     fcc:	8d 9a       	sbi	0x11, 5	; 17
	}
	s_nextwrite_mightbeparameterset = false;
     fce:	10 92 41 05 	sts	0x0541, r1	; 0x800541 <s_nextwrite_mightbeparameterset>
	gpib_write_is_busy = !isLastTransfer; /* required to handle read status byte synchronization issue */
     fd2:	81 e0       	ldi	r24, 0x01	; 1
     fd4:	d8 26       	eor	r13, r24
     fd6:	d0 92 46 01 	sts	0x0146, r13	; 0x800146 <gpib_write_is_busy>
			gpib_untalk_unlisten(ptimeoutfunc);
		handle_control_Req_ReadStatusByte();
		if (!(isLastTransfer && !timedout))
			timedout = gpib_make_listener(gpib_addr, ptimeoutfunc);
	}	
}
     fda:	df 91       	pop	r29
     fdc:	cf 91       	pop	r28
     fde:	1f 91       	pop	r17
     fe0:	0f 91       	pop	r16
     fe2:	ff 90       	pop	r15
     fe4:	ef 90       	pop	r14
     fe6:	df 90       	pop	r13
		if (isFirstTransfer)
			timedout = gpib_make_listener(gpib_addr, ptimeoutfunc);
			
		if (handleReadStatusByte && !timedout)
		{
			gpib_untalk_unlisten(ptimeoutfunc);
     fe8:	08 95       	ret
     fea:	c7 01       	movw	r24, r14
     fec:	0e 94 36 12 	call	0x246c	; 0x246c <gpib_untalk_unlisten>
			handle_control_Req_ReadStatusByte();
     ff0:	22 dd       	rcall	.-1468   	; 0xa36 <handle_control_Req_ReadStatusByte>
			timedout = gpib_make_listener(gpib_addr, ptimeoutfunc);
     ff2:	b7 01       	movw	r22, r14
     ff4:	80 91 02 01 	lds	r24, 0x0102	; 0x800102 <gpib_addr>
     ff8:	0e 94 fe 12 	call	0x25fc	; 0x25fc <gpib_make_listener>
		}

		while ( (Length > 0) && !timedout)
     ffc:	cc 23       	and	r28, r28
     ffe:	09 f4       	brne	.+2      	; 0x1002 <ProcessSentMessage+0x220>
    1000:	94 cf       	rjmp	.-216    	; 0xf2a <ProcessSentMessage+0x148>
    1002:	81 11       	cpse	r24, r1
    1004:	e3 cf       	rjmp	.-58     	; 0xfcc <ProcessSentMessage+0x1ea>
    1006:	80 91 49 05 	lds	r24, 0x0549	; 0x800549 <handleReadStatusByte>
    100a:	34 cf       	rjmp	.-408    	; 0xe74 <ProcessSentMessage+0x92>
				handle_control_Req_ReadStatusByte();
				timedout = gpib_make_listener(gpib_addr, ptimeoutfunc);
			}
			Length--;
			timedout = gpib_writedat_quick(dat, (Length == 0)  && sendEom, ptimeoutfunc, false);
			if (Length > 0)
    100c:	80 e0       	ldi	r24, 0x00	; 0
    100e:	8d cf       	rjmp	.-230    	; 0xf2a <ProcessSentMessage+0x148>

00001010 <GetNextMessage>:
			timedout = gpib_make_listener(gpib_addr, ptimeoutfunc);
	}	
}

uint16_t GetNextMessage(uint8_t* const Data, uint16_t maxlen, bool isFirstMessage, bool *pisLastMessage, gpibtimeout_t ptimeoutfunc)
{
    1010:	7f 92       	push	r7
    1012:	8f 92       	push	r8
    1014:	9f 92       	push	r9
    1016:	af 92       	push	r10
    1018:	bf 92       	push	r11
    101a:	cf 92       	push	r12
    101c:	df 92       	push	r13
    101e:	ef 92       	push	r14
    1020:	ff 92       	push	r15
    1022:	0f 93       	push	r16
    1024:	1f 93       	push	r17
    1026:	cf 93       	push	r28
    1028:	df 93       	push	r29
    102a:	d8 2f       	mov	r29, r24
    102c:	99 2e       	mov	r9, r25
    102e:	6b 01       	movw	r12, r22
    1030:	c4 2f       	mov	r28, r20
    1032:	59 01       	movw	r10, r18
	uint8_t c;
	uint16_t i;
	bool    Eoi, timedout;
	
	gpib_ren(1); /* ensure that remote control is enabled */
    1034:	81 e0       	ldi	r24, 0x01	; 1
    1036:	0e 94 ae 11 	call	0x235c	; 0x235c <gpib_ren>
	
	LED(0);	
    103a:	8d 98       	cbi	0x11, 5	; 17
	
	timedout = false;
#ifndef SPEEDTEST_DUMMY_DEVICE
	if (isFirstMessage)
    103c:	c1 11       	cpse	r28, r1
    103e:	9d c0       	rjmp	.+314    	; 0x117a <GetNextMessage+0x16a>
#endif

	i = 0;
	Eoi = false;

	while (!Eoi && (i < maxlen) && !timedout)
    1040:	c1 14       	cp	r12, r1
    1042:	d1 04       	cpc	r13, r1
    1044:	09 f4       	brne	.+2      	; 0x1048 <GetNextMessage+0x38>
    1046:	a7 c0       	rjmp	.+334    	; 0x1196 <GetNextMessage+0x186>
    1048:	ed 2e       	mov	r14, r29
    104a:	f9 2c       	mov	r15, r9
			timedout = gpib_make_listener(gpib_addr, ptimeoutfunc);
	}	
}

uint16_t GetNextMessage(uint8_t* const Data, uint16_t maxlen, bool isFirstMessage, bool *pisLastMessage, gpibtimeout_t ptimeoutfunc)
{
    104c:	c0 e0       	ldi	r28, 0x00	; 0
    104e:	d0 e0       	ldi	r29, 0x00	; 0

	timedout = false;
	
	// ensure that ATN is high
	bool atn_was_low = !ATN_OUT_STATE;
	if (atn_was_low)
    1050:	86 99       	sbic	0x10, 6	; 16
    1052:	76 c0       	rjmp	.+236    	; 0x1140 <GetNextMessage+0x130>
		_delay_us(220);
	ATN_HIGH;
    1054:	86 98       	cbi	0x10, 6	; 16
	
	/* skipping NRFD LOW step, because we are able to handshake and response to data */
	NDAC_LOW;
    1056:	3f 9a       	sbi	0x07, 7	; 7
	NRFD_HIGH;
    1058:	3e 98       	cbi	0x07, 6	; 7
extern volatile bool timer0_ticked; /* flag going high every 100ms - defined in gpib.c */

/* check if 100ms timer ticked. returns true once every 100ms */
static inline bool timer_ticked(void)
{
	bool ticked = timer0_ticked;
    105a:	80 91 51 05 	lds	r24, 0x0551	; 0x800551 <timer0_ticked>
	timer0_ticked = false;
    105e:	10 92 51 05 	sts	0x0551, r1	; 0x800551 <timer0_ticked>
		_delay_us(70);
	
	
	do
	{
		if (timer_ticked() || quickTimeoutPoll)
    1062:	81 11       	cpse	r24, r1
    1064:	40 c0       	rjmp	.+128    	; 0x10e6 <GetNextMessage+0xd6>
			timedout = ptimeoutfunc();
	}
	while ( (DAV_STATE != 0) && !timedout ); /* wait until DAV gets low */
    1066:	1e 99       	sbic	0x03, 6	; 3
    1068:	f8 cf       	rjmp	.-16     	; 0x105a <GetNextMessage+0x4a>
	
	if (!timedout)
	{
		NRFD_LOW;
    106a:	3e 9a       	sbi	0x07, 6	; 7
		c = ~PIND;
    106c:	89 b0       	in	r8, 0x09	; 9
    106e:	80 94       	com	r8
		eoi = (EOI_STATE == 0) ;
    1070:	83 b1       	in	r24, 0x03	; 3
    1072:	99 24       	eor	r9, r9
    1074:	93 94       	inc	r9
    1076:	f8 2f       	mov	r31, r24
    1078:	f0 71       	andi	r31, 0x10	; 16
    107a:	7f 2e       	mov	r7, r31
    107c:	84 fd       	sbrc	r24, 4
    107e:	91 2c       	mov	r9, r1
		NDAC_HIGH;
    1080:	3f 98       	cbi	0x07, 7	; 7
extern volatile bool timer0_ticked; /* flag going high every 100ms - defined in gpib.c */

/* check if 100ms timer ticked. returns true once every 100ms */
static inline bool timer_ticked(void)
{
	bool ticked = timer0_ticked;
    1082:	80 91 51 05 	lds	r24, 0x0551	; 0x800551 <timer0_ticked>
	timer0_ticked = false;
    1086:	10 92 51 05 	sts	0x0551, r1	; 0x800551 <timer0_ticked>
		eoi = (EOI_STATE == 0) ;
		NDAC_HIGH;
		
		do
		{
			if (timer_ticked() || quickTimeoutPoll)
    108a:	81 11       	cpse	r24, r1
    108c:	3e c0       	rjmp	.+124    	; 0x110a <GetNextMessage+0xfa>
				timedout = ptimeoutfunc();
		}
		while ( (DAV_STATE == 0) && !timedout ); /* wait until DAV gets high */
    108e:	1e 9b       	sbis	0x03, 6	; 3
    1090:	f8 cf       	rjmp	.-16     	; 0x1082 <GetNextMessage+0x72>
	}

	
	if (s_terminator == '\0')
    1092:	20 91 50 05 	lds	r18, 0x0550	; 0x800550 <s_terminator>
    1096:	80 e0       	ldi	r24, 0x00	; 0
    1098:	22 23       	and	r18, r18
    109a:	31 f0       	breq	.+12     	; 0x10a8 <GetNextMessage+0x98>
		*pEoi = eoi;
	else
		*pEoi = eoi || (c == s_terminator);
    109c:	71 10       	cpse	r7, r1
    109e:	30 c0       	rjmp	.+96     	; 0x1100 <GetNextMessage+0xf0>
    10a0:	99 24       	eor	r9, r9
    10a2:	93 94       	inc	r9

	if (timedout)
    10a4:	81 11       	cpse	r24, r1
    10a6:	3c c0       	rjmp	.+120    	; 0x1120 <GetNextMessage+0x110>
	{
		gpib_recover();
	}
	*ptimedout = timedout;
	
	NRFD_LOW;
    10a8:	3e 9a       	sbi	0x07, 6	; 7

	while (!Eoi && (i < maxlen) && !timedout)
	{
	
		c = gpib_readdat_quick(&Eoi, &timedout, ptimeoutfunc, false); 
		Data[i++] = c;
    10aa:	21 96       	adiw	r28, 0x01	; 1
    10ac:	f7 01       	movw	r30, r14
    10ae:	81 92       	st	Z+, r8
    10b0:	7f 01       	movw	r14, r30
#endif

	i = 0;
	Eoi = false;

	while (!Eoi && (i < maxlen) && !timedout)
    10b2:	91 10       	cpse	r9, r1
    10b4:	3f c0       	rjmp	.+126    	; 0x1134 <GetNextMessage+0x124>
    10b6:	cc 15       	cp	r28, r12
    10b8:	dd 05       	cpc	r29, r13
    10ba:	10 f4       	brcc	.+4      	; 0x10c0 <GetNextMessage+0xb0>
    10bc:	88 23       	and	r24, r24
    10be:	41 f2       	breq	.-112    	; 0x1050 <GetNextMessage+0x40>
    10c0:	98 2e       	mov	r9, r24
		gpib_untalk_unlisten(ptimeoutfunc);
#endif

	if (timedout) /* in case of timedout, simulate an end of message */
		Eoi = true;
	*pisLastMessage = Eoi;
    10c2:	f5 01       	movw	r30, r10
    10c4:	90 82       	st	Z, r9
	
	LED(1);
    10c6:	8d 9a       	sbi	0x11, 5	; 17

	return i;
}
    10c8:	ce 01       	movw	r24, r28
    10ca:	df 91       	pop	r29
    10cc:	cf 91       	pop	r28
    10ce:	1f 91       	pop	r17
    10d0:	0f 91       	pop	r16
    10d2:	ff 90       	pop	r15
    10d4:	ef 90       	pop	r14
    10d6:	df 90       	pop	r13
    10d8:	cf 90       	pop	r12
    10da:	bf 90       	pop	r11
    10dc:	af 90       	pop	r10
    10de:	9f 90       	pop	r9
    10e0:	8f 90       	pop	r8
    10e2:	7f 90       	pop	r7
    10e4:	08 95       	ret
	
	
	do
	{
		if (timer_ticked() || quickTimeoutPoll)
			timedout = ptimeoutfunc();
    10e6:	f8 01       	movw	r30, r16
    10e8:	09 95       	icall
	}
	while ( (DAV_STATE != 0) && !timedout ); /* wait until DAV gets low */
    10ea:	1e 9b       	sbis	0x03, 6	; 3
    10ec:	3c c0       	rjmp	.+120    	; 0x1166 <GetNextMessage+0x156>
    10ee:	88 23       	and	r24, r24
    10f0:	09 f4       	brne	.+2      	; 0x10f4 <GetNextMessage+0xe4>
    10f2:	b3 cf       	rjmp	.-154    	; 0x105a <GetNextMessage+0x4a>
		}
		while ( (DAV_STATE == 0) && !timedout ); /* wait until DAV gets high */
	}

	
	if (s_terminator == '\0')
    10f4:	20 91 50 05 	lds	r18, 0x0550	; 0x800550 <s_terminator>
    10f8:	22 23       	and	r18, r18
    10fa:	91 f1       	breq	.+100    	; 0x1160 <GetNextMessage+0x150>
    10fc:	81 e0       	ldi	r24, 0x01	; 1
    10fe:	81 2c       	mov	r8, r1
    1100:	91 e0       	ldi	r25, 0x01	; 1
    1102:	82 12       	cpse	r8, r18
    1104:	90 e0       	ldi	r25, 0x00	; 0
		*pEoi = eoi;
	else
		*pEoi = eoi || (c == s_terminator);
    1106:	99 2e       	mov	r9, r25
    1108:	cd cf       	rjmp	.-102    	; 0x10a4 <GetNextMessage+0x94>
		NDAC_HIGH;
		
		do
		{
			if (timer_ticked() || quickTimeoutPoll)
				timedout = ptimeoutfunc();
    110a:	f8 01       	movw	r30, r16
    110c:	09 95       	icall
		}
		while ( (DAV_STATE == 0) && !timedout ); /* wait until DAV gets high */
    110e:	1e 99       	sbic	0x03, 6	; 3
    1110:	2e c0       	rjmp	.+92     	; 0x116e <GetNextMessage+0x15e>
    1112:	88 23       	and	r24, r24
    1114:	09 f4       	brne	.+2      	; 0x1118 <GetNextMessage+0x108>
    1116:	b5 cf       	rjmp	.-150    	; 0x1082 <GetNextMessage+0x72>
	}

	
	if (s_terminator == '\0')
    1118:	20 91 50 05 	lds	r18, 0x0550	; 0x800550 <s_terminator>
    111c:	21 11       	cpse	r18, r1
    111e:	be cf       	rjmp	.-132    	; 0x109c <GetNextMessage+0x8c>
	else
		*pEoi = eoi || (c == s_terminator);

	if (timedout)
	{
		gpib_recover();
    1120:	46 d5       	rcall	.+2700   	; 0x1bae <gpib_recover>
    1122:	81 e0       	ldi	r24, 0x01	; 1
	}
	*ptimedout = timedout;
	
	NRFD_LOW;
    1124:	3e 9a       	sbi	0x07, 6	; 7

	while (!Eoi && (i < maxlen) && !timedout)
	{
	
		c = gpib_readdat_quick(&Eoi, &timedout, ptimeoutfunc, false); 
		Data[i++] = c;
    1126:	21 96       	adiw	r28, 0x01	; 1
    1128:	f7 01       	movw	r30, r14
    112a:	81 92       	st	Z+, r8
    112c:	7f 01       	movw	r14, r30
#endif

	i = 0;
	Eoi = false;

	while (!Eoi && (i < maxlen) && !timedout)
    112e:	99 20       	and	r9, r9
    1130:	09 f4       	brne	.+2      	; 0x1134 <GetNextMessage+0x124>
    1132:	c1 cf       	rjmp	.-126    	; 0x10b6 <GetNextMessage+0xa6>
		c = gpib_readdat_quick(&Eoi, &timedout, ptimeoutfunc, false); 
		Data[i++] = c;
	}
		
#ifndef SPEEDTEST_DUMMY_DEVICE
	if (Eoi && !timedout) /* in case of timeout, no need to unlisten => interface clear done in readdat function! */
    1134:	81 11       	cpse	r24, r1
    1136:	c5 cf       	rjmp	.-118    	; 0x10c2 <GetNextMessage+0xb2>
		gpib_untalk_unlisten(ptimeoutfunc);
    1138:	c8 01       	movw	r24, r16
    113a:	0e 94 36 12 	call	0x246c	; 0x246c <gpib_untalk_unlisten>
    113e:	c1 cf       	rjmp	.-126    	; 0x10c2 <GetNextMessage+0xb2>
    1140:	8f e6       	ldi	r24, 0x6F	; 111
    1142:	93 e0       	ldi	r25, 0x03	; 3
    1144:	01 97       	sbiw	r24, 0x01	; 1
    1146:	f1 f7       	brne	.-4      	; 0x1144 <GetNextMessage+0x134>
    1148:	00 c0       	rjmp	.+0      	; 0x114a <GetNextMessage+0x13a>
    114a:	00 00       	nop
	
	// ensure that ATN is high
	bool atn_was_low = !ATN_OUT_STATE;
	if (atn_was_low)
		_delay_us(220);
	ATN_HIGH;
    114c:	86 98       	cbi	0x10, 6	; 16
	
	/* skipping NRFD LOW step, because we are able to handshake and response to data */
	NDAC_LOW;
    114e:	3f 9a       	sbi	0x07, 7	; 7
	NRFD_HIGH;
    1150:	3e 98       	cbi	0x07, 6	; 7
    1152:	e7 e1       	ldi	r30, 0x17	; 23
    1154:	f1 e0       	ldi	r31, 0x01	; 1
    1156:	31 97       	sbiw	r30, 0x01	; 1
    1158:	f1 f7       	brne	.-4      	; 0x1156 <GetNextMessage+0x146>
    115a:	00 c0       	rjmp	.+0      	; 0x115c <GetNextMessage+0x14c>
    115c:	00 00       	nop
    115e:	7d cf       	rjmp	.-262    	; 0x105a <GetNextMessage+0x4a>
		}
		while ( (DAV_STATE == 0) && !timedout ); /* wait until DAV gets high */
	}

	
	if (s_terminator == '\0')
    1160:	81 2c       	mov	r8, r1
    1162:	91 2c       	mov	r9, r1
    1164:	dd cf       	rjmp	.-70     	; 0x1120 <GetNextMessage+0x110>
		if (timer_ticked() || quickTimeoutPoll)
			timedout = ptimeoutfunc();
	}
	while ( (DAV_STATE != 0) && !timedout ); /* wait until DAV gets low */
	
	if (!timedout)
    1166:	88 23       	and	r24, r24
    1168:	09 f4       	brne	.+2      	; 0x116c <GetNextMessage+0x15c>
    116a:	7f cf       	rjmp	.-258    	; 0x106a <GetNextMessage+0x5a>
    116c:	c3 cf       	rjmp	.-122    	; 0x10f4 <GetNextMessage+0xe4>
		}
		while ( (DAV_STATE == 0) && !timedout ); /* wait until DAV gets high */
	}

	
	if (s_terminator == '\0')
    116e:	20 91 50 05 	lds	r18, 0x0550	; 0x800550 <s_terminator>
    1172:	22 23       	and	r18, r18
    1174:	09 f4       	brne	.+2      	; 0x1178 <GetNextMessage+0x168>
    1176:	96 cf       	rjmp	.-212    	; 0x10a4 <GetNextMessage+0x94>
    1178:	91 cf       	rjmp	.-222    	; 0x109c <GetNextMessage+0x8c>
	LED(0);	
	
	timedout = false;
#ifndef SPEEDTEST_DUMMY_DEVICE
	if (isFirstMessage)
		timedout = gpib_make_talker(gpib_addr, ptimeoutfunc);
    117a:	b8 01       	movw	r22, r16
    117c:	80 91 02 01 	lds	r24, 0x0102	; 0x800102 <gpib_addr>
    1180:	0e 94 aa 12 	call	0x2554	; 0x2554 <gpib_make_talker>
#endif

	i = 0;
	Eoi = false;

	while (!Eoi && (i < maxlen) && !timedout)
    1184:	c1 14       	cp	r12, r1
    1186:	d1 04       	cpc	r13, r1
    1188:	19 f0       	breq	.+6      	; 0x1190 <GetNextMessage+0x180>
    118a:	88 23       	and	r24, r24
    118c:	09 f4       	brne	.+2      	; 0x1190 <GetNextMessage+0x180>
    118e:	5c cf       	rjmp	.-328    	; 0x1048 <GetNextMessage+0x38>
    1190:	c0 e0       	ldi	r28, 0x00	; 0
    1192:	d0 e0       	ldi	r29, 0x00	; 0
    1194:	95 cf       	rjmp	.-214    	; 0x10c0 <GetNextMessage+0xb0>
    1196:	c0 e0       	ldi	r28, 0x00	; 0
    1198:	d0 e0       	ldi	r29, 0x00	; 0
	
	gpib_ren(1); /* ensure that remote control is enabled */
	
	LED(0);	
	
	timedout = false;
    119a:	80 e0       	ldi	r24, 0x00	; 0
    119c:	91 cf       	rjmp	.-222    	; 0x10c0 <GetNextMessage+0xb0>

0000119e <TMC_resetstates>:
bool TMC_eom;
bool TMC_InLastMessageComplete = true;

void TMC_resetstates(void)
{
	internal_response_buffer_len = 0;
    119e:	10 92 44 01 	sts	0x0144, r1	; 0x800144 <internal_response_buffer_len>
	handleGoToLocal = false;
    11a2:	10 92 4a 05 	sts	0x054A, r1	; 0x80054a <handleGoToLocal>
	handleSDC = false;
    11a6:	10 92 4c 05 	sts	0x054C, r1	; 0x80054c <handleSDC>
	handleLocalLockout = false;
    11aa:	10 92 4b 05 	sts	0x054B, r1	; 0x80054b <handleLocalLockout>
	handleReadStatusByte = false;
    11ae:	10 92 49 05 	sts	0x0549, r1	; 0x800549 <handleReadStatusByte>
	TMC_LastMessageComplete = true;
    11b2:	81 e0       	ldi	r24, 0x01	; 1
    11b4:	80 93 01 01 	sts	0x0101, r24	; 0x800101 <TMC_LastMessageComplete>
	TMC_InLastMessageComplete = true;
    11b8:	80 93 00 01 	sts	0x0100, r24	; 0x800100 <TMC_InLastMessageComplete>
	s_remaining_bytes_receive = 0;
    11bc:	10 92 3d 05 	sts	0x053D, r1	; 0x80053d <s_remaining_bytes_receive>
    11c0:	10 92 3e 05 	sts	0x053E, r1	; 0x80053e <s_remaining_bytes_receive+0x1>
    11c4:	10 92 3f 05 	sts	0x053F, r1	; 0x80053f <s_remaining_bytes_receive+0x2>
    11c8:	10 92 40 05 	sts	0x0540, r1	; 0x800540 <s_remaining_bytes_receive+0x3>
	gpib_interface_clear(); 
    11cc:	0c 94 b4 11 	jmp	0x2368	; 0x2368 <gpib_interface_clear>

000011d0 <main>:
		eeprom_write_byte((uint8_t*)addr, value);		
	}
}

int main(void)
{
    11d0:	cf 93       	push	r28
    11d2:	df 93       	push	r29
    11d4:	cd b7       	in	r28, 0x3d	; 61
    11d6:	de b7       	in	r29, 0x3e	; 62
    11d8:	cf 58       	subi	r28, 0x8F	; 143
    11da:	d1 09       	sbc	r29, r1
    11dc:	0f b6       	in	r0, 0x3f	; 63
    11de:	f8 94       	cli
    11e0:	de bf       	out	0x3e, r29	; 62
    11e2:	0f be       	out	0x3f, r0	; 63
    11e4:	cd bf       	out	0x3d, r28	; 61
	uint8_t prevaddr;

	//mcusr_mirror = MCUSR; 
	MCUSR = 0; 
    11e6:	14 be       	out	0x34, r1	; 52
    11e8:	0f b6       	in	r0, 0x3f	; 63
    11ea:	f8 94       	cli
    11ec:	a8 95       	wdr
    11ee:	80 91 60 00 	lds	r24, 0x0060	; 0x800060 <__TEXT_REGION_LENGTH__+0x7e0060>
    11f2:	88 61       	ori	r24, 0x18	; 24
    11f4:	80 93 60 00 	sts	0x0060, r24	; 0x800060 <__TEXT_REGION_LENGTH__+0x7e0060>
    11f8:	10 92 60 00 	sts	0x0060, r1	; 0x800060 <__TEXT_REGION_LENGTH__+0x7e0060>
    11fc:	0f be       	out	0x3f, r0	; 63
	wdt_disable(); 
	
	PORTB |=  (1<<2); /* PB2 = PULLUP */
    11fe:	2a 9a       	sbi	0x05, 2	; 5
	DDRB  &= ~(1<<2); /* PB2 = input*/
    1200:	22 98       	cbi	0x04, 2	; 4
	
	SetupHardware();
    1202:	e5 db       	rcall	.-2102   	; 0x9ce <SetupHardware>
	
	gpib_init();
    1204:	9c d4       	rcall	.+2360   	; 0x1b3e <gpib_init>
    1206:	f9 99       	sbic	0x1f, 1	; 31
	
	/* apply settings from eeprom */
	eeprom_busy_wait();	
    1208:	fe cf       	rjmp	.-4      	; 0x1206 <main+0x36>
    120a:	89 e6       	ldi	r24, 0x69	; 105
	gpib_set_readtermination(eeprom_read_byte((const uint8_t *)105));
    120c:	90 e0       	ldi	r25, 0x00	; 0
    120e:	0e 94 77 1a 	call	0x34ee	; 0x34ee <eeprom_read_byte>
    1212:	0e 94 c9 13 	call	0x2792	; 0x2792 <gpib_set_readtermination>
    1216:	78 94       	sei
			static inline void GlobalInterruptEnable(void)
			{
				GCC_MEMORY_BARRIER();

				#if (ARCH == ARCH_AVR8)
				sei();
    1218:	16 c0       	rjmp	.+44     	; 0x1246 <main+0x76>
				__builtin_csrf(AVR32_SR_GM_OFFSET);
				#elif (ARCH == ARCH_XMEGA)
				sei();
				#endif

				GCC_MEMORY_BARRIER();
    121a:	2f ef       	ldi	r18, 0xFF	; 255
	#else
		//round up by default
		__ticks_dc = (uint32_t)(ceil(fabs(__tmp)));
	#endif

	__builtin_avr_delay_cycles(__ticks_dc);
    121c:	34 e3       	ldi	r19, 0x34	; 52
    121e:	4c e0       	ldi	r20, 0x0C	; 12
    1220:	21 50       	subi	r18, 0x01	; 1
    1222:	30 40       	sbci	r19, 0x00	; 0
    1224:	40 40       	sbci	r20, 0x00	; 0
    1226:	e1 f7       	brne	.-8      	; 0x1220 <main+0x50>
    1228:	00 c0       	rjmp	.+0      	; 0x122a <main+0x5a>
    122a:	00 00       	nop
    122c:	8d 9a       	sbi	0x11, 5	; 17
	GlobalInterruptEnable();
	
	while (!gpib_is_connected())
	{
		_delay_ms(250);
		LED(1);
    122e:	8f ef       	ldi	r24, 0xFF	; 255
    1230:	94 e3       	ldi	r25, 0x34	; 52
    1232:	ec e0       	ldi	r30, 0x0C	; 12
    1234:	81 50       	subi	r24, 0x01	; 1
    1236:	90 40       	sbci	r25, 0x00	; 0
    1238:	e0 40       	sbci	r30, 0x00	; 0
    123a:	e1 f7       	brne	.-8      	; 0x1234 <main+0x64>
    123c:	00 c0       	rjmp	.+0      	; 0x123e <main+0x6e>
    123e:	00 00       	nop
    1240:	8d 98       	cbi	0x11, 5	; 17
		_delay_ms(250);
		LED(0);
    1242:	1a 9b       	sbis	0x03, 2	; 3
	SetGlobalInterruptMask(CurrentGlobalInt);
}

static inline void check_bootloaderEntry(void)
{
	if ( !(PINB & (1<<2)) ) /* check if PB2 is LOW*/
    1244:	38 c1       	rjmp	.+624    	; 0x14b6 <main+0x2e6>
    1246:	0e 94 9a 11 	call	0x2334	; 0x2334 <gpib_is_connected>
	eeprom_busy_wait();	
	gpib_set_readtermination(eeprom_read_byte((const uint8_t *)105));
	
	GlobalInterruptEnable();
	
	while (!gpib_is_connected())
    124a:	88 23       	and	r24, r24
    124c:	31 f3       	breq	.-52     	; 0x121a <main+0x4a>
    124e:	88 e6       	ldi	r24, 0x68	; 104
		_delay_ms(250);
		LED(0);
		check_bootloaderEntry();
	}
	
	uint8_t autoid = eeprom_read_byte((const uint8_t *)104);
    1250:	90 e0       	ldi	r25, 0x00	; 0
    1252:	0e 94 77 1a 	call	0x34ee	; 0x34ee <eeprom_read_byte>
    1256:	18 2f       	mov	r17, r24
    1258:	8e ef       	ldi	r24, 0xFE	; 254
	if ( (autoid >= 0x02) && (autoid <= 0x04) ) // check if SLOW AUTOID mode is activated
    125a:	81 0f       	add	r24, r17
    125c:	83 30       	cpi	r24, 0x03	; 3
    125e:	08 f4       	brcc	.+2      	; 0x1262 <main+0x92>
    1260:	49 c1       	rjmp	.+658    	; 0x14f4 <main+0x324>
    1262:	01 e0       	ldi	r16, 0x01	; 1
	devicepresent = false;
	addr = gpib_search();
	devicepresent = (addr < 255);
	if (addr >= 255)	/* fallback to GPIB address 1, if no device was found */
		addr = 1;
	gpib_addr = addr; /* set global GPIB address to found address*/
    1264:	0e 94 d3 13 	call	0x27a6	; 0x27a6 <gpib_search>
	bool devicepresent;
	
	//gpib_interface_clear();
	
	devicepresent = false;
	addr = gpib_search();
    1268:	8f 3f       	cpi	r24, 0xFF	; 255
	devicepresent = (addr < 255);
	if (addr >= 255)	/* fallback to GPIB address 1, if no device was found */
    126a:	09 f4       	brne	.+2      	; 0x126e <main+0x9e>
    126c:	26 c1       	rjmp	.+588    	; 0x14ba <main+0x2ea>
    126e:	80 93 02 01 	sts	0x0102, r24	; 0x800102 <gpib_addr>
		addr = 1;
	gpib_addr = addr; /* set global GPIB address to found address*/
    1272:	f9 99       	sbic	0x1f, 1	; 31
			while (1);
		}
		check_bootloaderEntry();
	}; /* Identify the GPIB Address of the connected GPIB device */
#endif
	eeprom_busy_wait();
    1274:	fe cf       	rjmp	.-4      	; 0x1272 <main+0xa2>
    1276:	11 30       	cpi	r17, 0x01	; 1
#ifdef SPEEDTEST_DUMMY_DEVICE	
	if ( false )
#else
	if (autoid != 0x01) // check if AUTOID feature is enabled
    1278:	09 f4       	brne	.+2      	; 0x127c <main+0xac>
    127a:	d6 c1       	rjmp	.+940    	; 0x1628 <main+0x458>
    127c:	f9 99       	sbic	0x1f, 1	; 31
#endif
	{
		/* found a responsive GPIB address, now setup USB descriptor with *IDN? or ID? command response */
		eeprom_busy_wait();
    127e:	fe cf       	rjmp	.-4      	; 0x127c <main+0xac>
    1280:	80 e0       	ldi	r24, 0x00	; 0
		prevaddr = eeprom_read_byte((uint8_t*)0); /* read previous gpib address */
    1282:	90 e0       	ldi	r25, 0x00	; 0
    1284:	0e 94 77 1a 	call	0x34ee	; 0x34ee <eeprom_read_byte>
    1288:	18 2f       	mov	r17, r24
		if (identifyGpibDevice())
    128a:	b9 d8       	rcall	.-3726   	; 0x3fe <identifyGpibDevice>
    128c:	81 11       	cpse	r24, r1
    128e:	ad c3       	rjmp	.+1882   	; 0x19ea <main+0x81a>
    1290:	80 91 02 01 	lds	r24, 0x0102	; 0x800102 <gpib_addr>
				eeprom_update_if_changed(1+i, *pdat++);
			}
		}
		else
		{ /* received NO string over GPIB => Check, if the GPIB addr matches the one in eeprom, then report EEProm string! */
			if (prevaddr == gpib_addr)
    1294:	18 17       	cp	r17, r24
    1296:	09 f4       	brne	.+2      	; 0x129a <main+0xca>
    1298:	93 c3       	rjmp	.+1830   	; 0x19c0 <main+0x7f0>
    129a:	8a e6       	ldi	r24, 0x6A	; 106
		_delay_ms(100);
		gpib_ren(true);
	}
	
	/* if activated: shorten the USB serial number string. This is just for Matlab which does not allow ressource strings to be longer than */
	if (eeprom_read_byte((const uint8_t *)106) == 0x01) // check if serial string shortening is on
    129c:	90 e0       	ldi	r25, 0x00	; 0
    129e:	0e 94 77 1a 	call	0x34ee	; 0x34ee <eeprom_read_byte>
    12a2:	81 30       	cpi	r24, 0x01	; 1
    12a4:	09 f4       	brne	.+2      	; 0x12a8 <main+0xd8>
    12a6:	81 c3       	rjmp	.+1794   	; 0x19aa <main+0x7da>
    12a8:	8d 9a       	sbi	0x11, 5	; 17
			tmc_serial_string.Header.Size = len*2 + sizeof(USB_Descriptor_Header_t);
		}
	}

	/* all fine, now kickoff connect to USB to be able to communicate! */
	LED(1);
    12aa:	80 91 e0 00 	lds	r24, 0x00E0	; 0x8000e0 <__TEXT_REGION_LENGTH__+0x7e00e0>
			 *  register and despite the datasheet making no mention of its requirement in host mode.
			 */
			static inline void USB_Attach(void) ATTR_ALWAYS_INLINE;
			static inline void USB_Attach(void)
			{
				UDCON  &= ~(1 << DETACH);
    12ae:	8e 7f       	andi	r24, 0xFE	; 254
    12b0:	80 93 e0 00 	sts	0x00E0, r24	; 0x8000e0 <__TEXT_REGION_LENGTH__+0x7e00e0>
    12b4:	63 e0       	ldi	r22, 0x03	; 3
			 */
			static inline void Endpoint_SelectEndpoint(const uint8_t Address) ATTR_ALWAYS_INLINE;
			static inline void Endpoint_SelectEndpoint(const uint8_t Address)
			{
				#if !defined(CONTROL_ONLY_DEVICE)
					UENUM = (Address & ENDPOINT_EPNUM_MASK);
    12b6:	76 2e       	mov	r7, r22
    12b8:	72 e0       	ldi	r23, 0x02	; 2
    12ba:	67 2e       	mov	r6, r23
    12bc:	e0 e5       	ldi	r30, 0x50	; 80

uint32_t timeout_val;

void timeout_start(uint32_t timeout)
{
	timeout_val = timeout;
    12be:	8e 2e       	mov	r8, r30
    12c0:	e3 ec       	ldi	r30, 0xC3	; 195
    12c2:	9e 2e       	mov	r9, r30
    12c4:	a1 2c       	mov	r10, r1
    12c6:	b1 2c       	mov	r11, r1
    12c8:	09 c0       	rjmp	.+18     	; 0x12dc <main+0x10c>
    12ca:	1a 9b       	sbis	0x03, 2	; 3
	SetGlobalInterruptMask(CurrentGlobalInt);
}

static inline void check_bootloaderEntry(void)
{
	if ( !(PINB & (1<<2)) ) /* check if PB2 is LOW*/
    12cc:	f4 c0       	rjmp	.+488    	; 0x14b6 <main+0x2e6>
    12ce:	0e 94 9a 11 	call	0x2334	; 0x2334 <gpib_is_connected>
	for (;;)
	{
		TMC_Task(); // this task is 9.42us active when nothing is triggered, the rest takes 3.3us
		check_bootloaderEntry();
		
		if (!gpib_is_connected()) /* check, if gpib is disconnected */
    12d2:	88 23       	and	r24, r24
    12d4:	09 f4       	brne	.+2      	; 0x12d8 <main+0x108>
    12d6:	8c c1       	rjmp	.+792    	; 0x15f0 <main+0x420>
    12d8:	0e 94 4b 1a 	call	0x3496	; 0x3496 <USB_USBTask>
			_delay_ms(500);
			wdt_enable(WDTO_250MS);	
			while (1);
		}
		
		USB_USBTask();
    12dc:	80 91 cf 05 	lds	r24, 0x05CF	; 0x8005cf <USB_DeviceState>
/** Function to manage TMC data transmission and reception to and from the host. */
static inline void TMC_Task(void)
{
	bool lastmessage;
	/* Device must be connected and configured for the task to run */
	if (USB_DeviceState != DEVICE_STATE_Configured)
    12e0:	84 30       	cpi	r24, 0x04	; 4
    12e2:	99 f7       	brne	.-26     	; 0x12ca <main+0xfa>
    12e4:	80 91 3d 05 	lds	r24, 0x053D	; 0x80053d <s_remaining_bytes_receive>
	TMC_MessageHeader_t MessageHeader;
	uint8_t             MessagePayload[128], curlen;
	uint16_t            curlen16;
	
	
	if (s_remaining_bytes_receive == 0)
    12e8:	90 91 3e 05 	lds	r25, 0x053E	; 0x80053e <s_remaining_bytes_receive+0x1>
    12ec:	a0 91 3f 05 	lds	r26, 0x053F	; 0x80053f <s_remaining_bytes_receive+0x2>
    12f0:	b0 91 40 05 	lds	r27, 0x0540	; 0x800540 <s_remaining_bytes_receive+0x3>
    12f4:	89 2b       	or	r24, r25
    12f6:	8a 2b       	or	r24, r26
    12f8:	8b 2b       	or	r24, r27
    12fa:	09 f0       	breq	.+2      	; 0x12fe <main+0x12e>
    12fc:	10 c1       	rjmp	.+544    	; 0x151e <main+0x34e>
    12fe:	7f 99       	sbic	0x0f, 7	; 15
	{
		/* handle service request (SRQ line goes down) */
		if (gpib_is_srq_active())
    1300:	2f c0       	rjmp	.+94     	; 0x1360 <main+0x190>
    1302:	80 92 60 05 	sts	0x0560, r8	; 0x800560 <timeout_val>

uint32_t timeout_val;

void timeout_start(uint32_t timeout)
{
	timeout_val = timeout;
    1306:	90 92 61 05 	sts	0x0561, r9	; 0x800561 <timeout_val+0x1>
    130a:	a0 92 62 05 	sts	0x0562, r10	; 0x800562 <timeout_val+0x2>
    130e:	b0 92 63 05 	sts	0x0563, r11	; 0x800563 <timeout_val+0x3>
    1312:	69 e9       	ldi	r22, 0x99	; 153
		if (gpib_is_srq_active())
		{ /* SRQ is now and we are outside of a GPIB transfer here. So: Handle it by reading status byte and push it over the interrupt channel! */
			uint8_t statusReg;
			uint8_t notdata[2];
			timeout_start(50000); /* 0.5s timeout*/
			statusReg =  gpib_readStatusByte(gpib_addr, is_timedout) | 0x40;
    1314:	71 e0       	ldi	r23, 0x01	; 1
    1316:	80 91 02 01 	lds	r24, 0x0102	; 0x800102 <gpib_addr>
    131a:	16 d7       	rcall	.+3628   	; 0x2148 <gpib_readStatusByte>
    131c:	80 64       	ori	r24, 0x40	; 64
    131e:	98 2f       	mov	r25, r24
			srq_statusbyte |= (statusReg & ~0x40);
    1320:	9f 7b       	andi	r25, 0xBF	; 191
    1322:	20 91 48 01 	lds	r18, 0x0148	; 0x800148 <srq_statusbyte>
    1326:	92 2b       	or	r25, r18
    1328:	90 93 48 01 	sts	0x0148, r25	; 0x800148 <srq_statusbyte>
    132c:	91 e8       	ldi	r25, 0x81	; 129
			notdata[0] = 0x80 | 0x01;
    132e:	99 83       	std	Y+1, r25	; 0x01
    1330:	8a 83       	std	Y+2, r24	; 0x02
			notdata[1] = statusReg;
    1332:	e1 e0       	ldi	r30, 0x01	; 1
    1334:	e0 93 e9 00 	sts	0x00E9, r30	; 0x8000e9 <__TEXT_REGION_LENGTH__+0x7e00e9>
    1338:	04 c0       	rjmp	.+8      	; 0x1342 <main+0x172>
    133a:	80 91 4e 05 	lds	r24, 0x054E	; 0x80054e <IsTMCBulkINReset>
			Endpoint_SelectEndpoint(TMC_NOTIFICATION_EPADDR);
			while ( Endpoint_Write_Stream_LE(notdata, sizeof(notdata), NULL) ==
					ENDPOINT_RWSTREAM_IncompleteTransfer)
			{
				if (IsTMCBulkINReset)
    133e:	81 11       	cpse	r24, r1
    1340:	0a c0       	rjmp	.+20     	; 0x1356 <main+0x186>
    1342:	40 e0       	ldi	r20, 0x00	; 0
			statusReg =  gpib_readStatusByte(gpib_addr, is_timedout) | 0x40;
			srq_statusbyte |= (statusReg & ~0x40);
			notdata[0] = 0x80 | 0x01;
			notdata[1] = statusReg;
			Endpoint_SelectEndpoint(TMC_NOTIFICATION_EPADDR);
			while ( Endpoint_Write_Stream_LE(notdata, sizeof(notdata), NULL) ==
    1344:	50 e0       	ldi	r21, 0x00	; 0
    1346:	62 e0       	ldi	r22, 0x02	; 2
    1348:	70 e0       	ldi	r23, 0x00	; 0
    134a:	ce 01       	movw	r24, r28
    134c:	01 96       	adiw	r24, 0x01	; 1
    134e:	0e 94 c6 15 	call	0x2b8c	; 0x2b8c <Endpoint_Write_Stream_LE>
    1352:	85 30       	cpi	r24, 0x05	; 5
    1354:	91 f3       	breq	.-28     	; 0x133a <main+0x16a>
    1356:	80 91 e8 00 	lds	r24, 0x00E8	; 0x8000e8 <__TEXT_REGION_LENGTH__+0x7e00e8>
			 */
			static inline void Endpoint_ClearIN(void) ATTR_ALWAYS_INLINE;
			static inline void Endpoint_ClearIN(void)
			{
				#if !defined(CONTROL_ONLY_DEVICE)
					UEINTX &= ~((1 << TXINI) | (1 << FIFOCON));
    135a:	8e 77       	andi	r24, 0x7E	; 126
    135c:	80 93 e8 00 	sts	0x00E8, r24	; 0x8000e8 <__TEXT_REGION_LENGTH__+0x7e00e8>
    1360:	80 91 4c 05 	lds	r24, 0x054C	; 0x80054c <handleSDC>
			}
			Endpoint_ClearIN();		
		}

		/* handle actions triggered by control transfer in a synchronous manner here */
		if (handleSDC)
    1364:	81 11       	cpse	r24, r1
    1366:	71 c1       	rjmp	.+738    	; 0x164a <main+0x47a>
    1368:	80 91 4b 05 	lds	r24, 0x054B	; 0x80054b <handleLocalLockout>
			timeout_start(50000); /* 0.5s timeout*/
			gpib_sdc(gpib_addr, is_timedout);
			handleSDC = false;
		}
		
		if (handleLocalLockout)
    136c:	81 11       	cpse	r24, r1
    136e:	7f c1       	rjmp	.+766    	; 0x166e <main+0x49e>
    1370:	80 91 4a 05 	lds	r24, 0x054A	; 0x80054a <handleGoToLocal>
			timeout_start(50000); /* 0.5s timeout*/
			gpib_localLockout(is_timedout);
			handleLocalLockout = false;
		}
		
		if (handleGoToLocal)
    1374:	81 11       	cpse	r24, r1
    1376:	89 c1       	rjmp	.+786    	; 0x168a <main+0x4ba>
    1378:	70 92 e9 00 	sts	0x00E9, r7	; 0x8000e9 <__TEXT_REGION_LENGTH__+0x7e00e9>
			 */
			static inline void Endpoint_SelectEndpoint(const uint8_t Address) ATTR_ALWAYS_INLINE;
			static inline void Endpoint_SelectEndpoint(const uint8_t Address)
			{
				#if !defined(CONTROL_ONLY_DEVICE)
					UENUM = (Address & ENDPOINT_EPNUM_MASK);
    137c:	80 91 e8 00 	lds	r24, 0x00E8	; 0x8000e8 <__TEXT_REGION_LENGTH__+0x7e00e8>
			 *  \return Boolean \c true if current endpoint is has received an OUT packet, \c false otherwise.
			 */
			static inline bool Endpoint_IsOUTReceived(void) ATTR_WARN_UNUSED_RESULT ATTR_ALWAYS_INLINE;
			static inline bool Endpoint_IsOUTReceived(void)
			{
				return ((UEINTX & (1 << RXOUTI)) ? true : false);
    1380:	82 ff       	sbrs	r24, 2

	/* Select the Data Out endpoint */
	Endpoint_SelectEndpoint(TMC_OUT_EPADDR);

	/* Abort if no command has been sent from the host */
	if (!(Endpoint_IsOUTReceived()))
    1382:	19 c0       	rjmp	.+50     	; 0x13b6 <main+0x1e6>
    1384:	ce 01       	movw	r24, r28
    1386:	8f 57       	subi	r24, 0x7F	; 127
    1388:	9f 4f       	sbci	r25, 0xFF	; 255
    138a:	02 d8       	rcall	.-4092   	; 0x390 <ReadTMCHeader.part.0>
    138c:	88 23       	and	r24, r24
			handleGoToLocal = false;
		}
		

		/* Try to read in a TMC message from the interface, process if one is available */
		if (ReadTMCHeader(&MessageHeader))
    138e:	99 f0       	breq	.+38     	; 0x13b6 <main+0x1e6>
    1390:	cf 57       	subi	r28, 0x7F	; 127
		{
			/* Indicate busy */
			//LEDs_SetAllLEDs(LEDMASK_USB_BUSY);

			switch (MessageHeader.MessageID)
    1392:	df 4f       	sbci	r29, 0xFF	; 255
    1394:	88 81       	ld	r24, Y
    1396:	c1 58       	subi	r28, 0x81	; 129
    1398:	d0 40       	sbci	r29, 0x00	; 0
    139a:	82 30       	cpi	r24, 0x02	; 2
    139c:	09 f4       	brne	.+2      	; 0x13a0 <main+0x1d0>
    139e:	f4 c1       	rjmp	.+1000   	; 0x1788 <main+0x5b8>
    13a0:	80 38       	cpi	r24, 0x80	; 128
    13a2:	09 f4       	brne	.+2      	; 0x13a6 <main+0x1d6>
    13a4:	dc c1       	rjmp	.+952    	; 0x175e <main+0x58e>
    13a6:	81 30       	cpi	r24, 0x01	; 1
    13a8:	09 f4       	brne	.+2      	; 0x13ac <main+0x1dc>
    13aa:	7f c1       	rjmp	.+766    	; 0x16aa <main+0x4da>
    13ac:	80 91 eb 00 	lds	r24, 0x00EB	; 0x8000eb <__TEXT_REGION_LENGTH__+0x7e00eb>
			 *  \ingroup Group_EndpointPacketManagement_AVR8
			 */
			static inline void Endpoint_StallTransaction(void) ATTR_ALWAYS_INLINE;
			static inline void Endpoint_StallTransaction(void)
			{
				UECONX |= (1 << STALLRQ);
    13b0:	80 62       	ori	r24, 0x20	; 32
    13b2:	80 93 eb 00 	sts	0x00EB, r24	; 0x8000eb <__TEXT_REGION_LENGTH__+0x7e00eb>
    13b6:	80 91 47 05 	lds	r24, 0x0547	; 0x800547 <handleRSTB>
			ProcessSentMessage(MessagePayload, curlen, false, lastmessage, TMC_eom && lastmessage, tmc_gpib_write_timedout);
			Endpoint_ClearOUT();
		}
	}
	
	if (handleRSTB)
    13ba:	88 23       	and	r24, r24
    13bc:	49 f1       	breq	.+82     	; 0x1410 <main+0x240>
    13be:	10 92 47 05 	sts	0x0547, r1	; 0x800547 <handleRSTB>
	{
		uint8_t  notdata[2];
		
		handleRSTB = false;
    13c2:	80 91 46 05 	lds	r24, 0x0546	; 0x800546 <RSTB_btag>
		
		notdata[0] = RSTB_btag | 0x80;
    13c6:	80 68       	ori	r24, 0x80	; 128
    13c8:	c3 57       	subi	r28, 0x73	; 115
    13ca:	df 4f       	sbci	r29, 0xFF	; 255
    13cc:	88 83       	st	Y, r24
    13ce:	cd 58       	subi	r28, 0x8D	; 141
    13d0:	d0 40       	sbci	r29, 0x00	; 0
    13d2:	80 91 45 05 	lds	r24, 0x0545	; 0x800545 <RSTB_status>
		notdata[1] = RSTB_status;
    13d6:	c2 57       	subi	r28, 0x72	; 114
    13d8:	df 4f       	sbci	r29, 0xFF	; 255
    13da:	88 83       	st	Y, r24
    13dc:	ce 58       	subi	r28, 0x8E	; 142
    13de:	d0 40       	sbci	r29, 0x00	; 0
    13e0:	21 e0       	ldi	r18, 0x01	; 1
			 */
			static inline void Endpoint_SelectEndpoint(const uint8_t Address) ATTR_ALWAYS_INLINE;
			static inline void Endpoint_SelectEndpoint(const uint8_t Address)
			{
				#if !defined(CONTROL_ONLY_DEVICE)
					UENUM = (Address & ENDPOINT_EPNUM_MASK);
    13e2:	20 93 e9 00 	sts	0x00E9, r18	; 0x8000e9 <__TEXT_REGION_LENGTH__+0x7e00e9>
    13e6:	04 c0       	rjmp	.+8      	; 0x13f0 <main+0x220>
    13e8:	80 91 4e 05 	lds	r24, 0x054E	; 0x80054e <IsTMCBulkINReset>
		Endpoint_SelectEndpoint(TMC_NOTIFICATION_EPADDR);
		while ( Endpoint_Write_Stream_LE(notdata, sizeof(notdata), NULL) ==
				ENDPOINT_RWSTREAM_IncompleteTransfer)
		{
			if (IsTMCBulkINReset)
    13ec:	81 11       	cpse	r24, r1
    13ee:	0b c0       	rjmp	.+22     	; 0x1406 <main+0x236>
    13f0:	40 e0       	ldi	r20, 0x00	; 0
		handleRSTB = false;
		
		notdata[0] = RSTB_btag | 0x80;
		notdata[1] = RSTB_status;
		Endpoint_SelectEndpoint(TMC_NOTIFICATION_EPADDR);
		while ( Endpoint_Write_Stream_LE(notdata, sizeof(notdata), NULL) ==
    13f2:	50 e0       	ldi	r21, 0x00	; 0
    13f4:	62 e0       	ldi	r22, 0x02	; 2
    13f6:	70 e0       	ldi	r23, 0x00	; 0
    13f8:	ce 01       	movw	r24, r28
    13fa:	83 57       	subi	r24, 0x73	; 115
    13fc:	9f 4f       	sbci	r25, 0xFF	; 255
    13fe:	0e 94 c6 15 	call	0x2b8c	; 0x2b8c <Endpoint_Write_Stream_LE>
    1402:	85 30       	cpi	r24, 0x05	; 5
    1404:	89 f3       	breq	.-30     	; 0x13e8 <main+0x218>
    1406:	80 91 e8 00 	lds	r24, 0x00E8	; 0x8000e8 <__TEXT_REGION_LENGTH__+0x7e00e8>
			 */
			static inline void Endpoint_ClearIN(void) ATTR_ALWAYS_INLINE;
			static inline void Endpoint_ClearIN(void)
			{
				#if !defined(CONTROL_ONLY_DEVICE)
					UEINTX &= ~((1 << TXINI) | (1 << FIFOCON));
    140a:	8e 77       	andi	r24, 0x7E	; 126
    140c:	80 93 e8 00 	sts	0x00E8, r24	; 0x8000e8 <__TEXT_REGION_LENGTH__+0x7e00e8>
    1410:	80 91 4d 05 	lds	r24, 0x054D	; 0x80054d <IsTMCBulkOUTReset>
		}
		Endpoint_ClearIN();		
	}
	
	
	if (IsTMCBulkOUTReset || IsTMCBulkINReset)
    1414:	81 11       	cpse	r24, r1
    1416:	04 c0       	rjmp	.+8      	; 0x1420 <main+0x250>
    1418:	80 91 4e 05 	lds	r24, 0x054E	; 0x80054e <IsTMCBulkINReset>
    141c:	88 23       	and	r24, r24
    141e:	a9 f1       	breq	.+106    	; 0x148a <main+0x2ba>
    1420:	70 92 e9 00 	sts	0x00E9, r7	; 0x8000e9 <__TEXT_REGION_LENGTH__+0x7e00e9>
			 */
			static inline void Endpoint_SelectEndpoint(const uint8_t Address) ATTR_ALWAYS_INLINE;
			static inline void Endpoint_SelectEndpoint(const uint8_t Address)
			{
				#if !defined(CONTROL_ONLY_DEVICE)
					UENUM = (Address & ENDPOINT_EPNUM_MASK);
    1424:	80 91 e8 00 	lds	r24, 0x00E8	; 0x8000e8 <__TEXT_REGION_LENGTH__+0x7e00e8>
			 */
			static inline void Endpoint_ClearOUT(void) ATTR_ALWAYS_INLINE;
			static inline void Endpoint_ClearOUT(void)
			{
				#if !defined(CONTROL_ONLY_DEVICE)
					UEINTX &= ~((1 << RXOUTI) | (1 << FIFOCON));
    1428:	8b 77       	andi	r24, 0x7B	; 123
    142a:	80 93 e8 00 	sts	0x00E8, r24	; 0x8000e8 <__TEXT_REGION_LENGTH__+0x7e00e8>
    142e:	80 91 e8 00 	lds	r24, 0x00E8	; 0x8000e8 <__TEXT_REGION_LENGTH__+0x7e00e8>
    1432:	8b 77       	andi	r24, 0x7B	; 123
    1434:	80 93 e8 00 	sts	0x00E8, r24	; 0x8000e8 <__TEXT_REGION_LENGTH__+0x7e00e8>
    1438:	60 92 e9 00 	sts	0x00E9, r6	; 0x8000e9 <__TEXT_REGION_LENGTH__+0x7e00e9>
			 */
			static inline void Endpoint_SelectEndpoint(const uint8_t Address) ATTR_ALWAYS_INLINE;
			static inline void Endpoint_SelectEndpoint(const uint8_t Address)
			{
				#if !defined(CONTROL_ONLY_DEVICE)
					UENUM = (Address & ENDPOINT_EPNUM_MASK);
    143c:	80 91 ee 00 	lds	r24, 0x00EE	; 0x8000ee <__TEXT_REGION_LENGTH__+0x7e00ee>
			 *  \return Total number of busy banks in the selected endpoint.
			 */
			static inline uint8_t Endpoint_GetBusyBanks(void) ATTR_ALWAYS_INLINE ATTR_WARN_UNUSED_RESULT;
			static inline uint8_t Endpoint_GetBusyBanks(void)
			{
				return (UESTA0X & (0x03 << NBUSYBK0));
    1440:	83 70       	andi	r24, 0x03	; 3
			 *
			 *  \ingroup Group_EndpointPacketManagement_AVR8
			 */
			static inline void Endpoint_AbortPendingIN(void)
			{
				while (Endpoint_GetBusyBanks() != 0)
    1442:	69 f0       	breq	.+26     	; 0x145e <main+0x28e>
    1444:	80 91 e8 00 	lds	r24, 0x00E8	; 0x8000e8 <__TEXT_REGION_LENGTH__+0x7e00e8>
				{
					UEINTX |= (1 << RXOUTI);
    1448:	84 60       	ori	r24, 0x04	; 4
    144a:	80 93 e8 00 	sts	0x00E8, r24	; 0x8000e8 <__TEXT_REGION_LENGTH__+0x7e00e8>
    144e:	80 91 e8 00 	lds	r24, 0x00E8	; 0x8000e8 <__TEXT_REGION_LENGTH__+0x7e00e8>
					while (UEINTX & (1 << RXOUTI));
    1452:	82 fd       	sbrc	r24, 2
    1454:	fc cf       	rjmp	.-8      	; 0x144e <main+0x27e>
    1456:	80 91 ee 00 	lds	r24, 0x00EE	; 0x8000ee <__TEXT_REGION_LENGTH__+0x7e00ee>
			 *  \return Total number of busy banks in the selected endpoint.
			 */
			static inline uint8_t Endpoint_GetBusyBanks(void) ATTR_ALWAYS_INLINE ATTR_WARN_UNUSED_RESULT;
			static inline uint8_t Endpoint_GetBusyBanks(void)
			{
				return (UESTA0X & (0x03 << NBUSYBK0));
    145a:	83 70       	andi	r24, 0x03	; 3
			 *
			 *  \ingroup Group_EndpointPacketManagement_AVR8
			 */
			static inline void Endpoint_AbortPendingIN(void)
			{
				while (Endpoint_GetBusyBanks() != 0)
    145c:	99 f7       	brne	.-26     	; 0x1444 <main+0x274>
    145e:	80 91 4c 05 	lds	r24, 0x054C	; 0x80054c <handleSDC>

		Endpoint_SelectEndpoint(TMC_IN_EPADDR);
		Endpoint_AbortPendingIN();

		/* SDC has to be sent before clearing state, because SDC request is stopped in reset states */
		if (handleSDC)
    1462:	88 23       	and	r24, r24
    1464:	89 f0       	breq	.+34     	; 0x1488 <main+0x2b8>
		{
			gpib_ren(1); /* ensure that remote control is enabled */
    1466:	81 e0       	ldi	r24, 0x01	; 1
    1468:	79 d7       	rcall	.+3826   	; 0x235c <gpib_ren>
    146a:	80 92 60 05 	sts	0x0560, r8	; 0x800560 <timeout_val>

uint32_t timeout_val;

void timeout_start(uint32_t timeout)
{
	timeout_val = timeout;
    146e:	90 92 61 05 	sts	0x0561, r9	; 0x800561 <timeout_val+0x1>
    1472:	a0 92 62 05 	sts	0x0562, r10	; 0x800562 <timeout_val+0x2>
    1476:	b0 92 63 05 	sts	0x0563, r11	; 0x800563 <timeout_val+0x3>
		/* SDC has to be sent before clearing state, because SDC request is stopped in reset states */
		if (handleSDC)
		{
			gpib_ren(1); /* ensure that remote control is enabled */
			timeout_start(50000); /* 0.5s timeout*/
			gpib_sdc(gpib_addr, is_timedout);
    147a:	69 e9       	ldi	r22, 0x99	; 153
    147c:	71 e0       	ldi	r23, 0x01	; 1
    147e:	80 91 02 01 	lds	r24, 0x0102	; 0x800102 <gpib_addr>
    1482:	dd d5       	rcall	.+3002   	; 0x203e <gpib_sdc>
			handleSDC = false;
    1484:	10 92 4c 05 	sts	0x054C, r1	; 0x80054c <handleSDC>
		}

		TMC_resetstates();
    1488:	8a de       	rcall	.-748    	; 0x119e <TMC_resetstates>
    148a:	10 92 4e 05 	sts	0x054E, r1	; 0x80054e <IsTMCBulkINReset>
			
	}
	
	/* All pending data has been processed - reset the data abort flags */
	IsTMCBulkINReset  = false;
    148e:	10 92 4d 05 	sts	0x054D, r1	; 0x80054d <IsTMCBulkOUTReset>
	IsTMCBulkOUTReset = false;
    1492:	81 e0       	ldi	r24, 0x01	; 1
	
	transfer_busy = (s_remaining_bytes_receive != 0);
    1494:	40 91 3d 05 	lds	r20, 0x053D	; 0x80053d <s_remaining_bytes_receive>
    1498:	50 91 3e 05 	lds	r21, 0x053E	; 0x80053e <s_remaining_bytes_receive+0x1>
    149c:	60 91 3f 05 	lds	r22, 0x053F	; 0x80053f <s_remaining_bytes_receive+0x2>
    14a0:	70 91 40 05 	lds	r23, 0x0540	; 0x800540 <s_remaining_bytes_receive+0x3>
    14a4:	45 2b       	or	r20, r21
    14a6:	46 2b       	or	r20, r22
    14a8:	47 2b       	or	r20, r23
    14aa:	09 f4       	brne	.+2      	; 0x14ae <main+0x2de>
    14ac:	80 e0       	ldi	r24, 0x00	; 0
    14ae:	80 93 47 01 	sts	0x0147, r24	; 0x800147 <transfer_busy>
    14b2:	1a 99       	sbic	0x03, 2	; 3
	SetGlobalInterruptMask(CurrentGlobalInt);
}

static inline void check_bootloaderEntry(void)
{
	if ( !(PINB & (1<<2)) ) /* check if PB2 is LOW*/
    14b4:	0c cf       	rjmp	.-488    	; 0x12ce <main+0xfe>
    14b6:	0e 94 dc 01 	call	0x3b8	; 0x3b8 <Jump_To_Bootloader>
	{
		Jump_To_Bootloader();
    14ba:	00 93 02 01 	sts	0x0102, r16	; 0x800102 <gpib_addr>
	devicepresent = false;
	addr = gpib_search();
	devicepresent = (addr < 255);
	if (addr >= 255)	/* fallback to GPIB address 1, if no device was found */
		addr = 1;
	gpib_addr = addr; /* set global GPIB address to found address*/
    14be:	9f ef       	ldi	r25, 0xFF	; 255
    14c0:	e1 ee       	ldi	r30, 0xE1	; 225
    14c2:	f4 e0       	ldi	r31, 0x04	; 4
    14c4:	91 50       	subi	r25, 0x01	; 1
    14c6:	e0 40       	sbci	r30, 0x00	; 0
    14c8:	f0 40       	sbci	r31, 0x00	; 0
    14ca:	e1 f7       	brne	.-8      	; 0x14c4 <main+0x2f4>
    14cc:	00 c0       	rjmp	.+0      	; 0x14ce <main+0x2fe>
    14ce:	00 00       	nop
    14d0:	8d 9a       	sbi	0x11, 5	; 17
#ifndef SPEEDTEST_DUMMY_DEVICE
//asdf
	while (!findGpibdevice())
	{
		_delay_ms(100);
		LED(1);
    14d2:	2f ef       	ldi	r18, 0xFF	; 255
    14d4:	33 ed       	ldi	r19, 0xD3	; 211
    14d6:	40 e3       	ldi	r20, 0x30	; 48
    14d8:	21 50       	subi	r18, 0x01	; 1
    14da:	30 40       	sbci	r19, 0x00	; 0
    14dc:	40 40       	sbci	r20, 0x00	; 0
    14de:	e1 f7       	brne	.-8      	; 0x14d8 <main+0x308>
    14e0:	00 c0       	rjmp	.+0      	; 0x14e2 <main+0x312>
    14e2:	00 00       	nop
		_delay_ms(1000);
		LED(0);
    14e4:	8d 98       	cbi	0x11, 5	; 17
		if (!gpib_is_connected()) /* we want to reset here if the device is unplugged */
    14e6:	26 d7       	rcall	.+3660   	; 0x2334 <gpib_is_connected>
    14e8:	88 23       	and	r24, r24
    14ea:	09 f4       	brne	.+2      	; 0x14ee <main+0x31e>
    14ec:	6c c0       	rjmp	.+216    	; 0x15c6 <main+0x3f6>
    14ee:	1a 99       	sbic	0x03, 2	; 3
	SetGlobalInterruptMask(CurrentGlobalInt);
}

static inline void check_bootloaderEntry(void)
{
	if ( !(PINB & (1<<2)) ) /* check if PB2 is LOW*/
    14f0:	b9 ce       	rjmp	.-654    	; 0x1264 <main+0x94>
    14f2:	e1 cf       	rjmp	.-62     	; 0x14b6 <main+0x2e6>
    14f4:	13 30       	cpi	r17, 0x03	; 3
	uint8_t autoid = eeprom_read_byte((const uint8_t *)104);
	if ( (autoid >= 0x02) && (autoid <= 0x04) ) // check if SLOW AUTOID mode is activated
	{ // yes, it is active, so wait 10 seconds
		uint8_t seconds;
		seconds = 5;
		if (autoid == 0x03)
    14f6:	09 f4       	brne	.+2      	; 0x14fa <main+0x32a>
    14f8:	64 c0       	rjmp	.+200    	; 0x15c2 <main+0x3f2>
    14fa:	14 30       	cpi	r17, 0x04	; 4
			seconds = 15;
		if (autoid == 0x04)
    14fc:	09 f4       	brne	.+2      	; 0x1500 <main+0x330>
    14fe:	5f c0       	rjmp	.+190    	; 0x15be <main+0x3ee>
    1500:	95 e0       	ldi	r25, 0x05	; 5
	
	uint8_t autoid = eeprom_read_byte((const uint8_t *)104);
	if ( (autoid >= 0x02) && (autoid <= 0x04) ) // check if SLOW AUTOID mode is activated
	{ // yes, it is active, so wait 10 seconds
		uint8_t seconds;
		seconds = 5;
    1502:	80 e0       	ldi	r24, 0x00	; 0
		if (autoid == 0x03)
			seconds = 15;
		if (autoid == 0x04)
			seconds = 30;
		for (uint8_t i=0; i<seconds; i++)
    1504:	ff ef       	ldi	r31, 0xFF	; 255
    1506:	23 ed       	ldi	r18, 0xD3	; 211
    1508:	30 e3       	ldi	r19, 0x30	; 48
    150a:	f1 50       	subi	r31, 0x01	; 1
    150c:	20 40       	sbci	r18, 0x00	; 0
    150e:	30 40       	sbci	r19, 0x00	; 0
    1510:	e1 f7       	brne	.-8      	; 0x150a <main+0x33a>
    1512:	00 c0       	rjmp	.+0      	; 0x1514 <main+0x344>
    1514:	00 00       	nop
    1516:	8f 5f       	subi	r24, 0xFF	; 255
    1518:	98 13       	cpse	r25, r24
    151a:	f4 cf       	rjmp	.-24     	; 0x1504 <main+0x334>
    151c:	a2 ce       	rjmp	.-700    	; 0x1262 <main+0x92>
    151e:	70 92 e9 00 	sts	0x00E9, r7	; 0x8000e9 <__TEXT_REGION_LENGTH__+0x7e00e9>
			 */
			static inline void Endpoint_SelectEndpoint(const uint8_t Address) ATTR_ALWAYS_INLINE;
			static inline void Endpoint_SelectEndpoint(const uint8_t Address)
			{
				#if !defined(CONTROL_ONLY_DEVICE)
					UENUM = (Address & ENDPOINT_EPNUM_MASK);
    1522:	80 91 e8 00 	lds	r24, 0x00E8	; 0x8000e8 <__TEXT_REGION_LENGTH__+0x7e00e8>
			 *  \return Boolean \c true if current endpoint is has received an OUT packet, \c false otherwise.
			 */
			static inline bool Endpoint_IsOUTReceived(void) ATTR_WARN_UNUSED_RESULT ATTR_ALWAYS_INLINE;
			static inline bool Endpoint_IsOUTReceived(void)
			{
				return ((UEINTX & (1 << RXOUTI)) ? true : false);
    1526:	82 ff       	sbrs	r24, 2
	{ /* receiving further bytes to be sent over GPIB */
			/* Select the Data Out endpoint */
		Endpoint_SelectEndpoint(TMC_OUT_EPADDR);

		/* Abort if no command has been sent from the host */
		if (Endpoint_IsOUTReceived())
    1528:	46 cf       	rjmp	.-372    	; 0x13b6 <main+0x1e6>
    152a:	10 92 43 05 	sts	0x0543, r1	; 0x800543 <LastTransferLength+0x1>
		{
			LastTransferLength = 0;
    152e:	10 92 42 05 	sts	0x0542, r1	; 0x800542 <LastTransferLength>
    1532:	40 91 3d 05 	lds	r20, 0x053D	; 0x80053d <s_remaining_bytes_receive>
			
			curlen = TMC_IO_EPSIZE;
			if (s_remaining_bytes_receive < TMC_IO_EPSIZE)
    1536:	50 91 3e 05 	lds	r21, 0x053E	; 0x80053e <s_remaining_bytes_receive+0x1>
    153a:	60 91 3f 05 	lds	r22, 0x053F	; 0x80053f <s_remaining_bytes_receive+0x2>
    153e:	70 91 40 05 	lds	r23, 0x0540	; 0x800540 <s_remaining_bytes_receive+0x3>
    1542:	40 34       	cpi	r20, 0x40	; 64
    1544:	51 05       	cpc	r21, r1
    1546:	61 05       	cpc	r22, r1
    1548:	71 05       	cpc	r23, r1
    154a:	b8 f5       	brcc	.+110    	; 0x15ba <main+0x3ea>
    154c:	94 2f       	mov	r25, r20
			{
				curlen = s_remaining_bytes_receive;
    154e:	49 1b       	sub	r20, r25
			}
			
			s_remaining_bytes_receive -= curlen;
    1550:	51 09       	sbc	r21, r1
    1552:	61 09       	sbc	r22, r1
    1554:	71 09       	sbc	r23, r1
    1556:	40 93 3d 05 	sts	0x053D, r20	; 0x80053d <s_remaining_bytes_receive>
    155a:	50 93 3e 05 	sts	0x053E, r21	; 0x80053e <s_remaining_bytes_receive+0x1>
    155e:	60 93 3f 05 	sts	0x053F, r22	; 0x80053f <s_remaining_bytes_receive+0x2>
    1562:	70 93 40 05 	sts	0x0540, r23	; 0x800540 <s_remaining_bytes_receive+0x3>
    1566:	21 e0       	ldi	r18, 0x01	; 1

			
			lastmessage = (s_remaining_bytes_receive==0);
    1568:	41 15       	cp	r20, r1
    156a:	51 05       	cpc	r21, r1
    156c:	61 05       	cpc	r22, r1
    156e:	71 05       	cpc	r23, r1
    1570:	09 f0       	breq	.+2      	; 0x1574 <main+0x3a4>
    1572:	20 e0       	ldi	r18, 0x00	; 0
    1574:	c1 57       	subi	r28, 0x71	; 113
    1576:	df 4f       	sbci	r29, 0xFF	; 255
    1578:	28 83       	st	Y, r18
    157a:	cf 58       	subi	r28, 0x8F	; 143
    157c:	d0 40       	sbci	r29, 0x00	; 0
    157e:	20 93 01 01 	sts	0x0101, r18	; 0x800101 <TMC_LastMessageComplete>
			TMC_LastMessageComplete = lastmessage;
    1582:	80 91 64 05 	lds	r24, 0x0564	; 0x800564 <TMC_eom>
			ProcessSentMessage(MessagePayload, curlen, false, lastmessage, TMC_eom && lastmessage, tmc_gpib_write_timedout);
    1586:	88 23       	and	r24, r24
    1588:	09 f4       	brne	.+2      	; 0x158c <main+0x3bc>
    158a:	4c c0       	rjmp	.+152    	; 0x1624 <main+0x454>
    158c:	81 e0       	ldi	r24, 0x01	; 1
    158e:	45 2b       	or	r20, r21
    1590:	46 2b       	or	r20, r22
    1592:	47 2b       	or	r20, r23
    1594:	09 f0       	breq	.+2      	; 0x1598 <main+0x3c8>
    1596:	46 c0       	rjmp	.+140    	; 0x1624 <main+0x454>
    1598:	08 2f       	mov	r16, r24
    159a:	01 70       	andi	r16, 0x01	; 1
    159c:	88 eb       	ldi	r24, 0xB8	; 184
    159e:	e8 2e       	mov	r14, r24
    15a0:	81 e0       	ldi	r24, 0x01	; 1
    15a2:	f8 2e       	mov	r15, r24
    15a4:	40 e0       	ldi	r20, 0x00	; 0
    15a6:	69 2f       	mov	r22, r25
    15a8:	ce 01       	movw	r24, r28
    15aa:	01 96       	adiw	r24, 0x01	; 1
    15ac:	1a dc       	rcall	.-1996   	; 0xde2 <ProcessSentMessage>
    15ae:	80 91 e8 00 	lds	r24, 0x00E8	; 0x8000e8 <__TEXT_REGION_LENGTH__+0x7e00e8>
			 */
			static inline void Endpoint_ClearOUT(void) ATTR_ALWAYS_INLINE;
			static inline void Endpoint_ClearOUT(void)
			{
				#if !defined(CONTROL_ONLY_DEVICE)
					UEINTX &= ~((1 << RXOUTI) | (1 << FIFOCON));
    15b2:	8b 77       	andi	r24, 0x7B	; 123
    15b4:	80 93 e8 00 	sts	0x00E8, r24	; 0x8000e8 <__TEXT_REGION_LENGTH__+0x7e00e8>
    15b8:	fe ce       	rjmp	.-516    	; 0x13b6 <main+0x1e6>
    15ba:	90 e4       	ldi	r25, 0x40	; 64
		/* Abort if no command has been sent from the host */
		if (Endpoint_IsOUTReceived())
		{
			LastTransferLength = 0;
			
			curlen = TMC_IO_EPSIZE;
    15bc:	c8 cf       	rjmp	.-112    	; 0x154e <main+0x37e>
    15be:	9e e1       	ldi	r25, 0x1E	; 30
		uint8_t seconds;
		seconds = 5;
		if (autoid == 0x03)
			seconds = 15;
		if (autoid == 0x04)
			seconds = 30;
    15c0:	a0 cf       	rjmp	.-192    	; 0x1502 <main+0x332>
    15c2:	9f e0       	ldi	r25, 0x0F	; 15
	if ( (autoid >= 0x02) && (autoid <= 0x04) ) // check if SLOW AUTOID mode is activated
	{ // yes, it is active, so wait 10 seconds
		uint8_t seconds;
		seconds = 5;
		if (autoid == 0x03)
			seconds = 15;
    15c4:	9e cf       	rjmp	.-196    	; 0x1502 <main+0x332>
    15c6:	8d 98       	cbi	0x11, 5	; 17
		LED(1);
		_delay_ms(1000);
		LED(0);
		if (!gpib_is_connected()) /* we want to reset here if the device is unplugged */
		{
			LED(0);	
    15c8:	4f ef       	ldi	r20, 0xFF	; 255
    15ca:	89 e6       	ldi	r24, 0x69	; 105
    15cc:	98 e1       	ldi	r25, 0x18	; 24
    15ce:	41 50       	subi	r20, 0x01	; 1
    15d0:	80 40       	sbci	r24, 0x00	; 0
    15d2:	90 40       	sbci	r25, 0x00	; 0
    15d4:	e1 f7       	brne	.-8      	; 0x15ce <main+0x3fe>
    15d6:	00 c0       	rjmp	.+0      	; 0x15d8 <main+0x408>
    15d8:	00 00       	nop
    15da:	9c e0       	ldi	r25, 0x0C	; 12
				: "r0"
		);
	}
	else
	{
		__asm__ __volatile__ (
    15dc:	88 e1       	ldi	r24, 0x18	; 24
    15de:	0f b6       	in	r0, 0x3f	; 63
    15e0:	f8 94       	cli
    15e2:	a8 95       	wdr
    15e4:	80 93 60 00 	sts	0x0060, r24	; 0x800060 <__TEXT_REGION_LENGTH__+0x7e0060>
    15e8:	0f be       	out	0x3f, r0	; 63
    15ea:	90 93 60 00 	sts	0x0060, r25	; 0x800060 <__TEXT_REGION_LENGTH__+0x7e0060>
    15ee:	ff cf       	rjmp	.-2      	; 0x15ee <main+0x41e>
    15f0:	8d 98       	cbi	0x11, 5	; 17
		TMC_Task(); // this task is 9.42us active when nothing is triggered, the rest takes 3.3us
		check_bootloaderEntry();
		
		if (!gpib_is_connected()) /* check, if gpib is disconnected */
		{ /* when we get here, reset the MCU and disconnect from USB ! It will reconnect once plugged in to GPIB again */
			LED(0);
    15f2:	80 91 e0 00 	lds	r24, 0x00E0	; 0x8000e0 <__TEXT_REGION_LENGTH__+0x7e00e0>
			 *  enumerating the device once attached until \ref USB_Attach() is called.
			 */
			static inline void USB_Detach(void) ATTR_ALWAYS_INLINE;
			static inline void USB_Detach(void)
			{
				UDCON  |=  (1 << DETACH);
    15f6:	81 60       	ori	r24, 0x01	; 1
    15f8:	80 93 e0 00 	sts	0x00E0, r24	; 0x8000e0 <__TEXT_REGION_LENGTH__+0x7e00e0>
    15fc:	3f ef       	ldi	r19, 0xFF	; 255
    15fe:	49 e6       	ldi	r20, 0x69	; 105
    1600:	88 e1       	ldi	r24, 0x18	; 24
    1602:	31 50       	subi	r19, 0x01	; 1
    1604:	40 40       	sbci	r20, 0x00	; 0
    1606:	80 40       	sbci	r24, 0x00	; 0
    1608:	e1 f7       	brne	.-8      	; 0x1602 <main+0x432>
    160a:	00 c0       	rjmp	.+0      	; 0x160c <main+0x43c>
    160c:	00 00       	nop
    160e:	9c e0       	ldi	r25, 0x0C	; 12
    1610:	88 e1       	ldi	r24, 0x18	; 24
    1612:	0f b6       	in	r0, 0x3f	; 63
    1614:	f8 94       	cli
    1616:	a8 95       	wdr
    1618:	80 93 60 00 	sts	0x0060, r24	; 0x800060 <__TEXT_REGION_LENGTH__+0x7e0060>
    161c:	0f be       	out	0x3f, r0	; 63
    161e:	90 93 60 00 	sts	0x0060, r25	; 0x800060 <__TEXT_REGION_LENGTH__+0x7e0060>
    1622:	ff cf       	rjmp	.-2      	; 0x1622 <main+0x452>
			s_remaining_bytes_receive -= curlen;

			
			lastmessage = (s_remaining_bytes_receive==0);
			TMC_LastMessageComplete = lastmessage;
			ProcessSentMessage(MessagePayload, curlen, false, lastmessage, TMC_eom && lastmessage, tmc_gpib_write_timedout);
    1624:	80 e0       	ldi	r24, 0x00	; 0
    1626:	b8 cf       	rjmp	.-144    	; 0x1598 <main+0x3c8>
			}
		}
	}
	else /* user disabled fully automated detection mode */
	{
		TMC_SetInternalSerial(true);
    1628:	81 e0       	ldi	r24, 0x01	; 1
    162a:	0e 94 29 01 	call	0x252	; 0x252 <TMC_SetInternalSerial>
		gpib_ren(false);
    162e:	80 e0       	ldi	r24, 0x00	; 0
    1630:	95 d6       	rcall	.+3370   	; 0x235c <gpib_ren>
    1632:	2f ef       	ldi	r18, 0xFF	; 255
    1634:	31 ee       	ldi	r19, 0xE1	; 225
    1636:	44 e0       	ldi	r20, 0x04	; 4
    1638:	21 50       	subi	r18, 0x01	; 1
    163a:	30 40       	sbci	r19, 0x00	; 0
    163c:	40 40       	sbci	r20, 0x00	; 0
    163e:	e1 f7       	brne	.-8      	; 0x1638 <main+0x468>
    1640:	00 c0       	rjmp	.+0      	; 0x1642 <main+0x472>
		_delay_ms(100);
		gpib_ren(true);
    1642:	00 00       	nop
    1644:	81 e0       	ldi	r24, 0x01	; 1
    1646:	8a d6       	rcall	.+3348   	; 0x235c <gpib_ren>
    1648:	28 ce       	rjmp	.-944    	; 0x129a <main+0xca>
		}

		/* handle actions triggered by control transfer in a synchronous manner here */
		if (handleSDC)
		{
			gpib_ren(1); /* ensure that remote control is enabled */
    164a:	81 e0       	ldi	r24, 0x01	; 1
    164c:	87 d6       	rcall	.+3342   	; 0x235c <gpib_ren>
    164e:	80 92 60 05 	sts	0x0560, r8	; 0x800560 <timeout_val>

uint32_t timeout_val;

void timeout_start(uint32_t timeout)
{
	timeout_val = timeout;
    1652:	90 92 61 05 	sts	0x0561, r9	; 0x800561 <timeout_val+0x1>
    1656:	a0 92 62 05 	sts	0x0562, r10	; 0x800562 <timeout_val+0x2>
    165a:	b0 92 63 05 	sts	0x0563, r11	; 0x800563 <timeout_val+0x3>
		/* handle actions triggered by control transfer in a synchronous manner here */
		if (handleSDC)
		{
			gpib_ren(1); /* ensure that remote control is enabled */
			timeout_start(50000); /* 0.5s timeout*/
			gpib_sdc(gpib_addr, is_timedout);
    165e:	69 e9       	ldi	r22, 0x99	; 153
    1660:	71 e0       	ldi	r23, 0x01	; 1
    1662:	80 91 02 01 	lds	r24, 0x0102	; 0x800102 <gpib_addr>
    1666:	eb d4       	rcall	.+2518   	; 0x203e <gpib_sdc>
    1668:	10 92 4c 05 	sts	0x054C, r1	; 0x80054c <handleSDC>
			handleSDC = false;
    166c:	7d ce       	rjmp	.-774    	; 0x1368 <main+0x198>

uint32_t timeout_val;

void timeout_start(uint32_t timeout)
{
	timeout_val = timeout;
    166e:	80 92 60 05 	sts	0x0560, r8	; 0x800560 <timeout_val>
    1672:	90 92 61 05 	sts	0x0561, r9	; 0x800561 <timeout_val+0x1>
    1676:	a0 92 62 05 	sts	0x0562, r10	; 0x800562 <timeout_val+0x2>
    167a:	b0 92 63 05 	sts	0x0563, r11	; 0x800563 <timeout_val+0x3>
		}
		
		if (handleLocalLockout)
		{
			timeout_start(50000); /* 0.5s timeout*/
			gpib_localLockout(is_timedout);
    167e:	89 e9       	ldi	r24, 0x99	; 153
    1680:	91 e0       	ldi	r25, 0x01	; 1
    1682:	96 d2       	rcall	.+1324   	; 0x1bb0 <gpib_localLockout>
    1684:	10 92 4b 05 	sts	0x054B, r1	; 0x80054b <handleLocalLockout>
			handleLocalLockout = false;
    1688:	73 ce       	rjmp	.-794    	; 0x1370 <main+0x1a0>

uint32_t timeout_val;

void timeout_start(uint32_t timeout)
{
	timeout_val = timeout;
    168a:	80 92 60 05 	sts	0x0560, r8	; 0x800560 <timeout_val>
    168e:	90 92 61 05 	sts	0x0561, r9	; 0x800561 <timeout_val+0x1>
    1692:	a0 92 62 05 	sts	0x0562, r10	; 0x800562 <timeout_val+0x2>
    1696:	b0 92 63 05 	sts	0x0563, r11	; 0x800563 <timeout_val+0x3>
		}
		
		if (handleGoToLocal)
		{
			timeout_start(50000); /* 0.5s timeout*/
			gpib_gotoLocal(gpib_addr, is_timedout);
    169a:	69 e9       	ldi	r22, 0x99	; 153
    169c:	71 e0       	ldi	r23, 0x01	; 1
    169e:	80 91 02 01 	lds	r24, 0x0102	; 0x800102 <gpib_addr>
    16a2:	40 d4       	rcall	.+2176   	; 0x1f24 <gpib_gotoLocal>
    16a4:	10 92 4a 05 	sts	0x054A, r1	; 0x80054a <handleGoToLocal>
			handleGoToLocal = false;
    16a8:	67 ce       	rjmp	.-818    	; 0x1378 <main+0x1a8>
    16aa:	cb 57       	subi	r28, 0x7B	; 123
					timeout_start(50000); /* 0.5s timeout*/
					gpib_trigger(gpib_addr, is_timedout);
					Endpoint_ClearOUT();					
					break;
				case TMC_MESSAGEID_DEV_DEP_MSG_OUT:
					s_remaining_bytes_receive = MessageHeader.TransferSize;
    16ac:	df 4f       	sbci	r29, 0xFF	; 255
    16ae:	48 81       	ld	r20, Y
    16b0:	59 81       	ldd	r21, Y+1	; 0x01
    16b2:	6a 81       	ldd	r22, Y+2	; 0x02
    16b4:	7b 81       	ldd	r23, Y+3	; 0x03
    16b6:	c5 58       	subi	r28, 0x85	; 133
    16b8:	d0 40       	sbci	r29, 0x00	; 0
    16ba:	8a 01       	movw	r16, r20
					
					curlen = MIN(TMC_IO_EPSIZE-sizeof(TMC_MessageHeader_t), MessageHeader.TransferSize);
    16bc:	9b 01       	movw	r18, r22
    16be:	45 33       	cpi	r20, 0x35	; 53
    16c0:	51 05       	cpc	r21, r1
    16c2:	61 05       	cpc	r22, r1
    16c4:	71 05       	cpc	r23, r1
    16c6:	20 f0       	brcs	.+8      	; 0x16d0 <main+0x500>
    16c8:	04 e3       	ldi	r16, 0x34	; 52
    16ca:	10 e0       	ldi	r17, 0x00	; 0
    16cc:	20 e0       	ldi	r18, 0x00	; 0
    16ce:	30 e0       	ldi	r19, 0x00	; 0
    16d0:	90 2f       	mov	r25, r16
    16d2:	40 1b       	sub	r20, r16

					s_remaining_bytes_receive -= curlen;
    16d4:	51 0b       	sbc	r21, r17
    16d6:	62 0b       	sbc	r22, r18
    16d8:	73 0b       	sbc	r23, r19
    16da:	40 93 3d 05 	sts	0x053D, r20	; 0x80053d <s_remaining_bytes_receive>
    16de:	50 93 3e 05 	sts	0x053E, r21	; 0x80053e <s_remaining_bytes_receive+0x1>
    16e2:	60 93 3f 05 	sts	0x053F, r22	; 0x80053f <s_remaining_bytes_receive+0x2>
    16e6:	70 93 40 05 	sts	0x0540, r23	; 0x800540 <s_remaining_bytes_receive+0x3>
    16ea:	c7 57       	subi	r28, 0x77	; 119
					
					TMC_eom = (MessageHeader.MessageIDSpecific.DeviceOUT.LastMessageTransaction != 0);
    16ec:	df 4f       	sbci	r29, 0xFF	; 255
    16ee:	88 81       	ld	r24, Y
    16f0:	c9 58       	subi	r28, 0x89	; 137
    16f2:	d0 40       	sbci	r29, 0x00	; 0
    16f4:	21 e0       	ldi	r18, 0x01	; 1
    16f6:	81 11       	cpse	r24, r1
    16f8:	01 c0       	rjmp	.+2      	; 0x16fc <main+0x52c>
    16fa:	20 e0       	ldi	r18, 0x00	; 0
    16fc:	20 93 64 05 	sts	0x0564, r18	; 0x800564 <TMC_eom>
    1700:	21 e0       	ldi	r18, 0x01	; 1
					lastmessage =  (s_remaining_bytes_receive==0);
    1702:	41 15       	cp	r20, r1
    1704:	51 05       	cpc	r21, r1
    1706:	61 05       	cpc	r22, r1
    1708:	71 05       	cpc	r23, r1
    170a:	09 f0       	breq	.+2      	; 0x170e <main+0x53e>
    170c:	20 e0       	ldi	r18, 0x00	; 0
    170e:	c1 57       	subi	r28, 0x71	; 113
    1710:	df 4f       	sbci	r29, 0xFF	; 255
    1712:	28 83       	st	Y, r18
    1714:	cf 58       	subi	r28, 0x8F	; 143
    1716:	d0 40       	sbci	r29, 0x00	; 0
    1718:	88 23       	and	r24, r24
					ProcessSentMessage(MessagePayload, curlen, TMC_LastMessageComplete, lastmessage, TMC_eom && lastmessage, tmc_gpib_write_timedout);
    171a:	29 f0       	breq	.+10     	; 0x1726 <main+0x556>
    171c:	81 e0       	ldi	r24, 0x01	; 1
    171e:	45 2b       	or	r20, r21
    1720:	46 2b       	or	r20, r22
    1722:	47 2b       	or	r20, r23
    1724:	09 f0       	breq	.+2      	; 0x1728 <main+0x558>
    1726:	80 e0       	ldi	r24, 0x00	; 0
    1728:	08 2f       	mov	r16, r24
    172a:	01 70       	andi	r16, 0x01	; 1
    172c:	58 eb       	ldi	r21, 0xB8	; 184
    172e:	e5 2e       	mov	r14, r21
    1730:	51 e0       	ldi	r21, 0x01	; 1
    1732:	f5 2e       	mov	r15, r21
    1734:	40 91 01 01 	lds	r20, 0x0101	; 0x800101 <TMC_LastMessageComplete>
    1738:	69 2f       	mov	r22, r25
    173a:	ce 01       	movw	r24, r28
    173c:	01 96       	adiw	r24, 0x01	; 1
    173e:	51 db       	rcall	.-2398   	; 0xde2 <ProcessSentMessage>
    1740:	70 92 e9 00 	sts	0x00E9, r7	; 0x8000e9 <__TEXT_REGION_LENGTH__+0x7e00e9>
    1744:	80 91 e8 00 	lds	r24, 0x00E8	; 0x8000e8 <__TEXT_REGION_LENGTH__+0x7e00e8>
    1748:	8b 77       	andi	r24, 0x7B	; 123
    174a:	80 93 e8 00 	sts	0x00E8, r24	; 0x8000e8 <__TEXT_REGION_LENGTH__+0x7e00e8>
					
					/* Select the Data Out endpoint, this has to be done because the timeout function cal select the control endpoint */
					Endpoint_SelectEndpoint(TMC_OUT_EPADDR);
					Endpoint_ClearOUT();
					
					TMC_LastMessageComplete = lastmessage;
    174e:	c1 57       	subi	r28, 0x71	; 113
    1750:	df 4f       	sbci	r29, 0xFF	; 255
    1752:	88 81       	ld	r24, Y
    1754:	cf 58       	subi	r28, 0x8F	; 143
    1756:	d0 40       	sbci	r29, 0x00	; 0
    1758:	80 93 01 01 	sts	0x0101, r24	; 0x800101 <TMC_LastMessageComplete>
			//LEDs_SetAllLEDs(LEDMASK_USB_BUSY);

			switch (MessageHeader.MessageID)
			{
				case TMC_MESSAGEID_TRIGGER:
					gpib_ren(1); /* ensure that remote control is enabled */
    175c:	2c ce       	rjmp	.-936    	; 0x13b6 <main+0x1e6>
    175e:	81 e0       	ldi	r24, 0x01	; 1
    1760:	fd d5       	rcall	.+3066   	; 0x235c <gpib_ren>

uint32_t timeout_val;

void timeout_start(uint32_t timeout)
{
	timeout_val = timeout;
    1762:	80 92 60 05 	sts	0x0560, r8	; 0x800560 <timeout_val>
    1766:	90 92 61 05 	sts	0x0561, r9	; 0x800561 <timeout_val+0x1>
    176a:	a0 92 62 05 	sts	0x0562, r10	; 0x800562 <timeout_val+0x2>
    176e:	b0 92 63 05 	sts	0x0563, r11	; 0x800563 <timeout_val+0x3>
			switch (MessageHeader.MessageID)
			{
				case TMC_MESSAGEID_TRIGGER:
					gpib_ren(1); /* ensure that remote control is enabled */
					timeout_start(50000); /* 0.5s timeout*/
					gpib_trigger(gpib_addr, is_timedout);
    1772:	69 e9       	ldi	r22, 0x99	; 153
    1774:	71 e0       	ldi	r23, 0x01	; 1
    1776:	80 91 02 01 	lds	r24, 0x0102	; 0x800102 <gpib_addr>
    177a:	5d d3       	rcall	.+1722   	; 0x1e36 <gpib_trigger>
    177c:	80 91 e8 00 	lds	r24, 0x00E8	; 0x8000e8 <__TEXT_REGION_LENGTH__+0x7e00e8>
    1780:	8b 77       	andi	r24, 0x7B	; 123
    1782:	80 93 e8 00 	sts	0x00E8, r24	; 0x8000e8 <__TEXT_REGION_LENGTH__+0x7e00e8>
    1786:	17 ce       	rjmp	.-978    	; 0x13b6 <main+0x1e6>
    1788:	80 91 e8 00 	lds	r24, 0x00E8	; 0x8000e8 <__TEXT_REGION_LENGTH__+0x7e00e8>
    178c:	8b 77       	andi	r24, 0x7B	; 123
    178e:	80 93 e8 00 	sts	0x00E8, r24	; 0x8000e8 <__TEXT_REGION_LENGTH__+0x7e00e8>
    1792:	cb 57       	subi	r28, 0x7B	; 123
					break;
				case TMC_MESSAGEID_DEV_DEP_MSG_IN:
					Endpoint_ClearOUT();
					
					curlen16 = sizeof(readbuffer);// -1;
					if (curlen16 > MessageHeader.TransferSize)
    1794:	df 4f       	sbci	r29, 0xFF	; 255
    1796:	48 81       	ld	r20, Y
    1798:	59 81       	ldd	r21, Y+1	; 0x01
    179a:	6a 81       	ldd	r22, Y+2	; 0x02
    179c:	7b 81       	ldd	r23, Y+3	; 0x03
    179e:	c5 58       	subi	r28, 0x85	; 133
    17a0:	d0 40       	sbci	r29, 0x00	; 0
    17a2:	44 3f       	cpi	r20, 0xF4	; 244
    17a4:	f3 e0       	ldi	r31, 0x03	; 3
    17a6:	5f 07       	cpc	r21, r31
    17a8:	61 05       	cpc	r22, r1
    17aa:	71 05       	cpc	r23, r1
    17ac:	08 f0       	brcs	.+2      	; 0x17b0 <main+0x5e0>
    17ae:	fa c0       	rjmp	.+500    	; 0x19a4 <main+0x7d4>
    17b0:	ca 01       	movw	r24, r20
						curlen16 = MessageHeader.TransferSize;
    17b2:	f0 90 44 01 	lds	r15, 0x0144	; 0x800144 <internal_response_buffer_len>
					
					/* Check if a response from an internal query is in the buffer */
					if (internal_response_buffer_len) 
    17b6:	ff 20       	and	r15, r15
    17b8:	09 f4       	brne	.+2      	; 0x17bc <main+0x5ec>
    17ba:	de c0       	rjmp	.+444    	; 0x1978 <main+0x7a8>
    17bc:	e0 90 45 01 	lds	r14, 0x0145	; 0x800145 <internal_response_buffer_rpos>
					{ // internal response present
						// Add response to buffers... This might look too complicated, but handles also partial reads properly (e.g. responses could be read byte by byte)
						curlen16 = internal_response_buffer_len-internal_response_buffer_rpos; // count of unsent bytes from internal response buffer
    17c0:	8e 2d       	mov	r24, r14
    17c2:	90 e0       	ldi	r25, 0x00	; 0
    17c4:	0f 2d       	mov	r16, r15
    17c6:	10 e0       	ldi	r17, 0x00	; 0
    17c8:	08 1b       	sub	r16, r24
    17ca:	19 0b       	sbc	r17, r25
    17cc:	18 01       	movw	r2, r16
						if (curlen16 > MessageHeader.TransferSize)
    17ce:	41 2c       	mov	r4, r1
    17d0:	51 2c       	mov	r5, r1
    17d2:	42 15       	cp	r20, r2
    17d4:	53 05       	cpc	r21, r3
    17d6:	64 05       	cpc	r22, r4
    17d8:	75 05       	cpc	r23, r5
    17da:	20 f4       	brcc	.+8      	; 0x17e4 <main+0x614>
    17dc:	8a 01       	movw	r16, r20
							curlen16 = MessageHeader.TransferSize;
    17de:	1a 01       	movw	r2, r20
    17e0:	41 2c       	mov	r4, r1
    17e2:	51 2c       	mov	r5, r1
    17e4:	cb 57       	subi	r28, 0x7B	; 123
						
						MessageHeader.TransferSize = curlen16;
    17e6:	df 4f       	sbci	r29, 0xFF	; 255
    17e8:	28 82       	st	Y, r2
    17ea:	39 82       	std	Y+1, r3	; 0x01
    17ec:	4a 82       	std	Y+2, r4	; 0x02
    17ee:	5b 82       	std	Y+3, r5	; 0x03
    17f0:	c5 58       	subi	r28, 0x85	; 133
    17f2:	d0 40       	sbci	r29, 0x00	; 0
    17f4:	bc 01       	movw	r22, r24
						memcpy(readbuffer, &(internal_response_buffer[internal_response_buffer_rpos]), curlen16);
    17f6:	68 5a       	subi	r22, 0xA8	; 168
    17f8:	7a 4f       	sbci	r23, 0xFA	; 250
    17fa:	a8 01       	movw	r20, r16
    17fc:	89 e4       	ldi	r24, 0x49	; 73
    17fe:	91 e0       	ldi	r25, 0x01	; 1
    1800:	0e 94 6e 1a 	call	0x34dc	; 0x34dc <memcpy>
    1804:	0e 0d       	add	r16, r14
						
						internal_response_buffer_rpos += curlen16;
    1806:	00 93 45 01 	sts	0x0145, r16	; 0x800145 <internal_response_buffer_rpos>
    180a:	81 e0       	ldi	r24, 0x01	; 1
						lastmessage = (internal_response_buffer_rpos >= internal_response_buffer_len);
    180c:	0f 15       	cp	r16, r15
    180e:	08 f4       	brcc	.+2      	; 0x1812 <main+0x642>
    1810:	80 e0       	ldi	r24, 0x00	; 0
    1812:	c1 57       	subi	r28, 0x71	; 113
    1814:	df 4f       	sbci	r29, 0xFF	; 255
    1816:	88 83       	st	Y, r24
    1818:	cf 58       	subi	r28, 0x8F	; 143
    181a:	d0 40       	sbci	r29, 0x00	; 0
    181c:	0f 15       	cp	r16, r15
						if (lastmessage)
    181e:	20 f0       	brcs	.+8      	; 0x1828 <main+0x658>
    1820:	10 92 44 01 	sts	0x0144, r1	; 0x800144 <internal_response_buffer_len>
						{
							internal_response_buffer_len = 0; // Mark internal response as "sent"
    1824:	10 92 45 01 	sts	0x0145, r1	; 0x800145 <internal_response_buffer_rpos>
							internal_response_buffer_rpos = 0;
    1828:	c1 57       	subi	r28, 0x71	; 113
					}
					else
					{ // no internal response present, read from device!
						MessageHeader.TransferSize = GetNextMessage(readbuffer, curlen16, TMC_InLastMessageComplete, &lastmessage, tmc_gpib_read_timedout);
					}
					TMC_InLastMessageComplete = lastmessage;
    182a:	df 4f       	sbci	r29, 0xFF	; 255
    182c:	88 81       	ld	r24, Y
    182e:	cf 58       	subi	r28, 0x8F	; 143
    1830:	d0 40       	sbci	r29, 0x00	; 0
    1832:	80 93 00 01 	sts	0x0100, r24	; 0x800100 <TMC_InLastMessageComplete>
    1836:	c7 57       	subi	r28, 0x77	; 119

					MessageHeader.MessageIDSpecific.DeviceOUT.LastMessageTransaction = lastmessage;
    1838:	df 4f       	sbci	r29, 0xFF	; 255
    183a:	88 83       	st	Y, r24
    183c:	c9 58       	subi	r28, 0x89	; 137
    183e:	d0 40       	sbci	r29, 0x00	; 0
    1840:	80 91 4e 05 	lds	r24, 0x054E	; 0x80054e <IsTMCBulkINReset>
					if (!IsTMCBulkINReset)
    1844:	88 23       	and	r24, r24
    1846:	41 f1       	breq	.+80     	; 0x1898 <main+0x6c8>
    1848:	60 92 e9 00 	sts	0x00E9, r6	; 0x8000e9 <__TEXT_REGION_LENGTH__+0x7e00e9>
			 */
			static inline void Endpoint_SelectEndpoint(const uint8_t Address) ATTR_ALWAYS_INLINE;
			static inline void Endpoint_SelectEndpoint(const uint8_t Address)
			{
				#if !defined(CONTROL_ONLY_DEVICE)
					UENUM = (Address & ENDPOINT_EPNUM_MASK);
    184c:	80 91 e8 00 	lds	r24, 0x00E8	; 0x8000e8 <__TEXT_REGION_LENGTH__+0x7e00e8>
			 */
			static inline void Endpoint_ClearIN(void) ATTR_ALWAYS_INLINE;
			static inline void Endpoint_ClearIN(void)
			{
				#if !defined(CONTROL_ONLY_DEVICE)
					UEINTX &= ~((1 << TXINI) | (1 << FIFOCON));
    1850:	8e 77       	andi	r24, 0x7E	; 126
    1852:	80 93 e8 00 	sts	0x00E8, r24	; 0x8000e8 <__TEXT_REGION_LENGTH__+0x7e00e8>
    1856:	cb 57       	subi	r28, 0x7B	; 123
					/* Also in case of a timeout, the host does not expire a Bulk IN IRP, so we still need to commit an empty endpoint to retire the IRP */
					Endpoint_SelectEndpoint(TMC_IN_EPADDR);
					Endpoint_ClearIN();

					/* commit zero length package in case the last package was exactly the size of the endpoint (Lufa does not handle this) */
					if ( ((MessageHeader.TransferSize + sizeof(TMC_MessageHeader_t)) & (TMC_IO_EPSIZE-1)) == 0)
    1858:	df 4f       	sbci	r29, 0xFF	; 255
    185a:	88 81       	ld	r24, Y
    185c:	99 81       	ldd	r25, Y+1	; 0x01
    185e:	aa 81       	ldd	r26, Y+2	; 0x02
    1860:	bb 81       	ldd	r27, Y+3	; 0x03
    1862:	c5 58       	subi	r28, 0x85	; 133
    1864:	d0 40       	sbci	r29, 0x00	; 0
    1866:	0c 96       	adiw	r24, 0x0c	; 12
    1868:	a1 1d       	adc	r26, r1
    186a:	b1 1d       	adc	r27, r1
    186c:	8f 73       	andi	r24, 0x3F	; 63
    186e:	99 27       	eor	r25, r25
    1870:	aa 27       	eor	r26, r26
    1872:	bb 27       	eor	r27, r27
    1874:	89 2b       	or	r24, r25
    1876:	8a 2b       	or	r24, r26
    1878:	8b 2b       	or	r24, r27
    187a:	39 f4       	brne	.+14     	; 0x188a <main+0x6ba>
					{ 
						Endpoint_WaitUntilReady(); // wait until an endpoint buffer got free
    187c:	0e 94 96 17 	call	0x2f2c	; 0x2f2c <Endpoint_WaitUntilReady>
    1880:	80 91 e8 00 	lds	r24, 0x00E8	; 0x8000e8 <__TEXT_REGION_LENGTH__+0x7e00e8>
    1884:	8e 77       	andi	r24, 0x7E	; 126
    1886:	80 93 e8 00 	sts	0x00E8, r24	; 0x8000e8 <__TEXT_REGION_LENGTH__+0x7e00e8>
						Endpoint_ClearIN();
					}
					
					if (IsTMCBulkINReset)
    188a:	80 91 4e 05 	lds	r24, 0x054E	; 0x80054e <IsTMCBulkINReset>
    188e:	88 23       	and	r24, r24
    1890:	09 f4       	brne	.+2      	; 0x1894 <main+0x6c4>
    1892:	91 cd       	rjmp	.-1246   	; 0x13b6 <main+0x1e6>
					{
						TMC_resetstates();
    1894:	84 dc       	rcall	.-1784   	; 0x119e <TMC_resetstates>
    1896:	8f cd       	rjmp	.-1250   	; 0x13b6 <main+0x1e6>
    1898:	80 91 44 05 	lds	r24, 0x0544	; 0x800544 <CurrentTransferTag>
}

bool WriteTMCHeader(TMC_MessageHeader_t* const MessageHeader)
{
	/* Set the message tag of the command header */
	MessageHeader->Tag        =  CurrentTransferTag;
    189c:	ce 57       	subi	r28, 0x7E	; 126
    189e:	df 4f       	sbci	r29, 0xFF	; 255
    18a0:	88 83       	st	Y, r24
    18a2:	c2 58       	subi	r28, 0x82	; 130
    18a4:	d0 40       	sbci	r29, 0x00	; 0
    18a6:	80 95       	com	r24
	MessageHeader->InverseTag = ~CurrentTransferTag;
    18a8:	cd 57       	subi	r28, 0x7D	; 125
    18aa:	df 4f       	sbci	r29, 0xFF	; 255
    18ac:	88 83       	st	Y, r24
    18ae:	c3 58       	subi	r28, 0x83	; 131
    18b0:	d0 40       	sbci	r29, 0x00	; 0
    18b2:	60 92 e9 00 	sts	0x00E9, r6	; 0x8000e9 <__TEXT_REGION_LENGTH__+0x7e00e9>
			 */
			static inline void Endpoint_SelectEndpoint(const uint8_t Address) ATTR_ALWAYS_INLINE;
			static inline void Endpoint_SelectEndpoint(const uint8_t Address)
			{
				#if !defined(CONTROL_ONLY_DEVICE)
					UENUM = (Address & ENDPOINT_EPNUM_MASK);
    18b6:	0e 94 96 17 	call	0x2f2c	; 0x2f2c <Endpoint_WaitUntilReady>
                            uint16_t Length)
{
	uint8_t* DataStream      = ((uint8_t*)Buffer);
	uint8_t  ErrorCode;

	if ((ErrorCode = Endpoint_WaitUntilReady()))
    18ba:	81 11       	cpse	r24, r1
    18bc:	22 c0       	rjmp	.+68     	; 0x1902 <main+0x732>
    18be:	4c e0       	ldi	r20, 0x0C	; 12
    18c0:	e4 2e       	mov	r14, r20
    18c2:	f1 2c       	mov	r15, r1
    18c4:	8e 01       	movw	r16, r28
    18c6:	0f 57       	subi	r16, 0x7F	; 127
    18c8:	1f 4f       	sbci	r17, 0xFF	; 255
    18ca:	80 91 e8 00 	lds	r24, 0x00E8	; 0x8000e8 <__TEXT_REGION_LENGTH__+0x7e00e8>
			 *          on its direction.
			 */
			static inline bool Endpoint_IsReadWriteAllowed(void) ATTR_WARN_UNUSED_RESULT ATTR_ALWAYS_INLINE;
			static inline bool Endpoint_IsReadWriteAllowed(void)
			{
				return ((UEINTX & (1 << RWAL)) ? true : false);
    18ce:	85 ff       	sbrs	r24, 5
	  return ErrorCode;

	while (Length)
	{
		if (!(Endpoint_IsReadWriteAllowed()))
    18d0:	0c c0       	rjmp	.+24     	; 0x18ea <main+0x71a>
    18d2:	c8 01       	movw	r24, r16
			if ((ErrorCode = Endpoint_WaitUntilReady()))
			  return ErrorCode;
		}
		else
		{
			Endpoint_Write_8(*DataStream++);
    18d4:	01 96       	adiw	r24, 0x01	; 1
    18d6:	f8 01       	movw	r30, r16
    18d8:	20 81       	ld	r18, Z
    18da:	20 93 f1 00 	sts	0x00F1, r18	; 0x8000f1 <__TEXT_REGION_LENGTH__+0x7e00f1>
			 *  \param[in] Data  Data to write into the the currently selected endpoint's FIFO buffer.
			 */
			static inline void Endpoint_Write_8(const uint8_t Data) ATTR_ALWAYS_INLINE;
			static inline void Endpoint_Write_8(const uint8_t Data)
			{
				UEDATX = Data;
    18de:	f1 e0       	ldi	r31, 0x01	; 1
			Length--;
    18e0:	ef 1a       	sub	r14, r31
    18e2:	f1 08       	sbc	r15, r1
    18e4:	71 f0       	breq	.+28     	; 0x1902 <main+0x732>
	uint8_t  ErrorCode;

	if ((ErrorCode = Endpoint_WaitUntilReady()))
	  return ErrorCode;

	while (Length)
    18e6:	8c 01       	movw	r16, r24
	{
		if (!(Endpoint_IsReadWriteAllowed()))
		{
			Endpoint_ClearIN();

			if ((ErrorCode = Endpoint_WaitUntilReady()))
    18e8:	f0 cf       	rjmp	.-32     	; 0x18ca <main+0x6fa>
    18ea:	80 91 e8 00 	lds	r24, 0x00E8	; 0x8000e8 <__TEXT_REGION_LENGTH__+0x7e00e8>
			 */
			static inline void Endpoint_ClearIN(void) ATTR_ALWAYS_INLINE;
			static inline void Endpoint_ClearIN(void)
			{
				#if !defined(CONTROL_ONLY_DEVICE)
					UEINTX &= ~((1 << TXINI) | (1 << FIFOCON));
    18ee:	8e 77       	andi	r24, 0x7E	; 126
    18f0:	80 93 e8 00 	sts	0x00E8, r24	; 0x8000e8 <__TEXT_REGION_LENGTH__+0x7e00e8>
    18f4:	0e 94 96 17 	call	0x2f2c	; 0x2f2c <Endpoint_WaitUntilReady>
    18f8:	81 11       	cpse	r24, r1
    18fa:	03 c0       	rjmp	.+6      	; 0x1902 <main+0x732>
    18fc:	c8 01       	movw	r24, r16
    18fe:	8c 01       	movw	r16, r24
    1900:	e4 cf       	rjmp	.-56     	; 0x18ca <main+0x6fa>
    1902:	80 91 4e 05 	lds	r24, 0x054E	; 0x80054e <IsTMCBulkINReset>

					MessageHeader.MessageIDSpecific.DeviceOUT.LastMessageTransaction = lastmessage;
					if (!IsTMCBulkINReset)
						WriteTMCHeader(&MessageHeader);					

					if (!IsTMCBulkINReset)
    1906:	81 11       	cpse	r24, r1
    1908:	9f cf       	rjmp	.-194    	; 0x1848 <main+0x678>
    190a:	cb 57       	subi	r28, 0x7B	; 123
					{
						Endpoint_Write_Stream_LE_quick(readbuffer, MessageHeader.TransferSize, TMC_IO_EPSIZE-sizeof(TMC_MessageHeader_t), TMC_IO_EPSIZE);
    190c:	df 4f       	sbci	r29, 0xFF	; 255
    190e:	08 81       	ld	r16, Y
    1910:	19 81       	ldd	r17, Y+1	; 0x01
    1912:	c5 58       	subi	r28, 0x85	; 133
    1914:	d0 40       	sbci	r29, 0x00	; 0
    1916:	0e 94 96 17 	call	0x2f2c	; 0x2f2c <Endpoint_WaitUntilReady>
{
	uint8_t* DataStream      = ((uint8_t*)Buffer);
	uint8_t  ErrorCode;
	uint16_t chunklength = firstchunksize;

	if ((ErrorCode = Endpoint_WaitUntilReady()))
    191a:	81 11       	cpse	r24, r1
    191c:	95 cf       	rjmp	.-214    	; 0x1848 <main+0x678>
    191e:	24 e3       	ldi	r18, 0x34	; 52
    1920:	c2 2e       	mov	r12, r18
    1922:	d1 2c       	mov	r13, r1
    1924:	39 e4       	ldi	r19, 0x49	; 73
    1926:	e3 2e       	mov	r14, r19
    1928:	31 e0       	ldi	r19, 0x01	; 1
    192a:	f3 2e       	mov	r15, r19
    192c:	01 15       	cp	r16, r1
	  return ErrorCode;

	while (Length)
    192e:	11 05       	cpc	r17, r1
    1930:	09 f4       	brne	.+2      	; 0x1934 <main+0x764>
    1932:	8a cf       	rjmp	.-236    	; 0x1848 <main+0x678>
    1934:	80 91 e8 00 	lds	r24, 0x00E8	; 0x8000e8 <__TEXT_REGION_LENGTH__+0x7e00e8>
			 *          on its direction.
			 */
			static inline bool Endpoint_IsReadWriteAllowed(void) ATTR_WARN_UNUSED_RESULT ATTR_ALWAYS_INLINE;
			static inline bool Endpoint_IsReadWriteAllowed(void)
			{
				return ((UEINTX & (1 << RWAL)) ? true : false);
    1938:	85 ff       	sbrs	r24, 5
	{
		if (!(Endpoint_IsReadWriteAllowed()))
    193a:	14 c0       	rjmp	.+40     	; 0x1964 <main+0x794>
    193c:	c8 01       	movw	r24, r16
    193e:	c0 16       	cp	r12, r16
    1940:	d1 06       	cpc	r13, r17
    1942:	08 f4       	brcc	.+2      	; 0x1946 <main+0x776>
    1944:	c6 01       	movw	r24, r12
    1946:	08 1b       	sub	r16, r24
		}
		else
		{
			if (chunklength > Length)
				chunklength = Length;
			Length -= chunklength;
    1948:	19 0b       	sbc	r17, r25
    194a:	f7 01       	movw	r30, r14
    194c:	e8 0e       	add	r14, r24
    194e:	f9 1e       	adc	r15, r25
    1950:	81 91       	ld	r24, Z+
			while (chunklength--)
				Endpoint_Write_8(*DataStream++);
    1952:	80 93 f1 00 	sts	0x00F1, r24	; 0x8000f1 <__TEXT_REGION_LENGTH__+0x7e00f1>
			 *  \param[in] Data  Data to write into the the currently selected endpoint's FIFO buffer.
			 */
			static inline void Endpoint_Write_8(const uint8_t Data) ATTR_ALWAYS_INLINE;
			static inline void Endpoint_Write_8(const uint8_t Data)
			{
				UEDATX = Data;
    1956:	ee 16       	cp	r14, r30
		else
		{
			if (chunklength > Length)
				chunklength = Length;
			Length -= chunklength;
			while (chunklength--)
    1958:	ff 06       	cpc	r15, r31
    195a:	d1 f7       	brne	.-12     	; 0x1950 <main+0x780>
    195c:	90 e4       	ldi	r25, 0x40	; 64
				Endpoint_Write_8(*DataStream++);
			chunklength = chunksize;
    195e:	c9 2e       	mov	r12, r25
    1960:	d1 2c       	mov	r13, r1
    1962:	e4 cf       	rjmp	.-56     	; 0x192c <main+0x75c>
    1964:	80 91 e8 00 	lds	r24, 0x00E8	; 0x8000e8 <__TEXT_REGION_LENGTH__+0x7e00e8>
			 */
			static inline void Endpoint_ClearIN(void) ATTR_ALWAYS_INLINE;
			static inline void Endpoint_ClearIN(void)
			{
				#if !defined(CONTROL_ONLY_DEVICE)
					UEINTX &= ~((1 << TXINI) | (1 << FIFOCON));
    1968:	8e 77       	andi	r24, 0x7E	; 126
    196a:	80 93 e8 00 	sts	0x00E8, r24	; 0x8000e8 <__TEXT_REGION_LENGTH__+0x7e00e8>

			#if !defined(INTERRUPT_CONTROL_ENDPOINT)
			//USB_USBTask();
			#endif

			if ((ErrorCode = Endpoint_WaitUntilReady()))
    196e:	0e 94 96 17 	call	0x2f2c	; 0x2f2c <Endpoint_WaitUntilReady>
    1972:	88 23       	and	r24, r24
    1974:	d9 f2       	breq	.-74     	; 0x192c <main+0x75c>
    1976:	68 cf       	rjmp	.-304    	; 0x1848 <main+0x678>
							internal_response_buffer_rpos = 0;
						}
					}
					else
					{ // no internal response present, read from device!
						MessageHeader.TransferSize = GetNextMessage(readbuffer, curlen16, TMC_InLastMessageComplete, &lastmessage, tmc_gpib_read_timedout);
    1978:	00 ec       	ldi	r16, 0xC0	; 192
    197a:	11 e0       	ldi	r17, 0x01	; 1
    197c:	9e 01       	movw	r18, r28
    197e:	21 57       	subi	r18, 0x71	; 113
    1980:	3f 4f       	sbci	r19, 0xFF	; 255
    1982:	40 91 00 01 	lds	r20, 0x0100	; 0x800100 <TMC_InLastMessageComplete>
    1986:	bc 01       	movw	r22, r24
    1988:	89 e4       	ldi	r24, 0x49	; 73
    198a:	91 e0       	ldi	r25, 0x01	; 1
    198c:	41 db       	rcall	.-2430   	; 0x1010 <GetNextMessage>
    198e:	a0 e0       	ldi	r26, 0x00	; 0
    1990:	b0 e0       	ldi	r27, 0x00	; 0
    1992:	cb 57       	subi	r28, 0x7B	; 123
    1994:	df 4f       	sbci	r29, 0xFF	; 255
    1996:	88 83       	st	Y, r24
    1998:	99 83       	std	Y+1, r25	; 0x01
    199a:	aa 83       	std	Y+2, r26	; 0x02
    199c:	bb 83       	std	Y+3, r27	; 0x03
    199e:	c5 58       	subi	r28, 0x85	; 133
    19a0:	d0 40       	sbci	r29, 0x00	; 0
    19a2:	42 cf       	rjmp	.-380    	; 0x1828 <main+0x658>
    19a4:	84 ef       	ldi	r24, 0xF4	; 244
					TMC_LastMessageComplete = lastmessage;
					break;
				case TMC_MESSAGEID_DEV_DEP_MSG_IN:
					Endpoint_ClearOUT();
					
					curlen16 = sizeof(readbuffer);// -1;
    19a6:	93 e0       	ldi	r25, 0x03	; 3
    19a8:	04 cf       	rjmp	.-504    	; 0x17b2 <main+0x5e2>
    19aa:	80 91 65 05 	lds	r24, 0x0565	; 0x800565 <tmc_serial_string>
	if (eeprom_read_byte((const uint8_t *)106) == 0x01) // check if serial string shortening is on
	{
		uint16_t len;
		
		len = (tmc_serial_string.Header.Size - sizeof(USB_Descriptor_Header_t)) >> 1;
		if (len > 20)
    19ae:	90 e0       	ldi	r25, 0x00	; 0
    19b0:	02 97       	sbiw	r24, 0x02	; 2
    19b2:	8a 97       	sbiw	r24, 0x2a	; 42
    19b4:	08 f4       	brcc	.+2      	; 0x19b8 <main+0x7e8>
    19b6:	78 cc       	rjmp	.-1808   	; 0x12a8 <main+0xd8>
    19b8:	8a e2       	ldi	r24, 0x2A	; 42
		{
			len = 20;
			tmc_serial_string.Header.Size = len*2 + sizeof(USB_Descriptor_Header_t);
    19ba:	80 93 65 05 	sts	0x0565, r24	; 0x800565 <tmc_serial_string>
    19be:	74 cc       	rjmp	.-1816   	; 0x12a8 <main+0xd8>
    19c0:	05 e6       	ldi	r16, 0x65	; 101
				eeprom_update_if_changed(1+i, *pdat++);
			}
		}
		else
		{ /* received NO string over GPIB => Check, if the GPIB addr matches the one in eeprom, then report EEProm string! */
			if (prevaddr == gpib_addr)
    19c2:	15 e0       	ldi	r17, 0x05	; 5
    19c4:	81 e0       	ldi	r24, 0x01	; 1

				/* update gpib address and usb string descriptor in eeprom */
				pdat = (void *)&tmc_serial_string;
				for (i=0; i<sizeof(tmc_serial_string); i++)
				{
					*pdat++ = eeprom_read_byte((uint8_t*)(1+i));
    19c6:	90 e0       	ldi	r25, 0x00	; 0
    19c8:	9c 01       	movw	r18, r24
    19ca:	25 56       	subi	r18, 0x65	; 101
    19cc:	35 40       	sbci	r19, 0x05	; 5
    19ce:	79 01       	movw	r14, r18
    19d0:	c7 01       	movw	r24, r14
    19d2:	80 0f       	add	r24, r16
    19d4:	91 1f       	adc	r25, r17
    19d6:	0e 94 77 1a 	call	0x34ee	; 0x34ee <eeprom_read_byte>
    19da:	f8 01       	movw	r30, r16
    19dc:	81 93       	st	Z+, r24
    19de:	8f 01       	movw	r16, r30
    19e0:	f5 e0       	ldi	r31, 0x05	; 5
			{
				uint8_t *pdat, i;

				/* update gpib address and usb string descriptor in eeprom */
				pdat = (void *)&tmc_serial_string;
				for (i=0; i<sizeof(tmc_serial_string); i++)
    19e2:	0b 3c       	cpi	r16, 0xCB	; 203
    19e4:	1f 07       	cpc	r17, r31
    19e6:	a1 f7       	brne	.-24     	; 0x19d0 <main+0x800>
    19e8:	58 cc       	rjmp	.-1872   	; 0x129a <main+0xca>
    19ea:	60 91 02 01 	lds	r22, 0x0102	; 0x800102 <gpib_addr>
		if (identifyGpibDevice())
		{ /* received a string over GPIB => Store it in EEPROM, if it changed */
			uint8_t *pdat, i;
			
			/* update gpib address and usb string descriptor in eeprom */
			eeprom_update_if_changed(0, gpib_addr);
    19ee:	80 e0       	ldi	r24, 0x00	; 0
    19f0:	90 e0       	ldi	r25, 0x00	; 0
    19f2:	0e 94 ce 04 	call	0x99c	; 0x99c <eeprom_update_if_changed>
    19f6:	05 e6       	ldi	r16, 0x65	; 101
    19f8:	15 e0       	ldi	r17, 0x05	; 5
    19fa:	f8 01       	movw	r30, r16
			pdat = (void *)&tmc_serial_string;
			for (i=0; i<sizeof(tmc_serial_string); i++)
			{
				eeprom_update_if_changed(1+i, *pdat++);
    19fc:	61 91       	ld	r22, Z+
    19fe:	8f 01       	movw	r16, r30
    1a00:	cf 01       	movw	r24, r30
    1a02:	85 56       	subi	r24, 0x65	; 101
    1a04:	95 40       	sbci	r25, 0x05	; 5
    1a06:	0e 94 ce 04 	call	0x99c	; 0x99c <eeprom_update_if_changed>
    1a0a:	f5 e0       	ldi	r31, 0x05	; 5
			uint8_t *pdat, i;
			
			/* update gpib address and usb string descriptor in eeprom */
			eeprom_update_if_changed(0, gpib_addr);
			pdat = (void *)&tmc_serial_string;
			for (i=0; i<sizeof(tmc_serial_string); i++)
    1a0c:	0b 3c       	cpi	r16, 0xCB	; 203
    1a0e:	1f 07       	cpc	r17, r31
    1a10:	a1 f7       	brne	.-24     	; 0x19fa <main+0x82a>
    1a12:	43 cc       	rjmp	.-1914   	; 0x129a <main+0xca>

00001a14 <CALLBACK_USB_GetDescriptor>:
	const uint8_t  DescriptorNumber = (wValue & 0xFF);

	const void* Address = NULL;
	uint16_t    Size    = NO_DESCRIPTOR;
	
	*DescriptorMemorySpace = MEMSPACE_FLASH;
    1a14:	f9 01       	movw	r30, r18
    1a16:	10 82       	st	Z, r1

	switch (DescriptorType)
    1a18:	69 2f       	mov	r22, r25
    1a1a:	77 27       	eor	r23, r23
    1a1c:	62 30       	cpi	r22, 0x02	; 2
    1a1e:	71 05       	cpc	r23, r1
    1a20:	49 f1       	breq	.+82     	; 0x1a74 <CALLBACK_USB_GetDescriptor+0x60>
    1a22:	63 30       	cpi	r22, 0x03	; 3
    1a24:	71 05       	cpc	r23, r1
    1a26:	99 f0       	breq	.+38     	; 0x1a4e <CALLBACK_USB_GetDescriptor+0x3a>
    1a28:	61 30       	cpi	r22, 0x01	; 1
    1a2a:	71 05       	cpc	r23, r1
    1a2c:	41 f0       	breq	.+16     	; 0x1a3e <CALLBACK_USB_GetDescriptor+0x2a>
{
	const uint8_t  DescriptorType   = (wValue >> 8);
	const uint8_t  DescriptorNumber = (wValue & 0xFF);

	const void* Address = NULL;
	uint16_t    Size    = NO_DESCRIPTOR;
    1a2e:	80 e0       	ldi	r24, 0x00	; 0
    1a30:	90 e0       	ldi	r25, 0x00	; 0
			                        uint8_t* const DescriptorMemorySpace)
{
	const uint8_t  DescriptorType   = (wValue >> 8);
	const uint8_t  DescriptorNumber = (wValue & 0xFF);

	const void* Address = NULL;
    1a32:	20 e0       	ldi	r18, 0x00	; 0
    1a34:	30 e0       	ldi	r19, 0x00	; 0
					break;
			}
			break;
	}

	*DescriptorAddress = Address;
    1a36:	fa 01       	movw	r30, r20
    1a38:	31 83       	std	Z+1, r19	; 0x01
    1a3a:	20 83       	st	Z, r18
	return Size;
}
    1a3c:	08 95       	ret

	switch (DescriptorType)
	{
		case DTYPE_Device:
			Address = &DeviceDescriptor;
			Size    = sizeof(USB_Descriptor_Device_t);
    1a3e:	82 e1       	ldi	r24, 0x12	; 18
    1a40:	90 e0       	ldi	r25, 0x00	; 0
	*DescriptorMemorySpace = MEMSPACE_FLASH;

	switch (DescriptorType)
	{
		case DTYPE_Device:
			Address = &DeviceDescriptor;
    1a42:	21 e0       	ldi	r18, 0x01	; 1
    1a44:	31 e0       	ldi	r19, 0x01	; 1
					break;
			}
			break;
	}

	*DescriptorAddress = Address;
    1a46:	fa 01       	movw	r30, r20
    1a48:	31 83       	std	Z+1, r19	; 0x01
    1a4a:	20 83       	st	Z, r18
	return Size;
}
    1a4c:	08 95       	ret
		case DTYPE_Configuration:
			Address = &ConfigurationDescriptor;
			Size    = sizeof(USB_Descriptor_Configuration_t);
			break;
		case DTYPE_String:
			switch (DescriptorNumber)
    1a4e:	99 27       	eor	r25, r25
    1a50:	81 30       	cpi	r24, 0x01	; 1
    1a52:	91 05       	cpc	r25, r1
    1a54:	e9 f0       	breq	.+58     	; 0x1a90 <CALLBACK_USB_GetDescriptor+0x7c>
    1a56:	b0 f0       	brcs	.+44     	; 0x1a84 <CALLBACK_USB_GetDescriptor+0x70>
    1a58:	82 30       	cpi	r24, 0x02	; 2
    1a5a:	91 05       	cpc	r25, r1
    1a5c:	f9 f0       	breq	.+62     	; 0x1a9c <CALLBACK_USB_GetDescriptor+0x88>
    1a5e:	03 97       	sbiw	r24, 0x03	; 3
    1a60:	31 f7       	brne	.-52     	; 0x1a2e <CALLBACK_USB_GetDescriptor+0x1a>
					Address = &ProductString;
					Size    = pgm_read_byte(&ProductString.Header.Size);
					break;
				case STRING_ID_Serial:
					Address = &tmc_serial_string;
					Size = tmc_serial_string.Header.Size;
    1a62:	80 91 65 05 	lds	r24, 0x0565	; 0x800565 <tmc_serial_string>
    1a66:	90 e0       	ldi	r25, 0x00	; 0
					*DescriptorMemorySpace = MEMSPACE_RAM;
    1a68:	62 e0       	ldi	r22, 0x02	; 2
    1a6a:	f9 01       	movw	r30, r18
    1a6c:	60 83       	st	Z, r22
				case STRING_ID_Product:
					Address = &ProductString;
					Size    = pgm_read_byte(&ProductString.Header.Size);
					break;
				case STRING_ID_Serial:
					Address = &tmc_serial_string;
    1a6e:	25 e6       	ldi	r18, 0x65	; 101
    1a70:	35 e0       	ldi	r19, 0x05	; 5
					Size = tmc_serial_string.Header.Size;
					*DescriptorMemorySpace = MEMSPACE_RAM;
					break;
    1a72:	e1 cf       	rjmp	.-62     	; 0x1a36 <CALLBACK_USB_GetDescriptor+0x22>
			Address = &DeviceDescriptor;
			Size    = sizeof(USB_Descriptor_Device_t);
			break;
		case DTYPE_Configuration:
			Address = &ConfigurationDescriptor;
			Size    = sizeof(USB_Descriptor_Configuration_t);
    1a74:	87 e2       	ldi	r24, 0x27	; 39
    1a76:	90 e0       	ldi	r25, 0x00	; 0
		case DTYPE_Device:
			Address = &DeviceDescriptor;
			Size    = sizeof(USB_Descriptor_Device_t);
			break;
		case DTYPE_Configuration:
			Address = &ConfigurationDescriptor;
    1a78:	2a ed       	ldi	r18, 0xDA	; 218
    1a7a:	30 e0       	ldi	r19, 0x00	; 0
					break;
			}
			break;
	}

	*DescriptorAddress = Address;
    1a7c:	fa 01       	movw	r30, r20
    1a7e:	31 83       	std	Z+1, r19	; 0x01
    1a80:	20 83       	st	Z, r18
	return Size;
}
    1a82:	08 95       	ret
		case DTYPE_String:
			switch (DescriptorNumber)
			{
				case STRING_ID_Language:
					Address = &LanguageString;
					Size    = pgm_read_byte(&LanguageString.Header.Size);
    1a84:	e6 ed       	ldi	r30, 0xD6	; 214
    1a86:	f0 e0       	ldi	r31, 0x00	; 0
    1a88:	84 91       	lpm	r24, Z
    1a8a:	90 e0       	ldi	r25, 0x00	; 0
			break;
		case DTYPE_String:
			switch (DescriptorNumber)
			{
				case STRING_ID_Language:
					Address = &LanguageString;
    1a8c:	9f 01       	movw	r18, r30
					Size    = pgm_read_byte(&LanguageString.Header.Size);
					break;
    1a8e:	d3 cf       	rjmp	.-90     	; 0x1a36 <CALLBACK_USB_GetDescriptor+0x22>
				case STRING_ID_Manufacturer:
					Address = &ManufacturerString;
					Size    = pgm_read_byte(&ManufacturerString.Header.Size);
    1a90:	ee eb       	ldi	r30, 0xBE	; 190
    1a92:	f0 e0       	ldi	r31, 0x00	; 0
    1a94:	84 91       	lpm	r24, Z
    1a96:	90 e0       	ldi	r25, 0x00	; 0
				case STRING_ID_Language:
					Address = &LanguageString;
					Size    = pgm_read_byte(&LanguageString.Header.Size);
					break;
				case STRING_ID_Manufacturer:
					Address = &ManufacturerString;
    1a98:	9f 01       	movw	r18, r30
					Size    = pgm_read_byte(&ManufacturerString.Header.Size);
					break;
    1a9a:	cd cf       	rjmp	.-102    	; 0x1a36 <CALLBACK_USB_GetDescriptor+0x22>
				case STRING_ID_Product:
					Address = &ProductString;
					Size    = pgm_read_byte(&ProductString.Header.Size);
    1a9c:	ec ea       	ldi	r30, 0xAC	; 172
    1a9e:	f0 e0       	ldi	r31, 0x00	; 0
    1aa0:	84 91       	lpm	r24, Z
    1aa2:	90 e0       	ldi	r25, 0x00	; 0
				case STRING_ID_Manufacturer:
					Address = &ManufacturerString;
					Size    = pgm_read_byte(&ManufacturerString.Header.Size);
					break;
				case STRING_ID_Product:
					Address = &ProductString;
    1aa4:	9f 01       	movw	r18, r30
					Size    = pgm_read_byte(&ProductString.Header.Size);
					break;
    1aa6:	c7 cf       	rjmp	.-114    	; 0x1a36 <CALLBACK_USB_GetDescriptor+0x22>

00001aa8 <is_timedout>:
	#else
		//round up by default
		__ticks_dc = (uint32_t)(ceil(fabs(__tmp)));
	#endif

	__builtin_avr_delay_cycles(__ticks_dc);
    1aa8:	85 e3       	ldi	r24, 0x35	; 53
    1aaa:	8a 95       	dec	r24
    1aac:	f1 f7       	brne	.-4      	; 0x1aaa <is_timedout+0x2>
    1aae:	00 00       	nop
}

static bool is_timedout(void)
{
	_delay_us(10);
	if (timeout_val == 0)
    1ab0:	80 91 52 05 	lds	r24, 0x0552	; 0x800552 <timeout_val>
    1ab4:	90 91 53 05 	lds	r25, 0x0553	; 0x800553 <timeout_val+0x1>
    1ab8:	00 97       	sbiw	r24, 0x00	; 0
    1aba:	39 f0       	breq	.+14     	; 0x1aca <is_timedout+0x22>
		return true;
		
	timeout_val--;
    1abc:	01 97       	sbiw	r24, 0x01	; 1
    1abe:	90 93 53 05 	sts	0x0553, r25	; 0x800553 <timeout_val+0x1>
    1ac2:	80 93 52 05 	sts	0x0552, r24	; 0x800552 <timeout_val>
	return false;
    1ac6:	80 e0       	ldi	r24, 0x00	; 0
    1ac8:	08 95       	ret

static bool is_timedout(void)
{
	_delay_us(10);
	if (timeout_val == 0)
		return true;
    1aca:	81 e0       	ldi	r24, 0x01	; 1
		
	timeout_val--;
	return false;
}
    1acc:	08 95       	ret

00001ace <__vector_23>:
	timer0_100mscounter = 0;
}


ISR (TIMER0_OVF_vect)
{
    1ace:	1f 92       	push	r1
    1ad0:	0f 92       	push	r0
    1ad2:	0f b6       	in	r0, 0x3f	; 63
    1ad4:	0f 92       	push	r0
    1ad6:	11 24       	eor	r1, r1
    1ad8:	8f 93       	push	r24
    1ada:	9f 93       	push	r25
	timer0_div++;
    1adc:	80 91 56 05 	lds	r24, 0x0556	; 0x800556 <timer0_div>
    1ae0:	8f 5f       	subi	r24, 0xFF	; 255
    1ae2:	80 93 56 05 	sts	0x0556, r24	; 0x800556 <timer0_div>
	timer0_ticked = true;
    1ae6:	91 e0       	ldi	r25, 0x01	; 1
    1ae8:	90 93 51 05 	sts	0x0551, r25	; 0x800551 <timer0_ticked>
	if (timer0_div >= 6) /* are 100ms passed? */
    1aec:	86 30       	cpi	r24, 0x06	; 6
    1aee:	98 f0       	brcs	.+38     	; 0x1b16 <__vector_23+0x48>
	{
		timer0_100mscounter++;
    1af0:	80 91 57 05 	lds	r24, 0x0557	; 0x800557 <timer0_100mscounter>
    1af4:	8f 5f       	subi	r24, 0xFF	; 255
    1af6:	80 93 57 05 	sts	0x0557, r24	; 0x800557 <timer0_100mscounter>
		timer0_div = 0;
    1afa:	10 92 56 05 	sts	0x0556, r1	; 0x800556 <timer0_div>
		
		if (!s_gpib_transaction_active) /* only check, if no GPIB transaction is active */
    1afe:	80 91 54 05 	lds	r24, 0x0554	; 0x800554 <s_gpib_transaction_active>
    1b02:	81 11       	cpse	r24, r1
    1b04:	08 c0       	rjmp	.+16     	; 0x1b16 <__vector_23+0x48>
		{
			if ( !(DDRF & (1<<6)) ) /* is ATN line tristated? */
    1b06:	86 99       	sbic	0x10, 6	; 16
    1b08:	0d c0       	rjmp	.+26     	; 0x1b24 <__vector_23+0x56>
			{
				if (!ATN_STATE ) /* is ATN LOW? This can only happen if no GPIB device is connected/powered */
    1b0a:	7e 99       	sbic	0x0f, 6	; 15
    1b0c:	0b c0       	rjmp	.+22     	; 0x1b24 <__vector_23+0x56>
				{
					if (s_gpib_disconnect_counter >= 2)
    1b0e:	80 91 55 05 	lds	r24, 0x0555	; 0x800555 <s_gpib_disconnect_counter>
    1b12:	82 30       	cpi	r24, 0x02	; 2
    1b14:	80 f0       	brcs	.+32     	; 0x1b36 <__vector_23+0x68>
			{
				s_gpib_disconnect_counter = 0;
			}
		}
	}
}
    1b16:	9f 91       	pop	r25
    1b18:	8f 91       	pop	r24
    1b1a:	0f 90       	pop	r0
    1b1c:	0f be       	out	0x3f, r0	; 63
    1b1e:	0f 90       	pop	r0
    1b20:	1f 90       	pop	r1
    1b22:	18 95       	reti
						s_gpib_disconnect_counter++;
					}
				}
				else
				{ /* device is connected */
					s_gpib_disconnect_counter = 0;
    1b24:	10 92 55 05 	sts	0x0555, r1	; 0x800555 <s_gpib_disconnect_counter>
			{
				s_gpib_disconnect_counter = 0;
			}
		}
	}
}
    1b28:	9f 91       	pop	r25
    1b2a:	8f 91       	pop	r24
    1b2c:	0f 90       	pop	r0
    1b2e:	0f be       	out	0x3f, r0	; 63
    1b30:	0f 90       	pop	r0
    1b32:	1f 90       	pop	r1
    1b34:	18 95       	reti
					{ /* after 100-200ms with ATN low, assume, that there is no GPIB device connected */
						s_device_state = GPIB_DEVICE_CONNECTSTATE_DISCONNECTED;
					}
					else
					{
						s_gpib_disconnect_counter++;
    1b36:	8f 5f       	subi	r24, 0xFF	; 255
    1b38:	80 93 55 05 	sts	0x0555, r24	; 0x800555 <s_gpib_disconnect_counter>
    1b3c:	ec cf       	rjmp	.-40     	; 0x1b16 <__vector_23+0x48>

00001b3e <gpib_init>:
 **********************************************************************************************************/

void gpib_init(void)
{
	// PB5 = REN
	DDRD  = 0x00;
    1b3e:	1a b8       	out	0x0a, r1	; 10
	PORTD = 0x00;
    1b40:	1b b8       	out	0x0b, r1	; 11
	PORTB &= ~((1<<4) | (1<<5) | (1<<6));
    1b42:	85 b1       	in	r24, 0x05	; 5
    1b44:	8f 78       	andi	r24, 0x8F	; 143
    1b46:	85 b9       	out	0x05, r24	; 5
	DDRB  = (DDRB & (~((1<<4) | (1<<6)))) | (1<<5);
    1b48:	84 b1       	in	r24, 0x04	; 4
    1b4a:	8f 78       	andi	r24, 0x8F	; 143
    1b4c:	80 62       	ori	r24, 0x20	; 32
    1b4e:	84 b9       	out	0x04, r24	; 4
	PORTC &= ~((1<<6) | (1<<7));
    1b50:	88 b1       	in	r24, 0x08	; 8
    1b52:	8f 73       	andi	r24, 0x3F	; 63
    1b54:	88 b9       	out	0x08, r24	; 8
	DDRC  &= ~((1<<6) | (1<<7));
    1b56:	87 b1       	in	r24, 0x07	; 7
    1b58:	8f 73       	andi	r24, 0x3F	; 63
    1b5a:	87 b9       	out	0x07, r24	; 7
	PORTE &= ~(1<<2);
    1b5c:	72 98       	cbi	0x0e, 2	; 14
	DDRE  &= ~(1<<2);
    1b5e:	6a 98       	cbi	0x0d, 2	; 13
	PORTF &= ~((1<<6) | (1<<7));
    1b60:	81 b3       	in	r24, 0x11	; 17
    1b62:	8f 73       	andi	r24, 0x3F	; 63
    1b64:	81 bb       	out	0x11, r24	; 17
	DDRF  &= ~((1<<6) | (1<<7));
    1b66:	80 b3       	in	r24, 0x10	; 16
    1b68:	8f 73       	andi	r24, 0x3F	; 63
    1b6a:	80 bb       	out	0x10, r24	; 16


	s_gpib_transaction_active = false;
    1b6c:	10 92 54 05 	sts	0x0554, r1	; 0x800554 <s_gpib_transaction_active>
	s_gpib_disconnect_counter = 0;
    1b70:	10 92 55 05 	sts	0x0555, r1	; 0x800555 <s_gpib_disconnect_counter>



void gpib_interface_clear(void)
{
	NRFD_HIGH;
    1b74:	3e 98       	cbi	0x07, 6	; 7
	IFC_LOW; /* interface clear */
    1b76:	6a 9a       	sbi	0x0d, 2	; 13
    1b78:	8f ed       	ldi	r24, 0xDF	; 223
    1b7a:	91 e0       	ldi	r25, 0x01	; 1
    1b7c:	01 97       	sbiw	r24, 0x01	; 1
    1b7e:	f1 f7       	brne	.-4      	; 0x1b7c <gpib_init+0x3e>
    1b80:	00 c0       	rjmp	.+0      	; 0x1b82 <gpib_init+0x44>
    1b82:	00 00       	nop
	_delay_us(120);
	IFC_HIGH; /* interface clear */
    1b84:	6a 98       	cbi	0x0d, 2	; 13
	#else
		//round up by default
		__ticks_dc = (uint32_t)(ceil(fabs(__tmp)));
	#endif

	__builtin_avr_delay_cycles(__ticks_dc);
    1b86:	8f e3       	ldi	r24, 0x3F	; 63
    1b88:	9c e9       	ldi	r25, 0x9C	; 156
    1b8a:	01 97       	sbiw	r24, 0x01	; 1
    1b8c:	f1 f7       	brne	.-4      	; 0x1b8a <gpib_init+0x4c>
    1b8e:	00 c0       	rjmp	.+0      	; 0x1b90 <gpib_init+0x52>
    1b90:	00 00       	nop
	_delay_ms(10);
	s_gpib_transaction_active = false;
    1b92:	10 92 54 05 	sts	0x0554, r1	; 0x800554 <s_gpib_transaction_active>

char s_terminator = '\0'; /* \0 = no termination character - EOI only, other options are '\n' or '\r' */
 
static void timer_init(void)
{
	TCCR0B = 5; // Prescaler 1024 = 15625 Hz
    1b96:	85 e0       	ldi	r24, 0x05	; 5
    1b98:	85 bd       	out	0x25, r24	; 37
	// Enable overflow interrupt
	TIMSK0 |= (1<<TOIE0);
    1b9a:	ee e6       	ldi	r30, 0x6E	; 110
    1b9c:	f0 e0       	ldi	r31, 0x00	; 0
    1b9e:	80 81       	ld	r24, Z
    1ba0:	81 60       	ori	r24, 0x01	; 1
    1ba2:	80 83       	st	Z, r24
	timer0_div = 0;
    1ba4:	10 92 56 05 	sts	0x0556, r1	; 0x800556 <timer0_div>
	timer0_100mscounter = 0;
    1ba8:	10 92 57 05 	sts	0x0557, r1	; 0x800557 <timer0_100mscounter>
    1bac:	08 95       	ret

00001bae <gpib_recover>:
	}
}

void gpib_recover(void)
{
	gpib_init();
    1bae:	c7 cf       	rjmp	.-114    	; 0x1b3e <gpib_init>

00001bb0 <gpib_localLockout>:
	s_gpib_transaction_active = false;		
	return status;
}

bool gpib_localLockout(gpibtimeout_t ptimeoutfunc)
{
    1bb0:	cf 93       	push	r28
    1bb2:	df 93       	push	r29
    1bb4:	ec 01       	movw	r28, r24

	
	if (iscommand)
	{ /* set or reset ATN line. It based on a ticket and these delay times are important. The timing was measured on a commercial GPIB adapter. */
		bool atn_was_high = ATN_OUT_STATE;
		if (atn_was_high)
    1bb6:	86 9b       	sbis	0x10, 6	; 16
    1bb8:	2e c0       	rjmp	.+92     	; 0x1c16 <gpib_localLockout+0x66>
			_delay_us(220);
		ATN_LOW;
    1bba:	86 9a       	sbi	0x10, 6	; 16
		ATN_HIGH;
		if (atn_was_low)
			_delay_us(70);
	}
		
	DAV_HIGH;
    1bbc:	26 98       	cbi	0x04, 6	; 4
	
	
	NRFD_HIGH;
    1bbe:	3e 98       	cbi	0x07, 6	; 7
	NDAC_HIGH;  /* they should be already high, but let's enforce it */
    1bc0:	3f 98       	cbi	0x07, 7	; 7
	

	DDRD = dat;
    1bc2:	81 e1       	ldi	r24, 0x11	; 17
    1bc4:	8a b9       	out	0x0a, r24	; 10
    1bc6:	02 c0       	rjmp	.+4      	; 0x1bcc <gpib_localLockout+0x1c>
	do
	{
		if (timer_ticked() || quickTimeoutPoll) /* the timeout function can consume significant time */
			timedout = ptimeoutfunc();
	}
	while ( (NRFD_STATE == 0) && !timedout); /* wait until ready for data (NRFD to get high) */
    1bc8:	81 11       	cpse	r24, r1
    1bca:	1e c0       	rjmp	.+60     	; 0x1c08 <gpib_localLockout+0x58>
extern volatile bool timer0_ticked; /* flag going high every 100ms - defined in gpib.c */

/* check if 100ms timer ticked. returns true once every 100ms */
static inline bool timer_ticked(void)
{
	bool ticked = timer0_ticked;
    1bcc:	80 91 51 05 	lds	r24, 0x0551	; 0x800551 <timer0_ticked>
	timer0_ticked = false;
    1bd0:	10 92 51 05 	sts	0x0551, r1	; 0x800551 <timer0_ticked>
		
	/* wait until ready for data acceptance (NRFD=H, NDAC=L)*/
	do
	{
		if (timer_ticked() || quickTimeoutPoll) /* the timeout function can consume significant time */
			timedout = ptimeoutfunc();
    1bd4:	fe 01       	movw	r30, r28
    1bd6:	09 95       	icall
	}
	while ( (NRFD_STATE == 0) && !timedout); /* wait until ready for data (NRFD to get high) */
    1bd8:	36 9b       	sbis	0x06, 6	; 6
    1bda:	f6 cf       	rjmp	.-20     	; 0x1bc8 <gpib_localLockout+0x18>

	if (!timedout)
    1bdc:	81 11       	cpse	r24, r1
    1bde:	14 c0       	rjmp	.+40     	; 0x1c08 <gpib_localLockout+0x58>
	{
		DAV_LOW;
    1be0:	26 9a       	sbi	0x04, 6	; 4
    1be2:	02 c0       	rjmp	.+4      	; 0x1be8 <gpib_localLockout+0x38>
		do
		{
			if (timer_ticked() || quickTimeoutPoll)
				timedout = ptimeoutfunc();
		}
		while ( (NDAC_STATE == 0) && !timedout ); /* wait until NDAC gets high*/
    1be4:	81 11       	cpse	r24, r1
    1be6:	0f c0       	rjmp	.+30     	; 0x1c06 <gpib_localLockout+0x56>
extern volatile bool timer0_ticked; /* flag going high every 100ms - defined in gpib.c */

/* check if 100ms timer ticked. returns true once every 100ms */
static inline bool timer_ticked(void)
{
	bool ticked = timer0_ticked;
    1be8:	80 91 51 05 	lds	r24, 0x0551	; 0x800551 <timer0_ticked>
	timer0_ticked = false;
    1bec:	10 92 51 05 	sts	0x0551, r1	; 0x800551 <timer0_ticked>
	{
		DAV_LOW;
		do
		{
			if (timer_ticked() || quickTimeoutPoll)
				timedout = ptimeoutfunc();
    1bf0:	fe 01       	movw	r30, r28
    1bf2:	09 95       	icall
		}
		while ( (NDAC_STATE == 0) && !timedout ); /* wait until NDAC gets high*/
    1bf4:	37 9b       	sbis	0x06, 7	; 6
    1bf6:	f6 cf       	rjmp	.-20     	; 0x1be4 <gpib_localLockout+0x34>
		DAV_HIGH;
    1bf8:	26 98       	cbi	0x04, 6	; 4
	}
	
	DDRD = 0x00; /* release data bus */
    1bfa:	1a b8       	out	0x0a, r1	; 10
	
	if (timedout)
    1bfc:	81 11       	cpse	r24, r1
    1bfe:	05 c0       	rjmp	.+10     	; 0x1c0a <gpib_localLockout+0x5a>

	timedout = gpib_cmd_LLO(ptimeoutfunc);
	if (timedout)
		gpib_recover();
	return timedout;
}
    1c00:	df 91       	pop	r29
    1c02:	cf 91       	pop	r28
    1c04:	08 95       	ret
		{
			if (timer_ticked() || quickTimeoutPoll)
				timedout = ptimeoutfunc();
		}
		while ( (NDAC_STATE == 0) && !timedout ); /* wait until NDAC gets high*/
		DAV_HIGH;
    1c06:	26 98       	cbi	0x04, 6	; 4
	}
	
	DDRD = 0x00; /* release data bus */
    1c08:	1a b8       	out	0x0a, r1	; 10
	}
}

void gpib_recover(void)
{
	gpib_init();
    1c0a:	99 df       	rcall	.-206    	; 0x1b3e <gpib_init>
    1c0c:	98 df       	rcall	.-208    	; 0x1b3e <gpib_init>
    1c0e:	81 e0       	ldi	r24, 0x01	; 1

	timedout = gpib_cmd_LLO(ptimeoutfunc);
	if (timedout)
		gpib_recover();
	return timedout;
}
    1c10:	df 91       	pop	r29
    1c12:	cf 91       	pop	r28
    1c14:	08 95       	ret
	#else
		//round up by default
		__ticks_dc = (uint32_t)(ceil(fabs(__tmp)));
	#endif

	__builtin_avr_delay_cycles(__ticks_dc);
    1c16:	8f e6       	ldi	r24, 0x6F	; 111
    1c18:	93 e0       	ldi	r25, 0x03	; 3
    1c1a:	01 97       	sbiw	r24, 0x01	; 1
    1c1c:	f1 f7       	brne	.-4      	; 0x1c1a <gpib_localLockout+0x6a>
    1c1e:	00 c0       	rjmp	.+0      	; 0x1c20 <gpib_localLockout+0x70>
    1c20:	00 00       	nop
	if (iscommand)
	{ /* set or reset ATN line. It based on a ticket and these delay times are important. The timing was measured on a commercial GPIB adapter. */
		bool atn_was_high = ATN_OUT_STATE;
		if (atn_was_high)
			_delay_us(220);
		ATN_LOW;
    1c22:	86 9a       	sbi	0x10, 6	; 16
    1c24:	e7 e1       	ldi	r30, 0x17	; 23
    1c26:	f1 e0       	ldi	r31, 0x01	; 1
    1c28:	31 97       	sbiw	r30, 0x01	; 1
    1c2a:	f1 f7       	brne	.-4      	; 0x1c28 <gpib_localLockout+0x78>
    1c2c:	00 c0       	rjmp	.+0      	; 0x1c2e <gpib_localLockout+0x7e>
    1c2e:	00 00       	nop
    1c30:	c5 cf       	rjmp	.-118    	; 0x1bbc <gpib_localLockout+0xc>

00001c32 <gpib_cmd_LAG>:
{
	return gpib_tx_quick(dat, iscommand, ptimeoutfunc, true);
}

static bool gpib_cmd_LAG(uint8_t addr, gpibtimeout_t ptimeoutfunc)
{
    1c32:	1f 93       	push	r17
    1c34:	cf 93       	push	r28
    1c36:	df 93       	push	r29
    1c38:	18 2f       	mov	r17, r24
    1c3a:	eb 01       	movw	r28, r22
	bool result;
	result = gpib_tx((addr & 0x1f) | 0x20, true, ptimeoutfunc);
    1c3c:	8f 71       	andi	r24, 0x1F	; 31
    1c3e:	80 62       	ori	r24, 0x20	; 32

	
	if (iscommand)
	{ /* set or reset ATN line. It based on a ticket and these delay times are important. The timing was measured on a commercial GPIB adapter. */
		bool atn_was_high = ATN_OUT_STATE;
		if (atn_was_high)
    1c40:	86 9b       	sbis	0x10, 6	; 16
    1c42:	5c c0       	rjmp	.+184    	; 0x1cfc <gpib_cmd_LAG+0xca>
			_delay_us(220);
		ATN_LOW;
    1c44:	86 9a       	sbi	0x10, 6	; 16
		ATN_HIGH;
		if (atn_was_low)
			_delay_us(70);
	}
		
	DAV_HIGH;
    1c46:	26 98       	cbi	0x04, 6	; 4
	
	
	NRFD_HIGH;
    1c48:	3e 98       	cbi	0x07, 6	; 7
	NDAC_HIGH;  /* they should be already high, but let's enforce it */
    1c4a:	3f 98       	cbi	0x07, 7	; 7
	

	DDRD = dat;
    1c4c:	8a b9       	out	0x0a, r24	; 10
    1c4e:	02 c0       	rjmp	.+4      	; 0x1c54 <gpib_cmd_LAG+0x22>
	do
	{
		if (timer_ticked() || quickTimeoutPoll) /* the timeout function can consume significant time */
			timedout = ptimeoutfunc();
	}
	while ( (NRFD_STATE == 0) && !timedout); /* wait until ready for data (NRFD to get high) */
    1c50:	81 11       	cpse	r24, r1
    1c52:	21 c0       	rjmp	.+66     	; 0x1c96 <gpib_cmd_LAG+0x64>
extern volatile bool timer0_ticked; /* flag going high every 100ms - defined in gpib.c */

/* check if 100ms timer ticked. returns true once every 100ms */
static inline bool timer_ticked(void)
{
	bool ticked = timer0_ticked;
    1c54:	80 91 51 05 	lds	r24, 0x0551	; 0x800551 <timer0_ticked>
	timer0_ticked = false;
    1c58:	10 92 51 05 	sts	0x0551, r1	; 0x800551 <timer0_ticked>
		
	/* wait until ready for data acceptance (NRFD=H, NDAC=L)*/
	do
	{
		if (timer_ticked() || quickTimeoutPoll) /* the timeout function can consume significant time */
			timedout = ptimeoutfunc();
    1c5c:	fe 01       	movw	r30, r28
    1c5e:	09 95       	icall
	}
	while ( (NRFD_STATE == 0) && !timedout); /* wait until ready for data (NRFD to get high) */
    1c60:	36 9b       	sbis	0x06, 6	; 6
    1c62:	f6 cf       	rjmp	.-20     	; 0x1c50 <gpib_cmd_LAG+0x1e>

	if (!timedout)
    1c64:	81 11       	cpse	r24, r1
    1c66:	17 c0       	rjmp	.+46     	; 0x1c96 <gpib_cmd_LAG+0x64>
	{
		DAV_LOW;
    1c68:	26 9a       	sbi	0x04, 6	; 4
    1c6a:	02 c0       	rjmp	.+4      	; 0x1c70 <gpib_cmd_LAG+0x3e>
		do
		{
			if (timer_ticked() || quickTimeoutPoll)
				timedout = ptimeoutfunc();
		}
		while ( (NDAC_STATE == 0) && !timedout ); /* wait until NDAC gets high*/
    1c6c:	81 11       	cpse	r24, r1
    1c6e:	12 c0       	rjmp	.+36     	; 0x1c94 <gpib_cmd_LAG+0x62>
extern volatile bool timer0_ticked; /* flag going high every 100ms - defined in gpib.c */

/* check if 100ms timer ticked. returns true once every 100ms */
static inline bool timer_ticked(void)
{
	bool ticked = timer0_ticked;
    1c70:	80 91 51 05 	lds	r24, 0x0551	; 0x800551 <timer0_ticked>
	timer0_ticked = false;
    1c74:	10 92 51 05 	sts	0x0551, r1	; 0x800551 <timer0_ticked>
	{
		DAV_LOW;
		do
		{
			if (timer_ticked() || quickTimeoutPoll)
				timedout = ptimeoutfunc();
    1c78:	fe 01       	movw	r30, r28
    1c7a:	09 95       	icall
		}
		while ( (NDAC_STATE == 0) && !timedout ); /* wait until NDAC gets high*/
    1c7c:	37 9b       	sbis	0x06, 7	; 6
    1c7e:	f6 cf       	rjmp	.-20     	; 0x1c6c <gpib_cmd_LAG+0x3a>
		DAV_HIGH;
    1c80:	26 98       	cbi	0x04, 6	; 4
	}
	
	DDRD = 0x00; /* release data bus */
    1c82:	1a b8       	out	0x0a, r1	; 10
	
	if (timedout)
    1c84:	81 11       	cpse	r24, r1
    1c86:	08 c0       	rjmp	.+16     	; 0x1c98 <gpib_cmd_LAG+0x66>
	if (addr & 0xe0)
    1c88:	10 7e       	andi	r17, 0xE0	; 224
    1c8a:	51 f4       	brne	.+20     	; 0x1ca0 <gpib_cmd_LAG+0x6e>
	{ /* send a secondary address? */
		result = gpib_tx(0x60, true, ptimeoutfunc);        // SAG (SA0)
	}
	return result;
}
    1c8c:	df 91       	pop	r29
    1c8e:	cf 91       	pop	r28
    1c90:	1f 91       	pop	r17
    1c92:	08 95       	ret
		{
			if (timer_ticked() || quickTimeoutPoll)
				timedout = ptimeoutfunc();
		}
		while ( (NDAC_STATE == 0) && !timedout ); /* wait until NDAC gets high*/
		DAV_HIGH;
    1c94:	26 98       	cbi	0x04, 6	; 4
	}
	
	DDRD = 0x00; /* release data bus */
    1c96:	1a b8       	out	0x0a, r1	; 10
	}
}

void gpib_recover(void)
{
	gpib_init();
    1c98:	52 df       	rcall	.-348    	; 0x1b3e <gpib_init>
    1c9a:	81 e0       	ldi	r24, 0x01	; 1

static bool gpib_cmd_LAG(uint8_t addr, gpibtimeout_t ptimeoutfunc)
{
	bool result;
	result = gpib_tx((addr & 0x1f) | 0x20, true, ptimeoutfunc);
	if (addr & 0xe0)
    1c9c:	10 7e       	andi	r17, 0xE0	; 224
    1c9e:	b1 f3       	breq	.-20     	; 0x1c8c <gpib_cmd_LAG+0x5a>

	
	if (iscommand)
	{ /* set or reset ATN line. It based on a ticket and these delay times are important. The timing was measured on a commercial GPIB adapter. */
		bool atn_was_high = ATN_OUT_STATE;
		if (atn_was_high)
    1ca0:	86 9b       	sbis	0x10, 6	; 16
    1ca2:	3a c0       	rjmp	.+116    	; 0x1d18 <gpib_cmd_LAG+0xe6>
			_delay_us(220);
		ATN_LOW;
    1ca4:	86 9a       	sbi	0x10, 6	; 16
		ATN_HIGH;
		if (atn_was_low)
			_delay_us(70);
	}
		
	DAV_HIGH;
    1ca6:	26 98       	cbi	0x04, 6	; 4
	
	
	NRFD_HIGH;
    1ca8:	3e 98       	cbi	0x07, 6	; 7
	NDAC_HIGH;  /* they should be already high, but let's enforce it */
    1caa:	3f 98       	cbi	0x07, 7	; 7
	

	DDRD = dat;
    1cac:	80 e6       	ldi	r24, 0x60	; 96
    1cae:	8a b9       	out	0x0a, r24	; 10
    1cb0:	02 c0       	rjmp	.+4      	; 0x1cb6 <gpib_cmd_LAG+0x84>
	do
	{
		if (timer_ticked() || quickTimeoutPoll) /* the timeout function can consume significant time */
			timedout = ptimeoutfunc();
	}
	while ( (NRFD_STATE == 0) && !timedout); /* wait until ready for data (NRFD to get high) */
    1cb2:	81 11       	cpse	r24, r1
    1cb4:	1c c0       	rjmp	.+56     	; 0x1cee <gpib_cmd_LAG+0xbc>
extern volatile bool timer0_ticked; /* flag going high every 100ms - defined in gpib.c */

/* check if 100ms timer ticked. returns true once every 100ms */
static inline bool timer_ticked(void)
{
	bool ticked = timer0_ticked;
    1cb6:	80 91 51 05 	lds	r24, 0x0551	; 0x800551 <timer0_ticked>
	timer0_ticked = false;
    1cba:	10 92 51 05 	sts	0x0551, r1	; 0x800551 <timer0_ticked>
		
	/* wait until ready for data acceptance (NRFD=H, NDAC=L)*/
	do
	{
		if (timer_ticked() || quickTimeoutPoll) /* the timeout function can consume significant time */
			timedout = ptimeoutfunc();
    1cbe:	fe 01       	movw	r30, r28
    1cc0:	09 95       	icall
	}
	while ( (NRFD_STATE == 0) && !timedout); /* wait until ready for data (NRFD to get high) */
    1cc2:	36 9b       	sbis	0x06, 6	; 6
    1cc4:	f6 cf       	rjmp	.-20     	; 0x1cb2 <gpib_cmd_LAG+0x80>

	if (!timedout)
    1cc6:	81 11       	cpse	r24, r1
    1cc8:	12 c0       	rjmp	.+36     	; 0x1cee <gpib_cmd_LAG+0xbc>
	{
		DAV_LOW;
    1cca:	26 9a       	sbi	0x04, 6	; 4
    1ccc:	02 c0       	rjmp	.+4      	; 0x1cd2 <gpib_cmd_LAG+0xa0>
		do
		{
			if (timer_ticked() || quickTimeoutPoll)
				timedout = ptimeoutfunc();
		}
		while ( (NDAC_STATE == 0) && !timedout ); /* wait until NDAC gets high*/
    1cce:	81 11       	cpse	r24, r1
    1cd0:	0d c0       	rjmp	.+26     	; 0x1cec <gpib_cmd_LAG+0xba>
extern volatile bool timer0_ticked; /* flag going high every 100ms - defined in gpib.c */

/* check if 100ms timer ticked. returns true once every 100ms */
static inline bool timer_ticked(void)
{
	bool ticked = timer0_ticked;
    1cd2:	80 91 51 05 	lds	r24, 0x0551	; 0x800551 <timer0_ticked>
	timer0_ticked = false;
    1cd6:	10 92 51 05 	sts	0x0551, r1	; 0x800551 <timer0_ticked>
	{
		DAV_LOW;
		do
		{
			if (timer_ticked() || quickTimeoutPoll)
				timedout = ptimeoutfunc();
    1cda:	fe 01       	movw	r30, r28
    1cdc:	09 95       	icall
		}
		while ( (NDAC_STATE == 0) && !timedout ); /* wait until NDAC gets high*/
    1cde:	37 9b       	sbis	0x06, 7	; 6
    1ce0:	f6 cf       	rjmp	.-20     	; 0x1cce <gpib_cmd_LAG+0x9c>
		DAV_HIGH;
    1ce2:	26 98       	cbi	0x04, 6	; 4
	}
	
	DDRD = 0x00; /* release data bus */
    1ce4:	1a b8       	out	0x0a, r1	; 10
	
	if (timedout)
    1ce6:	88 23       	and	r24, r24
    1ce8:	89 f2       	breq	.-94     	; 0x1c8c <gpib_cmd_LAG+0x5a>
    1cea:	02 c0       	rjmp	.+4      	; 0x1cf0 <gpib_cmd_LAG+0xbe>
		{
			if (timer_ticked() || quickTimeoutPoll)
				timedout = ptimeoutfunc();
		}
		while ( (NDAC_STATE == 0) && !timedout ); /* wait until NDAC gets high*/
		DAV_HIGH;
    1cec:	26 98       	cbi	0x04, 6	; 4
	}
}

void gpib_recover(void)
{
	gpib_init();
    1cee:	1a b8       	out	0x0a, r1	; 10
    1cf0:	26 df       	rcall	.-436    	; 0x1b3e <gpib_init>
    1cf2:	81 e0       	ldi	r24, 0x01	; 1
	if (addr & 0xe0)
	{ /* send a secondary address? */
		result = gpib_tx(0x60, true, ptimeoutfunc);        // SAG (SA0)
	}
	return result;
}
    1cf4:	df 91       	pop	r29
    1cf6:	cf 91       	pop	r28
    1cf8:	1f 91       	pop	r17
    1cfa:	08 95       	ret
    1cfc:	ef e6       	ldi	r30, 0x6F	; 111
    1cfe:	f3 e0       	ldi	r31, 0x03	; 3
    1d00:	31 97       	sbiw	r30, 0x01	; 1
    1d02:	f1 f7       	brne	.-4      	; 0x1d00 <gpib_cmd_LAG+0xce>
    1d04:	00 c0       	rjmp	.+0      	; 0x1d06 <gpib_cmd_LAG+0xd4>
    1d06:	00 00       	nop
	if (iscommand)
	{ /* set or reset ATN line. It based on a ticket and these delay times are important. The timing was measured on a commercial GPIB adapter. */
		bool atn_was_high = ATN_OUT_STATE;
		if (atn_was_high)
			_delay_us(220);
		ATN_LOW;
    1d08:	86 9a       	sbi	0x10, 6	; 16
    1d0a:	e7 e1       	ldi	r30, 0x17	; 23
    1d0c:	f1 e0       	ldi	r31, 0x01	; 1
    1d0e:	31 97       	sbiw	r30, 0x01	; 1
    1d10:	f1 f7       	brne	.-4      	; 0x1d0e <gpib_cmd_LAG+0xdc>
    1d12:	00 c0       	rjmp	.+0      	; 0x1d14 <gpib_cmd_LAG+0xe2>
    1d14:	00 00       	nop
    1d16:	97 cf       	rjmp	.-210    	; 0x1c46 <gpib_cmd_LAG+0x14>
    1d18:	8f e6       	ldi	r24, 0x6F	; 111
    1d1a:	93 e0       	ldi	r25, 0x03	; 3
    1d1c:	01 97       	sbiw	r24, 0x01	; 1
    1d1e:	f1 f7       	brne	.-4      	; 0x1d1c <gpib_cmd_LAG+0xea>
    1d20:	00 c0       	rjmp	.+0      	; 0x1d22 <gpib_cmd_LAG+0xf0>
    1d22:	00 00       	nop
    1d24:	86 9a       	sbi	0x10, 6	; 16
    1d26:	e7 e1       	ldi	r30, 0x17	; 23
    1d28:	f1 e0       	ldi	r31, 0x01	; 1
    1d2a:	31 97       	sbiw	r30, 0x01	; 1
    1d2c:	f1 f7       	brne	.-4      	; 0x1d2a <gpib_cmd_LAG+0xf8>
    1d2e:	00 c0       	rjmp	.+0      	; 0x1d30 <gpib_cmd_LAG+0xfe>
    1d30:	00 00       	nop
    1d32:	b9 cf       	rjmp	.-142    	; 0x1ca6 <gpib_cmd_LAG+0x74>

00001d34 <gpib_cmd_TAG>:
	return gpib_tx(addr | 0x60, true, ptimeoutfunc);
}


static bool gpib_cmd_TAG(uint8_t addr, gpibtimeout_t ptimeoutfunc)
{
    1d34:	1f 93       	push	r17
    1d36:	cf 93       	push	r28
    1d38:	df 93       	push	r29
    1d3a:	18 2f       	mov	r17, r24
    1d3c:	eb 01       	movw	r28, r22
	bool result;
	result = gpib_tx((addr & 0x1f) | 0x40, true, ptimeoutfunc);
    1d3e:	8f 71       	andi	r24, 0x1F	; 31
    1d40:	80 64       	ori	r24, 0x40	; 64

	
	if (iscommand)
	{ /* set or reset ATN line. It based on a ticket and these delay times are important. The timing was measured on a commercial GPIB adapter. */
		bool atn_was_high = ATN_OUT_STATE;
		if (atn_was_high)
    1d42:	86 9b       	sbis	0x10, 6	; 16
    1d44:	5c c0       	rjmp	.+184    	; 0x1dfe <gpib_cmd_TAG+0xca>
			_delay_us(220);
		ATN_LOW;
    1d46:	86 9a       	sbi	0x10, 6	; 16
		ATN_HIGH;
		if (atn_was_low)
			_delay_us(70);
	}
		
	DAV_HIGH;
    1d48:	26 98       	cbi	0x04, 6	; 4
	
	
	NRFD_HIGH;
    1d4a:	3e 98       	cbi	0x07, 6	; 7
	NDAC_HIGH;  /* they should be already high, but let's enforce it */
    1d4c:	3f 98       	cbi	0x07, 7	; 7
	

	DDRD = dat;
    1d4e:	8a b9       	out	0x0a, r24	; 10
    1d50:	02 c0       	rjmp	.+4      	; 0x1d56 <gpib_cmd_TAG+0x22>
	do
	{
		if (timer_ticked() || quickTimeoutPoll) /* the timeout function can consume significant time */
			timedout = ptimeoutfunc();
	}
	while ( (NRFD_STATE == 0) && !timedout); /* wait until ready for data (NRFD to get high) */
    1d52:	81 11       	cpse	r24, r1
    1d54:	21 c0       	rjmp	.+66     	; 0x1d98 <gpib_cmd_TAG+0x64>
extern volatile bool timer0_ticked; /* flag going high every 100ms - defined in gpib.c */

/* check if 100ms timer ticked. returns true once every 100ms */
static inline bool timer_ticked(void)
{
	bool ticked = timer0_ticked;
    1d56:	80 91 51 05 	lds	r24, 0x0551	; 0x800551 <timer0_ticked>
	timer0_ticked = false;
    1d5a:	10 92 51 05 	sts	0x0551, r1	; 0x800551 <timer0_ticked>
		
	/* wait until ready for data acceptance (NRFD=H, NDAC=L)*/
	do
	{
		if (timer_ticked() || quickTimeoutPoll) /* the timeout function can consume significant time */
			timedout = ptimeoutfunc();
    1d5e:	fe 01       	movw	r30, r28
    1d60:	09 95       	icall
	}
	while ( (NRFD_STATE == 0) && !timedout); /* wait until ready for data (NRFD to get high) */
    1d62:	36 9b       	sbis	0x06, 6	; 6
    1d64:	f6 cf       	rjmp	.-20     	; 0x1d52 <gpib_cmd_TAG+0x1e>

	if (!timedout)
    1d66:	81 11       	cpse	r24, r1
    1d68:	17 c0       	rjmp	.+46     	; 0x1d98 <gpib_cmd_TAG+0x64>
	{
		DAV_LOW;
    1d6a:	26 9a       	sbi	0x04, 6	; 4
    1d6c:	02 c0       	rjmp	.+4      	; 0x1d72 <gpib_cmd_TAG+0x3e>
		do
		{
			if (timer_ticked() || quickTimeoutPoll)
				timedout = ptimeoutfunc();
		}
		while ( (NDAC_STATE == 0) && !timedout ); /* wait until NDAC gets high*/
    1d6e:	81 11       	cpse	r24, r1
    1d70:	12 c0       	rjmp	.+36     	; 0x1d96 <gpib_cmd_TAG+0x62>
extern volatile bool timer0_ticked; /* flag going high every 100ms - defined in gpib.c */

/* check if 100ms timer ticked. returns true once every 100ms */
static inline bool timer_ticked(void)
{
	bool ticked = timer0_ticked;
    1d72:	80 91 51 05 	lds	r24, 0x0551	; 0x800551 <timer0_ticked>
	timer0_ticked = false;
    1d76:	10 92 51 05 	sts	0x0551, r1	; 0x800551 <timer0_ticked>
	{
		DAV_LOW;
		do
		{
			if (timer_ticked() || quickTimeoutPoll)
				timedout = ptimeoutfunc();
    1d7a:	fe 01       	movw	r30, r28
    1d7c:	09 95       	icall
		}
		while ( (NDAC_STATE == 0) && !timedout ); /* wait until NDAC gets high*/
    1d7e:	37 9b       	sbis	0x06, 7	; 6
    1d80:	f6 cf       	rjmp	.-20     	; 0x1d6e <gpib_cmd_TAG+0x3a>
		DAV_HIGH;
    1d82:	26 98       	cbi	0x04, 6	; 4
	}
	
	DDRD = 0x00; /* release data bus */
    1d84:	1a b8       	out	0x0a, r1	; 10
	
	if (timedout)
    1d86:	81 11       	cpse	r24, r1
    1d88:	08 c0       	rjmp	.+16     	; 0x1d9a <gpib_cmd_TAG+0x66>
	if (addr & 0xe0)
    1d8a:	10 7e       	andi	r17, 0xE0	; 224
    1d8c:	51 f4       	brne	.+20     	; 0x1da2 <gpib_cmd_TAG+0x6e>
	{ /* send a secondary address? */
		result = gpib_tx(0x60, true, ptimeoutfunc);        // SAG (SA0)	
	}
	return result;
}
    1d8e:	df 91       	pop	r29
    1d90:	cf 91       	pop	r28
    1d92:	1f 91       	pop	r17
    1d94:	08 95       	ret
		{
			if (timer_ticked() || quickTimeoutPoll)
				timedout = ptimeoutfunc();
		}
		while ( (NDAC_STATE == 0) && !timedout ); /* wait until NDAC gets high*/
		DAV_HIGH;
    1d96:	26 98       	cbi	0x04, 6	; 4
	}
	
	DDRD = 0x00; /* release data bus */
    1d98:	1a b8       	out	0x0a, r1	; 10
	}
}

void gpib_recover(void)
{
	gpib_init();
    1d9a:	d1 de       	rcall	.-606    	; 0x1b3e <gpib_init>
    1d9c:	81 e0       	ldi	r24, 0x01	; 1

static bool gpib_cmd_TAG(uint8_t addr, gpibtimeout_t ptimeoutfunc)
{
	bool result;
	result = gpib_tx((addr & 0x1f) | 0x40, true, ptimeoutfunc);
	if (addr & 0xe0)
    1d9e:	10 7e       	andi	r17, 0xE0	; 224
    1da0:	b1 f3       	breq	.-20     	; 0x1d8e <gpib_cmd_TAG+0x5a>

	
	if (iscommand)
	{ /* set or reset ATN line. It based on a ticket and these delay times are important. The timing was measured on a commercial GPIB adapter. */
		bool atn_was_high = ATN_OUT_STATE;
		if (atn_was_high)
    1da2:	86 9b       	sbis	0x10, 6	; 16
    1da4:	3a c0       	rjmp	.+116    	; 0x1e1a <gpib_cmd_TAG+0xe6>
			_delay_us(220);
		ATN_LOW;
    1da6:	86 9a       	sbi	0x10, 6	; 16
		ATN_HIGH;
		if (atn_was_low)
			_delay_us(70);
	}
		
	DAV_HIGH;
    1da8:	26 98       	cbi	0x04, 6	; 4
	
	
	NRFD_HIGH;
    1daa:	3e 98       	cbi	0x07, 6	; 7
	NDAC_HIGH;  /* they should be already high, but let's enforce it */
    1dac:	3f 98       	cbi	0x07, 7	; 7
	

	DDRD = dat;
    1dae:	80 e6       	ldi	r24, 0x60	; 96
    1db0:	8a b9       	out	0x0a, r24	; 10
    1db2:	02 c0       	rjmp	.+4      	; 0x1db8 <gpib_cmd_TAG+0x84>
	do
	{
		if (timer_ticked() || quickTimeoutPoll) /* the timeout function can consume significant time */
			timedout = ptimeoutfunc();
	}
	while ( (NRFD_STATE == 0) && !timedout); /* wait until ready for data (NRFD to get high) */
    1db4:	81 11       	cpse	r24, r1
    1db6:	1c c0       	rjmp	.+56     	; 0x1df0 <gpib_cmd_TAG+0xbc>
extern volatile bool timer0_ticked; /* flag going high every 100ms - defined in gpib.c */

/* check if 100ms timer ticked. returns true once every 100ms */
static inline bool timer_ticked(void)
{
	bool ticked = timer0_ticked;
    1db8:	80 91 51 05 	lds	r24, 0x0551	; 0x800551 <timer0_ticked>
	timer0_ticked = false;
    1dbc:	10 92 51 05 	sts	0x0551, r1	; 0x800551 <timer0_ticked>
		
	/* wait until ready for data acceptance (NRFD=H, NDAC=L)*/
	do
	{
		if (timer_ticked() || quickTimeoutPoll) /* the timeout function can consume significant time */
			timedout = ptimeoutfunc();
    1dc0:	fe 01       	movw	r30, r28
    1dc2:	09 95       	icall
	}
	while ( (NRFD_STATE == 0) && !timedout); /* wait until ready for data (NRFD to get high) */
    1dc4:	36 9b       	sbis	0x06, 6	; 6
    1dc6:	f6 cf       	rjmp	.-20     	; 0x1db4 <gpib_cmd_TAG+0x80>

	if (!timedout)
    1dc8:	81 11       	cpse	r24, r1
    1dca:	12 c0       	rjmp	.+36     	; 0x1df0 <gpib_cmd_TAG+0xbc>
	{
		DAV_LOW;
    1dcc:	26 9a       	sbi	0x04, 6	; 4
    1dce:	02 c0       	rjmp	.+4      	; 0x1dd4 <gpib_cmd_TAG+0xa0>
		do
		{
			if (timer_ticked() || quickTimeoutPoll)
				timedout = ptimeoutfunc();
		}
		while ( (NDAC_STATE == 0) && !timedout ); /* wait until NDAC gets high*/
    1dd0:	81 11       	cpse	r24, r1
    1dd2:	0d c0       	rjmp	.+26     	; 0x1dee <gpib_cmd_TAG+0xba>
extern volatile bool timer0_ticked; /* flag going high every 100ms - defined in gpib.c */

/* check if 100ms timer ticked. returns true once every 100ms */
static inline bool timer_ticked(void)
{
	bool ticked = timer0_ticked;
    1dd4:	80 91 51 05 	lds	r24, 0x0551	; 0x800551 <timer0_ticked>
	timer0_ticked = false;
    1dd8:	10 92 51 05 	sts	0x0551, r1	; 0x800551 <timer0_ticked>
	{
		DAV_LOW;
		do
		{
			if (timer_ticked() || quickTimeoutPoll)
				timedout = ptimeoutfunc();
    1ddc:	fe 01       	movw	r30, r28
    1dde:	09 95       	icall
		}
		while ( (NDAC_STATE == 0) && !timedout ); /* wait until NDAC gets high*/
    1de0:	37 9b       	sbis	0x06, 7	; 6
    1de2:	f6 cf       	rjmp	.-20     	; 0x1dd0 <gpib_cmd_TAG+0x9c>
		DAV_HIGH;
    1de4:	26 98       	cbi	0x04, 6	; 4
	}
	
	DDRD = 0x00; /* release data bus */
    1de6:	1a b8       	out	0x0a, r1	; 10
	
	if (timedout)
    1de8:	88 23       	and	r24, r24
    1dea:	89 f2       	breq	.-94     	; 0x1d8e <gpib_cmd_TAG+0x5a>
    1dec:	02 c0       	rjmp	.+4      	; 0x1df2 <gpib_cmd_TAG+0xbe>
		{
			if (timer_ticked() || quickTimeoutPoll)
				timedout = ptimeoutfunc();
		}
		while ( (NDAC_STATE == 0) && !timedout ); /* wait until NDAC gets high*/
		DAV_HIGH;
    1dee:	26 98       	cbi	0x04, 6	; 4
	}
}

void gpib_recover(void)
{
	gpib_init();
    1df0:	1a b8       	out	0x0a, r1	; 10
    1df2:	a5 de       	rcall	.-694    	; 0x1b3e <gpib_init>
    1df4:	81 e0       	ldi	r24, 0x01	; 1
	if (addr & 0xe0)
	{ /* send a secondary address? */
		result = gpib_tx(0x60, true, ptimeoutfunc);        // SAG (SA0)	
	}
	return result;
}
    1df6:	df 91       	pop	r29
    1df8:	cf 91       	pop	r28
    1dfa:	1f 91       	pop	r17
    1dfc:	08 95       	ret
    1dfe:	ef e6       	ldi	r30, 0x6F	; 111
    1e00:	f3 e0       	ldi	r31, 0x03	; 3
    1e02:	31 97       	sbiw	r30, 0x01	; 1
    1e04:	f1 f7       	brne	.-4      	; 0x1e02 <gpib_cmd_TAG+0xce>
    1e06:	00 c0       	rjmp	.+0      	; 0x1e08 <gpib_cmd_TAG+0xd4>
    1e08:	00 00       	nop
	if (iscommand)
	{ /* set or reset ATN line. It based on a ticket and these delay times are important. The timing was measured on a commercial GPIB adapter. */
		bool atn_was_high = ATN_OUT_STATE;
		if (atn_was_high)
			_delay_us(220);
		ATN_LOW;
    1e0a:	86 9a       	sbi	0x10, 6	; 16
    1e0c:	e7 e1       	ldi	r30, 0x17	; 23
    1e0e:	f1 e0       	ldi	r31, 0x01	; 1
    1e10:	31 97       	sbiw	r30, 0x01	; 1
    1e12:	f1 f7       	brne	.-4      	; 0x1e10 <gpib_cmd_TAG+0xdc>
    1e14:	00 c0       	rjmp	.+0      	; 0x1e16 <gpib_cmd_TAG+0xe2>
    1e16:	00 00       	nop
    1e18:	97 cf       	rjmp	.-210    	; 0x1d48 <gpib_cmd_TAG+0x14>
    1e1a:	8f e6       	ldi	r24, 0x6F	; 111
    1e1c:	93 e0       	ldi	r25, 0x03	; 3
    1e1e:	01 97       	sbiw	r24, 0x01	; 1
    1e20:	f1 f7       	brne	.-4      	; 0x1e1e <gpib_cmd_TAG+0xea>
    1e22:	00 c0       	rjmp	.+0      	; 0x1e24 <gpib_cmd_TAG+0xf0>
    1e24:	00 00       	nop
    1e26:	86 9a       	sbi	0x10, 6	; 16
    1e28:	e7 e1       	ldi	r30, 0x17	; 23
    1e2a:	f1 e0       	ldi	r31, 0x01	; 1
    1e2c:	31 97       	sbiw	r30, 0x01	; 1
    1e2e:	f1 f7       	brne	.-4      	; 0x1e2c <gpib_cmd_TAG+0xf8>
    1e30:	00 c0       	rjmp	.+0      	; 0x1e32 <gpib_cmd_TAG+0xfe>
    1e32:	00 00       	nop
    1e34:	b9 cf       	rjmp	.-142    	; 0x1da8 <gpib_cmd_TAG+0x74>

00001e36 <gpib_trigger>:
	return timedout;
}


bool gpib_trigger(uint8_t addr, gpibtimeout_t ptimeoutfunc)
{
    1e36:	cf 93       	push	r28
    1e38:	df 93       	push	r29
    1e3a:	eb 01       	movw	r28, r22
	bool timedout;
	
	timedout = gpib_cmd_LAG(addr, ptimeoutfunc); 
    1e3c:	fa de       	rcall	.-524    	; 0x1c32 <gpib_cmd_LAG>
	if (!timedout)
    1e3e:	88 23       	and	r24, r24
	}
}

void gpib_recover(void)
{
	gpib_init();
    1e40:	29 f0       	breq	.+10     	; 0x1e4c <gpib_trigger+0x16>
    1e42:	7d de       	rcall	.-774    	; 0x1b3e <gpib_init>
    1e44:	81 e0       	ldi	r24, 0x01	; 1
		timedout = gpib_cmd_UNL(ptimeoutfunc);
		
	if (timedout)
		gpib_recover();
	return timedout;
}
    1e46:	df 91       	pop	r29
    1e48:	cf 91       	pop	r28
    1e4a:	08 95       	ret

	
	if (iscommand)
	{ /* set or reset ATN line. It based on a ticket and these delay times are important. The timing was measured on a commercial GPIB adapter. */
		bool atn_was_high = ATN_OUT_STATE;
		if (atn_was_high)
    1e4c:	86 9b       	sbis	0x10, 6	; 16
    1e4e:	5c c0       	rjmp	.+184    	; 0x1f08 <gpib_trigger+0xd2>
			_delay_us(220);
		ATN_LOW;
    1e50:	86 9a       	sbi	0x10, 6	; 16
		ATN_HIGH;
		if (atn_was_low)
			_delay_us(70);
	}
		
	DAV_HIGH;
    1e52:	26 98       	cbi	0x04, 6	; 4
	
	
	NRFD_HIGH;
    1e54:	3e 98       	cbi	0x07, 6	; 7
	NDAC_HIGH;  /* they should be already high, but let's enforce it */
    1e56:	3f 98       	cbi	0x07, 7	; 7
	

	DDRD = dat;
    1e58:	88 e0       	ldi	r24, 0x08	; 8
    1e5a:	8a b9       	out	0x0a, r24	; 10
    1e5c:	02 c0       	rjmp	.+4      	; 0x1e62 <gpib_trigger+0x2c>
	do
	{
		if (timer_ticked() || quickTimeoutPoll) /* the timeout function can consume significant time */
			timedout = ptimeoutfunc();
	}
	while ( (NRFD_STATE == 0) && !timedout); /* wait until ready for data (NRFD to get high) */
    1e5e:	81 11       	cpse	r24, r1
    1e60:	42 c0       	rjmp	.+132    	; 0x1ee6 <gpib_trigger+0xb0>
extern volatile bool timer0_ticked; /* flag going high every 100ms - defined in gpib.c */

/* check if 100ms timer ticked. returns true once every 100ms */
static inline bool timer_ticked(void)
{
	bool ticked = timer0_ticked;
    1e62:	80 91 51 05 	lds	r24, 0x0551	; 0x800551 <timer0_ticked>
	timer0_ticked = false;
    1e66:	10 92 51 05 	sts	0x0551, r1	; 0x800551 <timer0_ticked>
		
	/* wait until ready for data acceptance (NRFD=H, NDAC=L)*/
	do
	{
		if (timer_ticked() || quickTimeoutPoll) /* the timeout function can consume significant time */
			timedout = ptimeoutfunc();
    1e6a:	fe 01       	movw	r30, r28
    1e6c:	09 95       	icall
	}
	while ( (NRFD_STATE == 0) && !timedout); /* wait until ready for data (NRFD to get high) */
    1e6e:	36 9b       	sbis	0x06, 6	; 6
    1e70:	f6 cf       	rjmp	.-20     	; 0x1e5e <gpib_trigger+0x28>

	if (!timedout)
    1e72:	81 11       	cpse	r24, r1
    1e74:	38 c0       	rjmp	.+112    	; 0x1ee6 <gpib_trigger+0xb0>
	{
		DAV_LOW;
    1e76:	26 9a       	sbi	0x04, 6	; 4
    1e78:	02 c0       	rjmp	.+4      	; 0x1e7e <gpib_trigger+0x48>
		do
		{
			if (timer_ticked() || quickTimeoutPoll)
				timedout = ptimeoutfunc();
		}
		while ( (NDAC_STATE == 0) && !timedout ); /* wait until NDAC gets high*/
    1e7a:	81 11       	cpse	r24, r1
    1e7c:	33 c0       	rjmp	.+102    	; 0x1ee4 <gpib_trigger+0xae>
extern volatile bool timer0_ticked; /* flag going high every 100ms - defined in gpib.c */

/* check if 100ms timer ticked. returns true once every 100ms */
static inline bool timer_ticked(void)
{
	bool ticked = timer0_ticked;
    1e7e:	80 91 51 05 	lds	r24, 0x0551	; 0x800551 <timer0_ticked>
	timer0_ticked = false;
    1e82:	10 92 51 05 	sts	0x0551, r1	; 0x800551 <timer0_ticked>
	{
		DAV_LOW;
		do
		{
			if (timer_ticked() || quickTimeoutPoll)
				timedout = ptimeoutfunc();
    1e86:	fe 01       	movw	r30, r28
    1e88:	09 95       	icall
		}
		while ( (NDAC_STATE == 0) && !timedout ); /* wait until NDAC gets high*/
    1e8a:	37 9b       	sbis	0x06, 7	; 6
    1e8c:	f6 cf       	rjmp	.-20     	; 0x1e7a <gpib_trigger+0x44>
		DAV_HIGH;
    1e8e:	26 98       	cbi	0x04, 6	; 4
	}
	
	DDRD = 0x00; /* release data bus */
    1e90:	1a b8       	out	0x0a, r1	; 10
	
	if (timedout)
    1e92:	81 11       	cpse	r24, r1
    1e94:	29 c0       	rjmp	.+82     	; 0x1ee8 <gpib_trigger+0xb2>

	
	if (iscommand)
	{ /* set or reset ATN line. It based on a ticket and these delay times are important. The timing was measured on a commercial GPIB adapter. */
		bool atn_was_high = ATN_OUT_STATE;
		if (atn_was_high)
    1e96:	86 9b       	sbis	0x10, 6	; 16
    1e98:	29 c0       	rjmp	.+82     	; 0x1eec <gpib_trigger+0xb6>
			_delay_us(220);
		ATN_LOW;
    1e9a:	86 9a       	sbi	0x10, 6	; 16
		ATN_HIGH;
		if (atn_was_low)
			_delay_us(70);
	}
		
	DAV_HIGH;
    1e9c:	26 98       	cbi	0x04, 6	; 4
	
	
	NRFD_HIGH;
    1e9e:	3e 98       	cbi	0x07, 6	; 7
	NDAC_HIGH;  /* they should be already high, but let's enforce it */
    1ea0:	3f 98       	cbi	0x07, 7	; 7
	

	DDRD = dat;
    1ea2:	8f e3       	ldi	r24, 0x3F	; 63
    1ea4:	8a b9       	out	0x0a, r24	; 10
    1ea6:	02 c0       	rjmp	.+4      	; 0x1eac <gpib_trigger+0x76>
	do
	{
		if (timer_ticked() || quickTimeoutPoll) /* the timeout function can consume significant time */
			timedout = ptimeoutfunc();
	}
	while ( (NRFD_STATE == 0) && !timedout); /* wait until ready for data (NRFD to get high) */
    1ea8:	81 11       	cpse	r24, r1
    1eaa:	1d c0       	rjmp	.+58     	; 0x1ee6 <gpib_trigger+0xb0>
extern volatile bool timer0_ticked; /* flag going high every 100ms - defined in gpib.c */

/* check if 100ms timer ticked. returns true once every 100ms */
static inline bool timer_ticked(void)
{
	bool ticked = timer0_ticked;
    1eac:	80 91 51 05 	lds	r24, 0x0551	; 0x800551 <timer0_ticked>
	timer0_ticked = false;
    1eb0:	10 92 51 05 	sts	0x0551, r1	; 0x800551 <timer0_ticked>
		
	/* wait until ready for data acceptance (NRFD=H, NDAC=L)*/
	do
	{
		if (timer_ticked() || quickTimeoutPoll) /* the timeout function can consume significant time */
			timedout = ptimeoutfunc();
    1eb4:	fe 01       	movw	r30, r28
    1eb6:	09 95       	icall
	}
	while ( (NRFD_STATE == 0) && !timedout); /* wait until ready for data (NRFD to get high) */
    1eb8:	36 9b       	sbis	0x06, 6	; 6
    1eba:	f6 cf       	rjmp	.-20     	; 0x1ea8 <gpib_trigger+0x72>

	if (!timedout)
    1ebc:	81 11       	cpse	r24, r1
    1ebe:	13 c0       	rjmp	.+38     	; 0x1ee6 <gpib_trigger+0xb0>
	{
		DAV_LOW;
    1ec0:	26 9a       	sbi	0x04, 6	; 4
    1ec2:	02 c0       	rjmp	.+4      	; 0x1ec8 <gpib_trigger+0x92>
		do
		{
			if (timer_ticked() || quickTimeoutPoll)
				timedout = ptimeoutfunc();
		}
		while ( (NDAC_STATE == 0) && !timedout ); /* wait until NDAC gets high*/
    1ec4:	81 11       	cpse	r24, r1
    1ec6:	0e c0       	rjmp	.+28     	; 0x1ee4 <gpib_trigger+0xae>
extern volatile bool timer0_ticked; /* flag going high every 100ms - defined in gpib.c */

/* check if 100ms timer ticked. returns true once every 100ms */
static inline bool timer_ticked(void)
{
	bool ticked = timer0_ticked;
    1ec8:	80 91 51 05 	lds	r24, 0x0551	; 0x800551 <timer0_ticked>
	timer0_ticked = false;
    1ecc:	10 92 51 05 	sts	0x0551, r1	; 0x800551 <timer0_ticked>
	{
		DAV_LOW;
		do
		{
			if (timer_ticked() || quickTimeoutPoll)
				timedout = ptimeoutfunc();
    1ed0:	fe 01       	movw	r30, r28
    1ed2:	09 95       	icall
		}
		while ( (NDAC_STATE == 0) && !timedout ); /* wait until NDAC gets high*/
    1ed4:	37 9b       	sbis	0x06, 7	; 6
    1ed6:	f6 cf       	rjmp	.-20     	; 0x1ec4 <gpib_trigger+0x8e>
		DAV_HIGH;
    1ed8:	26 98       	cbi	0x04, 6	; 4
	}
	
	DDRD = 0x00; /* release data bus */
    1eda:	1a b8       	out	0x0a, r1	; 10
	
	if (timedout)
    1edc:	88 23       	and	r24, r24
    1ede:	09 f4       	brne	.+2      	; 0x1ee2 <gpib_trigger+0xac>
    1ee0:	b2 cf       	rjmp	.-156    	; 0x1e46 <gpib_trigger+0x10>
    1ee2:	02 c0       	rjmp	.+4      	; 0x1ee8 <gpib_trigger+0xb2>
		}
		while ( (NDAC_STATE == 0) && !timedout ); /* wait until NDAC gets high*/
		DAV_HIGH;
	}
	
	DDRD = 0x00; /* release data bus */
    1ee4:	26 98       	cbi	0x04, 6	; 4
	}
}

void gpib_recover(void)
{
	gpib_init();
    1ee6:	1a b8       	out	0x0a, r1	; 10
    1ee8:	2a de       	rcall	.-940    	; 0x1b3e <gpib_init>
    1eea:	ab cf       	rjmp	.-170    	; 0x1e42 <gpib_trigger+0xc>
    1eec:	8f e6       	ldi	r24, 0x6F	; 111
    1eee:	93 e0       	ldi	r25, 0x03	; 3
    1ef0:	01 97       	sbiw	r24, 0x01	; 1
    1ef2:	f1 f7       	brne	.-4      	; 0x1ef0 <gpib_trigger+0xba>
    1ef4:	00 c0       	rjmp	.+0      	; 0x1ef6 <gpib_trigger+0xc0>
    1ef6:	00 00       	nop
	if (iscommand)
	{ /* set or reset ATN line. It based on a ticket and these delay times are important. The timing was measured on a commercial GPIB adapter. */
		bool atn_was_high = ATN_OUT_STATE;
		if (atn_was_high)
			_delay_us(220);
		ATN_LOW;
    1ef8:	86 9a       	sbi	0x10, 6	; 16
    1efa:	e7 e1       	ldi	r30, 0x17	; 23
    1efc:	f1 e0       	ldi	r31, 0x01	; 1
    1efe:	31 97       	sbiw	r30, 0x01	; 1
    1f00:	f1 f7       	brne	.-4      	; 0x1efe <gpib_trigger+0xc8>
    1f02:	00 c0       	rjmp	.+0      	; 0x1f04 <gpib_trigger+0xce>
    1f04:	00 00       	nop
    1f06:	ca cf       	rjmp	.-108    	; 0x1e9c <gpib_trigger+0x66>
    1f08:	8f e6       	ldi	r24, 0x6F	; 111
    1f0a:	93 e0       	ldi	r25, 0x03	; 3
    1f0c:	01 97       	sbiw	r24, 0x01	; 1
    1f0e:	f1 f7       	brne	.-4      	; 0x1f0c <gpib_trigger+0xd6>
    1f10:	00 c0       	rjmp	.+0      	; 0x1f12 <gpib_trigger+0xdc>
    1f12:	00 00       	nop
    1f14:	86 9a       	sbi	0x10, 6	; 16
    1f16:	e7 e1       	ldi	r30, 0x17	; 23
    1f18:	f1 e0       	ldi	r31, 0x01	; 1
    1f1a:	31 97       	sbiw	r30, 0x01	; 1
    1f1c:	f1 f7       	brne	.-4      	; 0x1f1a <gpib_trigger+0xe4>
    1f1e:	00 c0       	rjmp	.+0      	; 0x1f20 <gpib_trigger+0xea>
    1f20:	00 00       	nop
    1f22:	97 cf       	rjmp	.-210    	; 0x1e52 <gpib_trigger+0x1c>

00001f24 <gpib_gotoLocal>:
		gpib_recover();
	return timedout;
}

bool gpib_gotoLocal(uint8_t addr, gpibtimeout_t ptimeoutfunc)
{
    1f24:	cf 93       	push	r28
    1f26:	df 93       	push	r29
    1f28:	eb 01       	movw	r28, r22
	bool timedout;
	
	timedout = gpib_cmd_LAG(addr, ptimeoutfunc); 
    1f2a:	83 de       	rcall	.-762    	; 0x1c32 <gpib_cmd_LAG>
	if (!timedout)
    1f2c:	88 23       	and	r24, r24
    1f2e:	71 f0       	breq	.+28     	; 0x1f4c <gpib_gotoLocal+0x28>
	#else
		//round up by default
		__ticks_dc = (uint32_t)(ceil(fabs(__tmp)));
	#endif

	__builtin_avr_delay_cycles(__ticks_dc);
    1f30:	9f ef       	ldi	r25, 0xFF	; 255
    1f32:	e1 ee       	ldi	r30, 0xE1	; 225
    1f34:	f4 e0       	ldi	r31, 0x04	; 4
    1f36:	91 50       	subi	r25, 0x01	; 1
    1f38:	e0 40       	sbci	r30, 0x00	; 0
    1f3a:	f0 40       	sbci	r31, 0x00	; 0
    1f3c:	e1 f7       	brne	.-8      	; 0x1f36 <gpib_gotoLocal+0x12>
    1f3e:	00 c0       	rjmp	.+0      	; 0x1f40 <gpib_gotoLocal+0x1c>
	}
}

void gpib_recover(void)
{
	gpib_init();
    1f40:	00 00       	nop
    1f42:	fd dd       	rcall	.-1030   	; 0x1b3e <gpib_init>
    1f44:	81 e0       	ldi	r24, 0x01	; 1
	//_delay_us(14);
		
	if (timedout)
		gpib_recover();
	return timedout;
}
    1f46:	df 91       	pop	r29
    1f48:	cf 91       	pop	r28
    1f4a:	08 95       	ret

	
	if (iscommand)
	{ /* set or reset ATN line. It based on a ticket and these delay times are important. The timing was measured on a commercial GPIB adapter. */
		bool atn_was_high = ATN_OUT_STATE;
		if (atn_was_high)
    1f4c:	86 9b       	sbis	0x10, 6	; 16
    1f4e:	69 c0       	rjmp	.+210    	; 0x2022 <gpib_gotoLocal+0xfe>
			_delay_us(220);
		ATN_LOW;
    1f50:	86 9a       	sbi	0x10, 6	; 16
		ATN_HIGH;
		if (atn_was_low)
			_delay_us(70);
	}
		
	DAV_HIGH;
    1f52:	26 98       	cbi	0x04, 6	; 4
	
	
	NRFD_HIGH;
    1f54:	3e 98       	cbi	0x07, 6	; 7
	NDAC_HIGH;  /* they should be already high, but let's enforce it */
    1f56:	3f 98       	cbi	0x07, 7	; 7
	

	DDRD = dat;
    1f58:	81 e0       	ldi	r24, 0x01	; 1
    1f5a:	8a b9       	out	0x0a, r24	; 10
    1f5c:	02 c0       	rjmp	.+4      	; 0x1f62 <gpib_gotoLocal+0x3e>
	do
	{
		if (timer_ticked() || quickTimeoutPoll) /* the timeout function can consume significant time */
			timedout = ptimeoutfunc();
	}
	while ( (NRFD_STATE == 0) && !timedout); /* wait until ready for data (NRFD to get high) */
    1f5e:	81 11       	cpse	r24, r1
    1f60:	4b c0       	rjmp	.+150    	; 0x1ff8 <gpib_gotoLocal+0xd4>
extern volatile bool timer0_ticked; /* flag going high every 100ms - defined in gpib.c */

/* check if 100ms timer ticked. returns true once every 100ms */
static inline bool timer_ticked(void)
{
	bool ticked = timer0_ticked;
    1f62:	80 91 51 05 	lds	r24, 0x0551	; 0x800551 <timer0_ticked>
	timer0_ticked = false;
    1f66:	10 92 51 05 	sts	0x0551, r1	; 0x800551 <timer0_ticked>
		
	/* wait until ready for data acceptance (NRFD=H, NDAC=L)*/
	do
	{
		if (timer_ticked() || quickTimeoutPoll) /* the timeout function can consume significant time */
			timedout = ptimeoutfunc();
    1f6a:	fe 01       	movw	r30, r28
    1f6c:	09 95       	icall
	}
	while ( (NRFD_STATE == 0) && !timedout); /* wait until ready for data (NRFD to get high) */
    1f6e:	36 9b       	sbis	0x06, 6	; 6
    1f70:	f6 cf       	rjmp	.-20     	; 0x1f5e <gpib_gotoLocal+0x3a>

	if (!timedout)
    1f72:	81 11       	cpse	r24, r1
    1f74:	41 c0       	rjmp	.+130    	; 0x1ff8 <gpib_gotoLocal+0xd4>
	{
		DAV_LOW;
    1f76:	26 9a       	sbi	0x04, 6	; 4
    1f78:	02 c0       	rjmp	.+4      	; 0x1f7e <gpib_gotoLocal+0x5a>
		do
		{
			if (timer_ticked() || quickTimeoutPoll)
				timedout = ptimeoutfunc();
		}
		while ( (NDAC_STATE == 0) && !timedout ); /* wait until NDAC gets high*/
    1f7a:	81 11       	cpse	r24, r1
    1f7c:	3c c0       	rjmp	.+120    	; 0x1ff6 <gpib_gotoLocal+0xd2>
extern volatile bool timer0_ticked; /* flag going high every 100ms - defined in gpib.c */

/* check if 100ms timer ticked. returns true once every 100ms */
static inline bool timer_ticked(void)
{
	bool ticked = timer0_ticked;
    1f7e:	80 91 51 05 	lds	r24, 0x0551	; 0x800551 <timer0_ticked>
	timer0_ticked = false;
    1f82:	10 92 51 05 	sts	0x0551, r1	; 0x800551 <timer0_ticked>
	{
		DAV_LOW;
		do
		{
			if (timer_ticked() || quickTimeoutPoll)
				timedout = ptimeoutfunc();
    1f86:	fe 01       	movw	r30, r28
    1f88:	09 95       	icall
		}
		while ( (NDAC_STATE == 0) && !timedout ); /* wait until NDAC gets high*/
    1f8a:	37 9b       	sbis	0x06, 7	; 6
    1f8c:	f6 cf       	rjmp	.-20     	; 0x1f7a <gpib_gotoLocal+0x56>
		DAV_HIGH;
    1f8e:	26 98       	cbi	0x04, 6	; 4
	}
	
	DDRD = 0x00; /* release data bus */
    1f90:	1a b8       	out	0x0a, r1	; 10
	
	if (timedout)
    1f92:	81 11       	cpse	r24, r1
    1f94:	32 c0       	rjmp	.+100    	; 0x1ffa <gpib_gotoLocal+0xd6>
    1f96:	ff ef       	ldi	r31, 0xFF	; 255
    1f98:	21 ee       	ldi	r18, 0xE1	; 225
    1f9a:	84 e0       	ldi	r24, 0x04	; 4
    1f9c:	f1 50       	subi	r31, 0x01	; 1
    1f9e:	20 40       	sbci	r18, 0x00	; 0
    1fa0:	80 40       	sbci	r24, 0x00	; 0
    1fa2:	e1 f7       	brne	.-8      	; 0x1f9c <gpib_gotoLocal+0x78>
    1fa4:	00 c0       	rjmp	.+0      	; 0x1fa6 <gpib_gotoLocal+0x82>
    1fa6:	00 00       	nop

	
	if (iscommand)
	{ /* set or reset ATN line. It based on a ticket and these delay times are important. The timing was measured on a commercial GPIB adapter. */
		bool atn_was_high = ATN_OUT_STATE;
		if (atn_was_high)
    1fa8:	86 9b       	sbis	0x10, 6	; 16
    1faa:	2d c0       	rjmp	.+90     	; 0x2006 <gpib_gotoLocal+0xe2>
			_delay_us(220);
		ATN_LOW;
    1fac:	86 9a       	sbi	0x10, 6	; 16
		ATN_HIGH;
		if (atn_was_low)
			_delay_us(70);
	}
		
	DAV_HIGH;
    1fae:	26 98       	cbi	0x04, 6	; 4
	
	
	NRFD_HIGH;
    1fb0:	3e 98       	cbi	0x07, 6	; 7
	NDAC_HIGH;  /* they should be already high, but let's enforce it */
    1fb2:	3f 98       	cbi	0x07, 7	; 7
	

	DDRD = dat;
    1fb4:	8f e3       	ldi	r24, 0x3F	; 63
    1fb6:	8a b9       	out	0x0a, r24	; 10
    1fb8:	02 c0       	rjmp	.+4      	; 0x1fbe <gpib_gotoLocal+0x9a>
	do
	{
		if (timer_ticked() || quickTimeoutPoll) /* the timeout function can consume significant time */
			timedout = ptimeoutfunc();
	}
	while ( (NRFD_STATE == 0) && !timedout); /* wait until ready for data (NRFD to get high) */
    1fba:	81 11       	cpse	r24, r1
    1fbc:	21 c0       	rjmp	.+66     	; 0x2000 <gpib_gotoLocal+0xdc>
extern volatile bool timer0_ticked; /* flag going high every 100ms - defined in gpib.c */

/* check if 100ms timer ticked. returns true once every 100ms */
static inline bool timer_ticked(void)
{
	bool ticked = timer0_ticked;
    1fbe:	80 91 51 05 	lds	r24, 0x0551	; 0x800551 <timer0_ticked>
	timer0_ticked = false;
    1fc2:	10 92 51 05 	sts	0x0551, r1	; 0x800551 <timer0_ticked>
		
	/* wait until ready for data acceptance (NRFD=H, NDAC=L)*/
	do
	{
		if (timer_ticked() || quickTimeoutPoll) /* the timeout function can consume significant time */
			timedout = ptimeoutfunc();
    1fc6:	fe 01       	movw	r30, r28
    1fc8:	09 95       	icall
	}
	while ( (NRFD_STATE == 0) && !timedout); /* wait until ready for data (NRFD to get high) */
    1fca:	36 9b       	sbis	0x06, 6	; 6
    1fcc:	f6 cf       	rjmp	.-20     	; 0x1fba <gpib_gotoLocal+0x96>

	if (!timedout)
    1fce:	81 11       	cpse	r24, r1
    1fd0:	17 c0       	rjmp	.+46     	; 0x2000 <gpib_gotoLocal+0xdc>
	{
		DAV_LOW;
    1fd2:	26 9a       	sbi	0x04, 6	; 4
    1fd4:	02 c0       	rjmp	.+4      	; 0x1fda <gpib_gotoLocal+0xb6>
		do
		{
			if (timer_ticked() || quickTimeoutPoll)
				timedout = ptimeoutfunc();
		}
		while ( (NDAC_STATE == 0) && !timedout ); /* wait until NDAC gets high*/
    1fd6:	81 11       	cpse	r24, r1
    1fd8:	12 c0       	rjmp	.+36     	; 0x1ffe <gpib_gotoLocal+0xda>
extern volatile bool timer0_ticked; /* flag going high every 100ms - defined in gpib.c */

/* check if 100ms timer ticked. returns true once every 100ms */
static inline bool timer_ticked(void)
{
	bool ticked = timer0_ticked;
    1fda:	80 91 51 05 	lds	r24, 0x0551	; 0x800551 <timer0_ticked>
	timer0_ticked = false;
    1fde:	10 92 51 05 	sts	0x0551, r1	; 0x800551 <timer0_ticked>
	{
		DAV_LOW;
		do
		{
			if (timer_ticked() || quickTimeoutPoll)
				timedout = ptimeoutfunc();
    1fe2:	fe 01       	movw	r30, r28
    1fe4:	09 95       	icall
		}
		while ( (NDAC_STATE == 0) && !timedout ); /* wait until NDAC gets high*/
    1fe6:	37 9b       	sbis	0x06, 7	; 6
    1fe8:	f6 cf       	rjmp	.-20     	; 0x1fd6 <gpib_gotoLocal+0xb2>
		DAV_HIGH;
    1fea:	26 98       	cbi	0x04, 6	; 4
	}
	
	DDRD = 0x00; /* release data bus */
    1fec:	1a b8       	out	0x0a, r1	; 10
	
	if (timedout)
    1fee:	88 23       	and	r24, r24
    1ff0:	09 f4       	brne	.+2      	; 0x1ff4 <gpib_gotoLocal+0xd0>
    1ff2:	a9 cf       	rjmp	.-174    	; 0x1f46 <gpib_gotoLocal+0x22>
    1ff4:	06 c0       	rjmp	.+12     	; 0x2002 <gpib_gotoLocal+0xde>
		}
		while ( (NDAC_STATE == 0) && !timedout ); /* wait until NDAC gets high*/
		DAV_HIGH;
	}
	
	DDRD = 0x00; /* release data bus */
    1ff6:	26 98       	cbi	0x04, 6	; 4
	}
}

void gpib_recover(void)
{
	gpib_init();
    1ff8:	1a b8       	out	0x0a, r1	; 10
    1ffa:	a1 dd       	rcall	.-1214   	; 0x1b3e <gpib_init>
		{
			if (timer_ticked() || quickTimeoutPoll)
				timedout = ptimeoutfunc();
		}
		while ( (NDAC_STATE == 0) && !timedout ); /* wait until NDAC gets high*/
		DAV_HIGH;
    1ffc:	99 cf       	rjmp	.-206    	; 0x1f30 <gpib_gotoLocal+0xc>
	}
	
	DDRD = 0x00; /* release data bus */
    1ffe:	26 98       	cbi	0x04, 6	; 4
    2000:	1a b8       	out	0x0a, r1	; 10
    2002:	9d dd       	rcall	.-1222   	; 0x1b3e <gpib_init>
    2004:	9e cf       	rjmp	.-196    	; 0x1f42 <gpib_gotoLocal+0x1e>
	#else
		//round up by default
		__ticks_dc = (uint32_t)(ceil(fabs(__tmp)));
	#endif

	__builtin_avr_delay_cycles(__ticks_dc);
    2006:	8f e6       	ldi	r24, 0x6F	; 111
    2008:	93 e0       	ldi	r25, 0x03	; 3
    200a:	01 97       	sbiw	r24, 0x01	; 1
    200c:	f1 f7       	brne	.-4      	; 0x200a <gpib_gotoLocal+0xe6>
    200e:	00 c0       	rjmp	.+0      	; 0x2010 <gpib_gotoLocal+0xec>
    2010:	00 00       	nop
	if (iscommand)
	{ /* set or reset ATN line. It based on a ticket and these delay times are important. The timing was measured on a commercial GPIB adapter. */
		bool atn_was_high = ATN_OUT_STATE;
		if (atn_was_high)
			_delay_us(220);
		ATN_LOW;
    2012:	86 9a       	sbi	0x10, 6	; 16
    2014:	e7 e1       	ldi	r30, 0x17	; 23
    2016:	f1 e0       	ldi	r31, 0x01	; 1
    2018:	31 97       	sbiw	r30, 0x01	; 1
    201a:	f1 f7       	brne	.-4      	; 0x2018 <gpib_gotoLocal+0xf4>
    201c:	00 c0       	rjmp	.+0      	; 0x201e <gpib_gotoLocal+0xfa>
    201e:	00 00       	nop
    2020:	c6 cf       	rjmp	.-116    	; 0x1fae <gpib_gotoLocal+0x8a>
    2022:	8f e6       	ldi	r24, 0x6F	; 111
    2024:	93 e0       	ldi	r25, 0x03	; 3
    2026:	01 97       	sbiw	r24, 0x01	; 1
    2028:	f1 f7       	brne	.-4      	; 0x2026 <gpib_gotoLocal+0x102>
    202a:	00 c0       	rjmp	.+0      	; 0x202c <gpib_gotoLocal+0x108>
    202c:	00 00       	nop
    202e:	86 9a       	sbi	0x10, 6	; 16
    2030:	e7 e1       	ldi	r30, 0x17	; 23
    2032:	f1 e0       	ldi	r31, 0x01	; 1
    2034:	31 97       	sbiw	r30, 0x01	; 1
    2036:	f1 f7       	brne	.-4      	; 0x2034 <gpib_gotoLocal+0x110>
    2038:	00 c0       	rjmp	.+0      	; 0x203a <gpib_gotoLocal+0x116>
    203a:	00 00       	nop
    203c:	8a cf       	rjmp	.-236    	; 0x1f52 <gpib_gotoLocal+0x2e>

0000203e <gpib_sdc>:
	return gpib_tx(0x04, true, ptimeoutfunc);
}


bool gpib_sdc(uint8_t addr, gpibtimeout_t ptimeoutfunc)
{
    203e:	cf 93       	push	r28
    2040:	df 93       	push	r29
    2042:	eb 01       	movw	r28, r22
	bool timedout;
	
	s_gpib_transaction_active = true;
    2044:	91 e0       	ldi	r25, 0x01	; 1
    2046:	90 93 54 05 	sts	0x0554, r25	; 0x800554 <s_gpib_transaction_active>
	timedout = gpib_cmd_LAG(addr, ptimeoutfunc); 
    204a:	f3 dd       	rcall	.-1050   	; 0x1c32 <gpib_cmd_LAG>
	if (!timedout)
    204c:	88 23       	and	r24, r24
	}
}

void gpib_recover(void)
{
	gpib_init();
    204e:	81 f0       	breq	.+32     	; 0x2070 <gpib_sdc+0x32>
    2050:	76 dd       	rcall	.-1300   	; 0x1b3e <gpib_init>
    2052:	81 e0       	ldi	r24, 0x01	; 1
		timedout = gpib_cmd_SDC(ptimeoutfunc);
	if (!timedout)
		timedout = gpib_cmd_UNL(ptimeoutfunc);
	if (timedout)
		gpib_recover();
	s_gpib_transaction_active = false;
    2054:	10 92 54 05 	sts	0x0554, r1	; 0x800554 <s_gpib_transaction_active>
	#else
		//round up by default
		__ticks_dc = (uint32_t)(ceil(fabs(__tmp)));
	#endif

	__builtin_avr_delay_cycles(__ticks_dc);
    2058:	ff ef       	ldi	r31, 0xFF	; 255
    205a:	22 e5       	ldi	r18, 0x52	; 82
    205c:	37 e0       	ldi	r19, 0x07	; 7
    205e:	f1 50       	subi	r31, 0x01	; 1
    2060:	20 40       	sbci	r18, 0x00	; 0
    2062:	30 40       	sbci	r19, 0x00	; 0
    2064:	e1 f7       	brne	.-8      	; 0x205e <gpib_sdc+0x20>
    2066:	00 c0       	rjmp	.+0      	; 0x2068 <gpib_sdc+0x2a>
    2068:	00 00       	nop
		
	_delay_ms(150); // this is not done by the NI USB adapter, but seems to be required for products using NI USB adapter!
	return timedout;
}
    206a:	df 91       	pop	r29
    206c:	cf 91       	pop	r28
    206e:	08 95       	ret

	
	if (iscommand)
	{ /* set or reset ATN line. It based on a ticket and these delay times are important. The timing was measured on a commercial GPIB adapter. */
		bool atn_was_high = ATN_OUT_STATE;
		if (atn_was_high)
    2070:	86 9b       	sbis	0x10, 6	; 16
    2072:	5c c0       	rjmp	.+184    	; 0x212c <gpib_sdc+0xee>
			_delay_us(220);
		ATN_LOW;
    2074:	86 9a       	sbi	0x10, 6	; 16
		ATN_HIGH;
		if (atn_was_low)
			_delay_us(70);
	}
		
	DAV_HIGH;
    2076:	26 98       	cbi	0x04, 6	; 4
	
	
	NRFD_HIGH;
    2078:	3e 98       	cbi	0x07, 6	; 7
	NDAC_HIGH;  /* they should be already high, but let's enforce it */
    207a:	3f 98       	cbi	0x07, 7	; 7
	

	DDRD = dat;
    207c:	84 e0       	ldi	r24, 0x04	; 4
    207e:	8a b9       	out	0x0a, r24	; 10
    2080:	02 c0       	rjmp	.+4      	; 0x2086 <gpib_sdc+0x48>
	do
	{
		if (timer_ticked() || quickTimeoutPoll) /* the timeout function can consume significant time */
			timedout = ptimeoutfunc();
	}
	while ( (NRFD_STATE == 0) && !timedout); /* wait until ready for data (NRFD to get high) */
    2082:	81 11       	cpse	r24, r1
    2084:	42 c0       	rjmp	.+132    	; 0x210a <gpib_sdc+0xcc>
extern volatile bool timer0_ticked; /* flag going high every 100ms - defined in gpib.c */

/* check if 100ms timer ticked. returns true once every 100ms */
static inline bool timer_ticked(void)
{
	bool ticked = timer0_ticked;
    2086:	80 91 51 05 	lds	r24, 0x0551	; 0x800551 <timer0_ticked>
	timer0_ticked = false;
    208a:	10 92 51 05 	sts	0x0551, r1	; 0x800551 <timer0_ticked>
		
	/* wait until ready for data acceptance (NRFD=H, NDAC=L)*/
	do
	{
		if (timer_ticked() || quickTimeoutPoll) /* the timeout function can consume significant time */
			timedout = ptimeoutfunc();
    208e:	fe 01       	movw	r30, r28
    2090:	09 95       	icall
	}
	while ( (NRFD_STATE == 0) && !timedout); /* wait until ready for data (NRFD to get high) */
    2092:	36 9b       	sbis	0x06, 6	; 6
    2094:	f6 cf       	rjmp	.-20     	; 0x2082 <gpib_sdc+0x44>

	if (!timedout)
    2096:	81 11       	cpse	r24, r1
    2098:	38 c0       	rjmp	.+112    	; 0x210a <gpib_sdc+0xcc>
	{
		DAV_LOW;
    209a:	26 9a       	sbi	0x04, 6	; 4
    209c:	02 c0       	rjmp	.+4      	; 0x20a2 <gpib_sdc+0x64>
		do
		{
			if (timer_ticked() || quickTimeoutPoll)
				timedout = ptimeoutfunc();
		}
		while ( (NDAC_STATE == 0) && !timedout ); /* wait until NDAC gets high*/
    209e:	81 11       	cpse	r24, r1
    20a0:	33 c0       	rjmp	.+102    	; 0x2108 <gpib_sdc+0xca>
extern volatile bool timer0_ticked; /* flag going high every 100ms - defined in gpib.c */

/* check if 100ms timer ticked. returns true once every 100ms */
static inline bool timer_ticked(void)
{
	bool ticked = timer0_ticked;
    20a2:	80 91 51 05 	lds	r24, 0x0551	; 0x800551 <timer0_ticked>
	timer0_ticked = false;
    20a6:	10 92 51 05 	sts	0x0551, r1	; 0x800551 <timer0_ticked>
	{
		DAV_LOW;
		do
		{
			if (timer_ticked() || quickTimeoutPoll)
				timedout = ptimeoutfunc();
    20aa:	fe 01       	movw	r30, r28
    20ac:	09 95       	icall
		}
		while ( (NDAC_STATE == 0) && !timedout ); /* wait until NDAC gets high*/
    20ae:	37 9b       	sbis	0x06, 7	; 6
    20b0:	f6 cf       	rjmp	.-20     	; 0x209e <gpib_sdc+0x60>
		DAV_HIGH;
    20b2:	26 98       	cbi	0x04, 6	; 4
	}
	
	DDRD = 0x00; /* release data bus */
    20b4:	1a b8       	out	0x0a, r1	; 10
	
	if (timedout)
    20b6:	81 11       	cpse	r24, r1
    20b8:	29 c0       	rjmp	.+82     	; 0x210c <gpib_sdc+0xce>

	
	if (iscommand)
	{ /* set or reset ATN line. It based on a ticket and these delay times are important. The timing was measured on a commercial GPIB adapter. */
		bool atn_was_high = ATN_OUT_STATE;
		if (atn_was_high)
    20ba:	86 9b       	sbis	0x10, 6	; 16
    20bc:	29 c0       	rjmp	.+82     	; 0x2110 <gpib_sdc+0xd2>
			_delay_us(220);
		ATN_LOW;
    20be:	86 9a       	sbi	0x10, 6	; 16
		ATN_HIGH;
		if (atn_was_low)
			_delay_us(70);
	}
		
	DAV_HIGH;
    20c0:	26 98       	cbi	0x04, 6	; 4
	
	
	NRFD_HIGH;
    20c2:	3e 98       	cbi	0x07, 6	; 7
	NDAC_HIGH;  /* they should be already high, but let's enforce it */
    20c4:	3f 98       	cbi	0x07, 7	; 7
	

	DDRD = dat;
    20c6:	8f e3       	ldi	r24, 0x3F	; 63
    20c8:	8a b9       	out	0x0a, r24	; 10
    20ca:	02 c0       	rjmp	.+4      	; 0x20d0 <gpib_sdc+0x92>
	do
	{
		if (timer_ticked() || quickTimeoutPoll) /* the timeout function can consume significant time */
			timedout = ptimeoutfunc();
	}
	while ( (NRFD_STATE == 0) && !timedout); /* wait until ready for data (NRFD to get high) */
    20cc:	81 11       	cpse	r24, r1
    20ce:	1d c0       	rjmp	.+58     	; 0x210a <gpib_sdc+0xcc>
extern volatile bool timer0_ticked; /* flag going high every 100ms - defined in gpib.c */

/* check if 100ms timer ticked. returns true once every 100ms */
static inline bool timer_ticked(void)
{
	bool ticked = timer0_ticked;
    20d0:	80 91 51 05 	lds	r24, 0x0551	; 0x800551 <timer0_ticked>
	timer0_ticked = false;
    20d4:	10 92 51 05 	sts	0x0551, r1	; 0x800551 <timer0_ticked>
		
	/* wait until ready for data acceptance (NRFD=H, NDAC=L)*/
	do
	{
		if (timer_ticked() || quickTimeoutPoll) /* the timeout function can consume significant time */
			timedout = ptimeoutfunc();
    20d8:	fe 01       	movw	r30, r28
    20da:	09 95       	icall
	}
	while ( (NRFD_STATE == 0) && !timedout); /* wait until ready for data (NRFD to get high) */
    20dc:	36 9b       	sbis	0x06, 6	; 6
    20de:	f6 cf       	rjmp	.-20     	; 0x20cc <gpib_sdc+0x8e>

	if (!timedout)
    20e0:	81 11       	cpse	r24, r1
    20e2:	13 c0       	rjmp	.+38     	; 0x210a <gpib_sdc+0xcc>
	{
		DAV_LOW;
    20e4:	26 9a       	sbi	0x04, 6	; 4
    20e6:	02 c0       	rjmp	.+4      	; 0x20ec <gpib_sdc+0xae>
		do
		{
			if (timer_ticked() || quickTimeoutPoll)
				timedout = ptimeoutfunc();
		}
		while ( (NDAC_STATE == 0) && !timedout ); /* wait until NDAC gets high*/
    20e8:	81 11       	cpse	r24, r1
    20ea:	0e c0       	rjmp	.+28     	; 0x2108 <gpib_sdc+0xca>
extern volatile bool timer0_ticked; /* flag going high every 100ms - defined in gpib.c */

/* check if 100ms timer ticked. returns true once every 100ms */
static inline bool timer_ticked(void)
{
	bool ticked = timer0_ticked;
    20ec:	80 91 51 05 	lds	r24, 0x0551	; 0x800551 <timer0_ticked>
	timer0_ticked = false;
    20f0:	10 92 51 05 	sts	0x0551, r1	; 0x800551 <timer0_ticked>
	{
		DAV_LOW;
		do
		{
			if (timer_ticked() || quickTimeoutPoll)
				timedout = ptimeoutfunc();
    20f4:	fe 01       	movw	r30, r28
    20f6:	09 95       	icall
		}
		while ( (NDAC_STATE == 0) && !timedout ); /* wait until NDAC gets high*/
    20f8:	37 9b       	sbis	0x06, 7	; 6
    20fa:	f6 cf       	rjmp	.-20     	; 0x20e8 <gpib_sdc+0xaa>
		DAV_HIGH;
    20fc:	26 98       	cbi	0x04, 6	; 4
	}
	
	DDRD = 0x00; /* release data bus */
    20fe:	1a b8       	out	0x0a, r1	; 10
	
	if (timedout)
    2100:	88 23       	and	r24, r24
    2102:	09 f4       	brne	.+2      	; 0x2106 <gpib_sdc+0xc8>
    2104:	a7 cf       	rjmp	.-178    	; 0x2054 <gpib_sdc+0x16>
    2106:	02 c0       	rjmp	.+4      	; 0x210c <gpib_sdc+0xce>
		}
		while ( (NDAC_STATE == 0) && !timedout ); /* wait until NDAC gets high*/
		DAV_HIGH;
	}
	
	DDRD = 0x00; /* release data bus */
    2108:	26 98       	cbi	0x04, 6	; 4
	}
}

void gpib_recover(void)
{
	gpib_init();
    210a:	1a b8       	out	0x0a, r1	; 10
    210c:	18 dd       	rcall	.-1488   	; 0x1b3e <gpib_init>
    210e:	a0 cf       	rjmp	.-192    	; 0x2050 <gpib_sdc+0x12>
	#else
		//round up by default
		__ticks_dc = (uint32_t)(ceil(fabs(__tmp)));
	#endif

	__builtin_avr_delay_cycles(__ticks_dc);
    2110:	8f e6       	ldi	r24, 0x6F	; 111
    2112:	93 e0       	ldi	r25, 0x03	; 3
    2114:	01 97       	sbiw	r24, 0x01	; 1
    2116:	f1 f7       	brne	.-4      	; 0x2114 <gpib_sdc+0xd6>
    2118:	00 c0       	rjmp	.+0      	; 0x211a <gpib_sdc+0xdc>
    211a:	00 00       	nop
	if (iscommand)
	{ /* set or reset ATN line. It based on a ticket and these delay times are important. The timing was measured on a commercial GPIB adapter. */
		bool atn_was_high = ATN_OUT_STATE;
		if (atn_was_high)
			_delay_us(220);
		ATN_LOW;
    211c:	86 9a       	sbi	0x10, 6	; 16
    211e:	e7 e1       	ldi	r30, 0x17	; 23
    2120:	f1 e0       	ldi	r31, 0x01	; 1
    2122:	31 97       	sbiw	r30, 0x01	; 1
    2124:	f1 f7       	brne	.-4      	; 0x2122 <gpib_sdc+0xe4>
    2126:	00 c0       	rjmp	.+0      	; 0x2128 <gpib_sdc+0xea>
    2128:	00 00       	nop
    212a:	ca cf       	rjmp	.-108    	; 0x20c0 <gpib_sdc+0x82>
    212c:	8f e6       	ldi	r24, 0x6F	; 111
    212e:	93 e0       	ldi	r25, 0x03	; 3
    2130:	01 97       	sbiw	r24, 0x01	; 1
    2132:	f1 f7       	brne	.-4      	; 0x2130 <gpib_sdc+0xf2>
    2134:	00 c0       	rjmp	.+0      	; 0x2136 <gpib_sdc+0xf8>
    2136:	00 00       	nop
    2138:	86 9a       	sbi	0x10, 6	; 16
    213a:	e7 e1       	ldi	r30, 0x17	; 23
    213c:	f1 e0       	ldi	r31, 0x01	; 1
    213e:	31 97       	sbiw	r30, 0x01	; 1
    2140:	f1 f7       	brne	.-4      	; 0x213e <gpib_sdc+0x100>
    2142:	00 c0       	rjmp	.+0      	; 0x2144 <gpib_sdc+0x106>
    2144:	00 00       	nop
    2146:	97 cf       	rjmp	.-210    	; 0x2076 <gpib_sdc+0x38>

00002148 <gpib_readStatusByte>:
{
	return gpib_tx(0x08, true, ptimeoutfunc);
}

uint8_t gpib_readStatusByte(uint8_t addr, gpibtimeout_t ptimeoutfunc)
{
    2148:	1f 93       	push	r17
    214a:	cf 93       	push	r28
    214c:	df 93       	push	r29
    214e:	18 2f       	mov	r17, r24
    2150:	eb 01       	movw	r28, r22
	uint8_t status;
	
	timedout = false;
	status = 0;

	s_gpib_transaction_active = true;
    2152:	81 e0       	ldi	r24, 0x01	; 1
    2154:	80 93 54 05 	sts	0x0554, r24	; 0x800554 <s_gpib_transaction_active>
	if (!timedout)
		timedout = gpib_cmd_LAG(0, ptimeoutfunc);
    2158:	80 e0       	ldi	r24, 0x00	; 0
    215a:	6b dd       	rcall	.-1322   	; 0x1c32 <gpib_cmd_LAG>
	if (!timedout)
    215c:	88 23       	and	r24, r24
    215e:	49 f0       	breq	.+18     	; 0x2172 <gpib_readStatusByte+0x2a>
	}
}

void gpib_recover(void)
{
	gpib_init();
    2160:	10 e0       	ldi	r17, 0x00	; 0
    2162:	ed dc       	rcall	.-1574   	; 0x1b3e <gpib_init>
		timedout = gpib_cmd_SPD(ptimeoutfunc);
	if (!timedout)
		timedout = gpib_cmd_UNT(ptimeoutfunc); 
	if (timedout)
		gpib_recover();	
	s_gpib_transaction_active = false;		
    2164:	10 92 54 05 	sts	0x0554, r1	; 0x800554 <s_gpib_transaction_active>
	return status;
}
    2168:	81 2f       	mov	r24, r17
    216a:	df 91       	pop	r29
    216c:	cf 91       	pop	r28
    216e:	1f 91       	pop	r17
    2170:	08 95       	ret

	
	if (iscommand)
	{ /* set or reset ATN line. It based on a ticket and these delay times are important. The timing was measured on a commercial GPIB adapter. */
		bool atn_was_high = ATN_OUT_STATE;
		if (atn_was_high)
    2172:	86 9b       	sbis	0x10, 6	; 16
    2174:	b3 c0       	rjmp	.+358    	; 0x22dc <gpib_readStatusByte+0x194>
			_delay_us(220);
		ATN_LOW;
    2176:	86 9a       	sbi	0x10, 6	; 16
		ATN_HIGH;
		if (atn_was_low)
			_delay_us(70);
	}
		
	DAV_HIGH;
    2178:	26 98       	cbi	0x04, 6	; 4
	
	
	NRFD_HIGH;
    217a:	3e 98       	cbi	0x07, 6	; 7
	NDAC_HIGH;  /* they should be already high, but let's enforce it */
    217c:	3f 98       	cbi	0x07, 7	; 7
	

	DDRD = dat;
    217e:	88 e1       	ldi	r24, 0x18	; 24
    2180:	8a b9       	out	0x0a, r24	; 10
    2182:	02 c0       	rjmp	.+4      	; 0x2188 <gpib_readStatusByte+0x40>
	do
	{
		if (timer_ticked() || quickTimeoutPoll) /* the timeout function can consume significant time */
			timedout = ptimeoutfunc();
	}
	while ( (NRFD_STATE == 0) && !timedout); /* wait until ready for data (NRFD to get high) */
    2184:	81 11       	cpse	r24, r1
    2186:	91 c0       	rjmp	.+290    	; 0x22aa <gpib_readStatusByte+0x162>
extern volatile bool timer0_ticked; /* flag going high every 100ms - defined in gpib.c */

/* check if 100ms timer ticked. returns true once every 100ms */
static inline bool timer_ticked(void)
{
	bool ticked = timer0_ticked;
    2188:	80 91 51 05 	lds	r24, 0x0551	; 0x800551 <timer0_ticked>
	timer0_ticked = false;
    218c:	10 92 51 05 	sts	0x0551, r1	; 0x800551 <timer0_ticked>
		
	/* wait until ready for data acceptance (NRFD=H, NDAC=L)*/
	do
	{
		if (timer_ticked() || quickTimeoutPoll) /* the timeout function can consume significant time */
			timedout = ptimeoutfunc();
    2190:	fe 01       	movw	r30, r28
    2192:	09 95       	icall
	}
	while ( (NRFD_STATE == 0) && !timedout); /* wait until ready for data (NRFD to get high) */
    2194:	36 9b       	sbis	0x06, 6	; 6
    2196:	f6 cf       	rjmp	.-20     	; 0x2184 <gpib_readStatusByte+0x3c>

	if (!timedout)
    2198:	81 11       	cpse	r24, r1
    219a:	87 c0       	rjmp	.+270    	; 0x22aa <gpib_readStatusByte+0x162>
	{
		DAV_LOW;
    219c:	26 9a       	sbi	0x04, 6	; 4
    219e:	02 c0       	rjmp	.+4      	; 0x21a4 <gpib_readStatusByte+0x5c>
		do
		{
			if (timer_ticked() || quickTimeoutPoll)
				timedout = ptimeoutfunc();
		}
		while ( (NDAC_STATE == 0) && !timedout ); /* wait until NDAC gets high*/
    21a0:	81 11       	cpse	r24, r1
    21a2:	82 c0       	rjmp	.+260    	; 0x22a8 <gpib_readStatusByte+0x160>
extern volatile bool timer0_ticked; /* flag going high every 100ms - defined in gpib.c */

/* check if 100ms timer ticked. returns true once every 100ms */
static inline bool timer_ticked(void)
{
	bool ticked = timer0_ticked;
    21a4:	80 91 51 05 	lds	r24, 0x0551	; 0x800551 <timer0_ticked>
	timer0_ticked = false;
    21a8:	10 92 51 05 	sts	0x0551, r1	; 0x800551 <timer0_ticked>
	{
		DAV_LOW;
		do
		{
			if (timer_ticked() || quickTimeoutPoll)
				timedout = ptimeoutfunc();
    21ac:	fe 01       	movw	r30, r28
    21ae:	09 95       	icall
		}
		while ( (NDAC_STATE == 0) && !timedout ); /* wait until NDAC gets high*/
    21b0:	37 9b       	sbis	0x06, 7	; 6
    21b2:	f6 cf       	rjmp	.-20     	; 0x21a0 <gpib_readStatusByte+0x58>
		DAV_HIGH;
    21b4:	26 98       	cbi	0x04, 6	; 4
	}
	
	DDRD = 0x00; /* release data bus */
    21b6:	1a b8       	out	0x0a, r1	; 10
	
	if (timedout)
    21b8:	81 11       	cpse	r24, r1
    21ba:	78 c0       	rjmp	.+240    	; 0x22ac <gpib_readStatusByte+0x164>
	if (!timedout)
		timedout = gpib_cmd_LAG(0, ptimeoutfunc);
	if (!timedout)
		timedout = gpib_cmd_SPE(ptimeoutfunc);
	if (!timedout)
		timedout = gpib_cmd_TAG(addr, ptimeoutfunc); 
    21bc:	be 01       	movw	r22, r28
    21be:	81 2f       	mov	r24, r17
    21c0:	b9 dd       	rcall	.-1166   	; 0x1d34 <gpib_cmd_TAG>

	if (!timedout)
    21c2:	81 11       	cpse	r24, r1
    21c4:	cd cf       	rjmp	.-102    	; 0x2160 <gpib_readStatusByte+0x18>

	timedout = false;
	
	// ensure that ATN is high
	bool atn_was_low = !ATN_OUT_STATE;
	if (atn_was_low)
    21c6:	86 99       	sbic	0x10, 6	; 16
    21c8:	97 c0       	rjmp	.+302    	; 0x22f8 <gpib_readStatusByte+0x1b0>
		_delay_us(220);
	ATN_HIGH;
    21ca:	86 98       	cbi	0x10, 6	; 16
	
	/* skipping NRFD LOW step, because we are able to handshake and response to data */
	NDAC_LOW;
    21cc:	3f 9a       	sbi	0x07, 7	; 7
	NRFD_HIGH;
    21ce:	3e 98       	cbi	0x07, 6	; 7
    21d0:	02 c0       	rjmp	.+4      	; 0x21d6 <gpib_readStatusByte+0x8e>
	do
	{
		if (timer_ticked() || quickTimeoutPoll)
			timedout = ptimeoutfunc();
	}
	while ( (DAV_STATE != 0) && !timedout ); /* wait until DAV gets low */
    21d2:	81 11       	cpse	r24, r1
    21d4:	71 c0       	rjmp	.+226    	; 0x22b8 <gpib_readStatusByte+0x170>
extern volatile bool timer0_ticked; /* flag going high every 100ms - defined in gpib.c */

/* check if 100ms timer ticked. returns true once every 100ms */
static inline bool timer_ticked(void)
{
	bool ticked = timer0_ticked;
    21d6:	80 91 51 05 	lds	r24, 0x0551	; 0x800551 <timer0_ticked>
	timer0_ticked = false;
    21da:	10 92 51 05 	sts	0x0551, r1	; 0x800551 <timer0_ticked>
	
	
	do
	{
		if (timer_ticked() || quickTimeoutPoll)
			timedout = ptimeoutfunc();
    21de:	fe 01       	movw	r30, r28
    21e0:	09 95       	icall
	}
	while ( (DAV_STATE != 0) && !timedout ); /* wait until DAV gets low */
    21e2:	1e 99       	sbic	0x03, 6	; 3
    21e4:	f6 cf       	rjmp	.-20     	; 0x21d2 <gpib_readStatusByte+0x8a>
	
	if (!timedout)
    21e6:	81 11       	cpse	r24, r1
    21e8:	67 c0       	rjmp	.+206    	; 0x22b8 <gpib_readStatusByte+0x170>
	{
		NRFD_LOW;
    21ea:	3e 9a       	sbi	0x07, 6	; 7
		c = ~PIND;
    21ec:	19 b1       	in	r17, 0x09	; 9
    21ee:	10 95       	com	r17
		eoi = (EOI_STATE == 0) ;
    21f0:	83 b1       	in	r24, 0x03	; 3
		NDAC_HIGH;
    21f2:	3f 98       	cbi	0x07, 7	; 7
    21f4:	02 c0       	rjmp	.+4      	; 0x21fa <gpib_readStatusByte+0xb2>
		do
		{
			if (timer_ticked() || quickTimeoutPoll)
				timedout = ptimeoutfunc();
		}
		while ( (DAV_STATE == 0) && !timedout ); /* wait until DAV gets high */
    21f6:	81 11       	cpse	r24, r1
    21f8:	60 c0       	rjmp	.+192    	; 0x22ba <gpib_readStatusByte+0x172>
extern volatile bool timer0_ticked; /* flag going high every 100ms - defined in gpib.c */

/* check if 100ms timer ticked. returns true once every 100ms */
static inline bool timer_ticked(void)
{
	bool ticked = timer0_ticked;
    21fa:	80 91 51 05 	lds	r24, 0x0551	; 0x800551 <timer0_ticked>
	timer0_ticked = false;
    21fe:	10 92 51 05 	sts	0x0551, r1	; 0x800551 <timer0_ticked>
		NDAC_HIGH;
		
		do
		{
			if (timer_ticked() || quickTimeoutPoll)
				timedout = ptimeoutfunc();
    2202:	fe 01       	movw	r30, r28
    2204:	09 95       	icall
		}
		while ( (DAV_STATE == 0) && !timedout ); /* wait until DAV gets high */
    2206:	1e 9b       	sbis	0x03, 6	; 3
    2208:	f6 cf       	rjmp	.-20     	; 0x21f6 <gpib_readStatusByte+0xae>
	if (s_terminator == '\0')
		*pEoi = eoi;
	else
		*pEoi = eoi || (c == s_terminator);

	if (timedout)
    220a:	81 11       	cpse	r24, r1
    220c:	56 c0       	rjmp	.+172    	; 0x22ba <gpib_readStatusByte+0x172>
	{
		gpib_recover();
	}
	*ptimedout = timedout;
	
	NRFD_LOW;
    220e:	3e 9a       	sbi	0x07, 6	; 7

	
	if (iscommand)
	{ /* set or reset ATN line. It based on a ticket and these delay times are important. The timing was measured on a commercial GPIB adapter. */
		bool atn_was_high = ATN_OUT_STATE;
		if (atn_was_high)
    2210:	86 9b       	sbis	0x10, 6	; 16
    2212:	56 c0       	rjmp	.+172    	; 0x22c0 <gpib_readStatusByte+0x178>
			_delay_us(220);
		ATN_LOW;
    2214:	86 9a       	sbi	0x10, 6	; 16
		ATN_HIGH;
		if (atn_was_low)
			_delay_us(70);
	}
		
	DAV_HIGH;
    2216:	26 98       	cbi	0x04, 6	; 4
	
	
	NRFD_HIGH;
    2218:	3e 98       	cbi	0x07, 6	; 7
	NDAC_HIGH;  /* they should be already high, but let's enforce it */
    221a:	3f 98       	cbi	0x07, 7	; 7
	

	DDRD = dat;
    221c:	89 e1       	ldi	r24, 0x19	; 25
    221e:	8a b9       	out	0x0a, r24	; 10
    2220:	02 c0       	rjmp	.+4      	; 0x2226 <gpib_readStatusByte+0xde>
	do
	{
		if (timer_ticked() || quickTimeoutPoll) /* the timeout function can consume significant time */
			timedout = ptimeoutfunc();
	}
	while ( (NRFD_STATE == 0) && !timedout); /* wait until ready for data (NRFD to get high) */
    2222:	81 11       	cpse	r24, r1
    2224:	46 c0       	rjmp	.+140    	; 0x22b2 <gpib_readStatusByte+0x16a>
extern volatile bool timer0_ticked; /* flag going high every 100ms - defined in gpib.c */

/* check if 100ms timer ticked. returns true once every 100ms */
static inline bool timer_ticked(void)
{
	bool ticked = timer0_ticked;
    2226:	80 91 51 05 	lds	r24, 0x0551	; 0x800551 <timer0_ticked>
	timer0_ticked = false;
    222a:	10 92 51 05 	sts	0x0551, r1	; 0x800551 <timer0_ticked>
		
	/* wait until ready for data acceptance (NRFD=H, NDAC=L)*/
	do
	{
		if (timer_ticked() || quickTimeoutPoll) /* the timeout function can consume significant time */
			timedout = ptimeoutfunc();
    222e:	fe 01       	movw	r30, r28
    2230:	09 95       	icall
	}
	while ( (NRFD_STATE == 0) && !timedout); /* wait until ready for data (NRFD to get high) */
    2232:	36 9b       	sbis	0x06, 6	; 6
    2234:	f6 cf       	rjmp	.-20     	; 0x2222 <gpib_readStatusByte+0xda>

	if (!timedout)
    2236:	81 11       	cpse	r24, r1
    2238:	3c c0       	rjmp	.+120    	; 0x22b2 <gpib_readStatusByte+0x16a>
	{
		DAV_LOW;
    223a:	26 9a       	sbi	0x04, 6	; 4
    223c:	02 c0       	rjmp	.+4      	; 0x2242 <gpib_readStatusByte+0xfa>
		do
		{
			if (timer_ticked() || quickTimeoutPoll)
				timedout = ptimeoutfunc();
		}
		while ( (NDAC_STATE == 0) && !timedout ); /* wait until NDAC gets high*/
    223e:	81 11       	cpse	r24, r1
    2240:	37 c0       	rjmp	.+110    	; 0x22b0 <gpib_readStatusByte+0x168>
extern volatile bool timer0_ticked; /* flag going high every 100ms - defined in gpib.c */

/* check if 100ms timer ticked. returns true once every 100ms */
static inline bool timer_ticked(void)
{
	bool ticked = timer0_ticked;
    2242:	80 91 51 05 	lds	r24, 0x0551	; 0x800551 <timer0_ticked>
	timer0_ticked = false;
    2246:	10 92 51 05 	sts	0x0551, r1	; 0x800551 <timer0_ticked>
	{
		DAV_LOW;
		do
		{
			if (timer_ticked() || quickTimeoutPoll)
				timedout = ptimeoutfunc();
    224a:	fe 01       	movw	r30, r28
    224c:	09 95       	icall
		}
		while ( (NDAC_STATE == 0) && !timedout ); /* wait until NDAC gets high*/
    224e:	37 9b       	sbis	0x06, 7	; 6
    2250:	f6 cf       	rjmp	.-20     	; 0x223e <gpib_readStatusByte+0xf6>
		DAV_HIGH;
    2252:	26 98       	cbi	0x04, 6	; 4
	}
	
	DDRD = 0x00; /* release data bus */
    2254:	1a b8       	out	0x0a, r1	; 10
	
	if (timedout)
    2256:	81 11       	cpse	r24, r1
    2258:	2d c0       	rjmp	.+90     	; 0x22b4 <gpib_readStatusByte+0x16c>

	
	if (iscommand)
	{ /* set or reset ATN line. It based on a ticket and these delay times are important. The timing was measured on a commercial GPIB adapter. */
		bool atn_was_high = ATN_OUT_STATE;
		if (atn_was_high)
    225a:	86 9b       	sbis	0x10, 6	; 16
    225c:	5d c0       	rjmp	.+186    	; 0x2318 <gpib_readStatusByte+0x1d0>
			_delay_us(220);
		ATN_LOW;
    225e:	86 9a       	sbi	0x10, 6	; 16
		ATN_HIGH;
		if (atn_was_low)
			_delay_us(70);
	}
		
	DAV_HIGH;
    2260:	26 98       	cbi	0x04, 6	; 4
	
	
	NRFD_HIGH;
    2262:	3e 98       	cbi	0x07, 6	; 7
	NDAC_HIGH;  /* they should be already high, but let's enforce it */
    2264:	3f 98       	cbi	0x07, 7	; 7
	

	DDRD = dat;
    2266:	8f e5       	ldi	r24, 0x5F	; 95
    2268:	8a b9       	out	0x0a, r24	; 10
    226a:	02 c0       	rjmp	.+4      	; 0x2270 <gpib_readStatusByte+0x128>
	do
	{
		if (timer_ticked() || quickTimeoutPoll) /* the timeout function can consume significant time */
			timedout = ptimeoutfunc();
	}
	while ( (NRFD_STATE == 0) && !timedout); /* wait until ready for data (NRFD to get high) */
    226c:	81 11       	cpse	r24, r1
    226e:	21 c0       	rjmp	.+66     	; 0x22b2 <gpib_readStatusByte+0x16a>
extern volatile bool timer0_ticked; /* flag going high every 100ms - defined in gpib.c */

/* check if 100ms timer ticked. returns true once every 100ms */
static inline bool timer_ticked(void)
{
	bool ticked = timer0_ticked;
    2270:	80 91 51 05 	lds	r24, 0x0551	; 0x800551 <timer0_ticked>
	timer0_ticked = false;
    2274:	10 92 51 05 	sts	0x0551, r1	; 0x800551 <timer0_ticked>
		
	/* wait until ready for data acceptance (NRFD=H, NDAC=L)*/
	do
	{
		if (timer_ticked() || quickTimeoutPoll) /* the timeout function can consume significant time */
			timedout = ptimeoutfunc();
    2278:	fe 01       	movw	r30, r28
    227a:	09 95       	icall
	}
	while ( (NRFD_STATE == 0) && !timedout); /* wait until ready for data (NRFD to get high) */
    227c:	36 9b       	sbis	0x06, 6	; 6
    227e:	f6 cf       	rjmp	.-20     	; 0x226c <gpib_readStatusByte+0x124>

	if (!timedout)
    2280:	81 11       	cpse	r24, r1
    2282:	17 c0       	rjmp	.+46     	; 0x22b2 <gpib_readStatusByte+0x16a>
	{
		DAV_LOW;
    2284:	26 9a       	sbi	0x04, 6	; 4
    2286:	02 c0       	rjmp	.+4      	; 0x228c <gpib_readStatusByte+0x144>
		do
		{
			if (timer_ticked() || quickTimeoutPoll)
				timedout = ptimeoutfunc();
		}
		while ( (NDAC_STATE == 0) && !timedout ); /* wait until NDAC gets high*/
    2288:	81 11       	cpse	r24, r1
    228a:	12 c0       	rjmp	.+36     	; 0x22b0 <gpib_readStatusByte+0x168>
extern volatile bool timer0_ticked; /* flag going high every 100ms - defined in gpib.c */

/* check if 100ms timer ticked. returns true once every 100ms */
static inline bool timer_ticked(void)
{
	bool ticked = timer0_ticked;
    228c:	80 91 51 05 	lds	r24, 0x0551	; 0x800551 <timer0_ticked>
	timer0_ticked = false;
    2290:	10 92 51 05 	sts	0x0551, r1	; 0x800551 <timer0_ticked>
	{
		DAV_LOW;
		do
		{
			if (timer_ticked() || quickTimeoutPoll)
				timedout = ptimeoutfunc();
    2294:	fe 01       	movw	r30, r28
    2296:	09 95       	icall
		}
		while ( (NDAC_STATE == 0) && !timedout ); /* wait until NDAC gets high*/
    2298:	37 9b       	sbis	0x06, 7	; 6
    229a:	f6 cf       	rjmp	.-20     	; 0x2288 <gpib_readStatusByte+0x140>
		DAV_HIGH;
    229c:	26 98       	cbi	0x04, 6	; 4
	}
	
	DDRD = 0x00; /* release data bus */
    229e:	1a b8       	out	0x0a, r1	; 10
	
	if (timedout)
    22a0:	88 23       	and	r24, r24
    22a2:	09 f4       	brne	.+2      	; 0x22a6 <gpib_readStatusByte+0x15e>
    22a4:	5f cf       	rjmp	.-322    	; 0x2164 <gpib_readStatusByte+0x1c>
		{
			if (timer_ticked() || quickTimeoutPoll)
				timedout = ptimeoutfunc();
		}
		while ( (NDAC_STATE == 0) && !timedout ); /* wait until NDAC gets high*/
		DAV_HIGH;
    22a6:	06 c0       	rjmp	.+12     	; 0x22b4 <gpib_readStatusByte+0x16c>
	}
	
	DDRD = 0x00; /* release data bus */
    22a8:	26 98       	cbi	0x04, 6	; 4
	}
}

void gpib_recover(void)
{
	gpib_init();
    22aa:	1a b8       	out	0x0a, r1	; 10
    22ac:	48 dc       	rcall	.-1904   	; 0x1b3e <gpib_init>
		{
			if (timer_ticked() || quickTimeoutPoll)
				timedout = ptimeoutfunc();
		}
		while ( (NDAC_STATE == 0) && !timedout ); /* wait until NDAC gets high*/
		DAV_HIGH;
    22ae:	58 cf       	rjmp	.-336    	; 0x2160 <gpib_readStatusByte+0x18>
    22b0:	26 98       	cbi	0x04, 6	; 4
    22b2:	1a b8       	out	0x0a, r1	; 10
    22b4:	44 dc       	rcall	.-1912   	; 0x1b3e <gpib_init>

static inline uint8_t gpib_readdat_quick(bool *pEoi, bool *ptimedout, gpibtimeout_t ptimeoutfunc, bool quickTimeoutPoll)
{
	uint8_t c;
	bool eoi, timedout;	
	c = 0;
    22b6:	55 cf       	rjmp	.-342    	; 0x2162 <gpib_readStatusByte+0x1a>
    22b8:	10 e0       	ldi	r17, 0x00	; 0
    22ba:	41 dc       	rcall	.-1918   	; 0x1b3e <gpib_init>
	{
		gpib_recover();
	}
	*ptimedout = timedout;
	
	NRFD_LOW;
    22bc:	3e 9a       	sbi	0x07, 6	; 7
    22be:	51 cf       	rjmp	.-350    	; 0x2162 <gpib_readStatusByte+0x1a>
    22c0:	8f e6       	ldi	r24, 0x6F	; 111
    22c2:	93 e0       	ldi	r25, 0x03	; 3
    22c4:	01 97       	sbiw	r24, 0x01	; 1
    22c6:	f1 f7       	brne	.-4      	; 0x22c4 <gpib_readStatusByte+0x17c>
    22c8:	00 c0       	rjmp	.+0      	; 0x22ca <gpib_readStatusByte+0x182>
    22ca:	00 00       	nop
	if (iscommand)
	{ /* set or reset ATN line. It based on a ticket and these delay times are important. The timing was measured on a commercial GPIB adapter. */
		bool atn_was_high = ATN_OUT_STATE;
		if (atn_was_high)
			_delay_us(220);
		ATN_LOW;
    22cc:	86 9a       	sbi	0x10, 6	; 16
    22ce:	e7 e1       	ldi	r30, 0x17	; 23
    22d0:	f1 e0       	ldi	r31, 0x01	; 1
    22d2:	31 97       	sbiw	r30, 0x01	; 1
    22d4:	f1 f7       	brne	.-4      	; 0x22d2 <gpib_readStatusByte+0x18a>
    22d6:	00 c0       	rjmp	.+0      	; 0x22d8 <gpib_readStatusByte+0x190>
    22d8:	00 00       	nop
    22da:	9d cf       	rjmp	.-198    	; 0x2216 <gpib_readStatusByte+0xce>
    22dc:	8f e6       	ldi	r24, 0x6F	; 111
    22de:	93 e0       	ldi	r25, 0x03	; 3
    22e0:	01 97       	sbiw	r24, 0x01	; 1
    22e2:	f1 f7       	brne	.-4      	; 0x22e0 <gpib_readStatusByte+0x198>
    22e4:	00 c0       	rjmp	.+0      	; 0x22e6 <gpib_readStatusByte+0x19e>
    22e6:	00 00       	nop
    22e8:	86 9a       	sbi	0x10, 6	; 16
    22ea:	e7 e1       	ldi	r30, 0x17	; 23
    22ec:	f1 e0       	ldi	r31, 0x01	; 1
    22ee:	31 97       	sbiw	r30, 0x01	; 1
    22f0:	f1 f7       	brne	.-4      	; 0x22ee <gpib_readStatusByte+0x1a6>
    22f2:	00 c0       	rjmp	.+0      	; 0x22f4 <gpib_readStatusByte+0x1ac>
    22f4:	00 00       	nop
    22f6:	40 cf       	rjmp	.-384    	; 0x2178 <gpib_readStatusByte+0x30>
    22f8:	8f e6       	ldi	r24, 0x6F	; 111
    22fa:	93 e0       	ldi	r25, 0x03	; 3
    22fc:	01 97       	sbiw	r24, 0x01	; 1
    22fe:	f1 f7       	brne	.-4      	; 0x22fc <gpib_readStatusByte+0x1b4>
    2300:	00 c0       	rjmp	.+0      	; 0x2302 <gpib_readStatusByte+0x1ba>
    2302:	00 00       	nop
	
	// ensure that ATN is high
	bool atn_was_low = !ATN_OUT_STATE;
	if (atn_was_low)
		_delay_us(220);
	ATN_HIGH;
    2304:	86 98       	cbi	0x10, 6	; 16
	
	/* skipping NRFD LOW step, because we are able to handshake and response to data */
	NDAC_LOW;
    2306:	3f 9a       	sbi	0x07, 7	; 7
	NRFD_HIGH;
    2308:	3e 98       	cbi	0x07, 6	; 7
    230a:	e7 e1       	ldi	r30, 0x17	; 23
    230c:	f1 e0       	ldi	r31, 0x01	; 1
    230e:	31 97       	sbiw	r30, 0x01	; 1
    2310:	f1 f7       	brne	.-4      	; 0x230e <gpib_readStatusByte+0x1c6>
    2312:	00 c0       	rjmp	.+0      	; 0x2314 <gpib_readStatusByte+0x1cc>
    2314:	00 00       	nop
    2316:	5f cf       	rjmp	.-322    	; 0x21d6 <gpib_readStatusByte+0x8e>
    2318:	8f e6       	ldi	r24, 0x6F	; 111
    231a:	93 e0       	ldi	r25, 0x03	; 3
    231c:	01 97       	sbiw	r24, 0x01	; 1
    231e:	f1 f7       	brne	.-4      	; 0x231c <gpib_readStatusByte+0x1d4>
    2320:	00 c0       	rjmp	.+0      	; 0x2322 <gpib_readStatusByte+0x1da>
    2322:	00 00       	nop
	if (iscommand)
	{ /* set or reset ATN line. It based on a ticket and these delay times are important. The timing was measured on a commercial GPIB adapter. */
		bool atn_was_high = ATN_OUT_STATE;
		if (atn_was_high)
			_delay_us(220);
		ATN_LOW;
    2324:	86 9a       	sbi	0x10, 6	; 16
    2326:	e7 e1       	ldi	r30, 0x17	; 23
    2328:	f1 e0       	ldi	r31, 0x01	; 1
    232a:	31 97       	sbiw	r30, 0x01	; 1
    232c:	f1 f7       	brne	.-4      	; 0x232a <gpib_readStatusByte+0x1e2>
    232e:	00 c0       	rjmp	.+0      	; 0x2330 <gpib_readStatusByte+0x1e8>
    2330:	00 00       	nop
    2332:	96 cf       	rjmp	.-212    	; 0x2260 <gpib_readStatusByte+0x118>

00002334 <gpib_is_connected>:
	timer_init(); /* init timeout timer */
}

bool gpib_is_connected(void)
{
	if ( (DDRF & (1<<6)) != 0 )
    2334:	86 9b       	sbis	0x10, 6	; 16
    2336:	0d c0       	rjmp	.+26     	; 0x2352 <gpib_is_connected+0x1e>
	{
		if (!s_gpib_transaction_active) /* only check, if no GPIB transaction is active */
    2338:	80 91 54 05 	lds	r24, 0x0554	; 0x800554 <s_gpib_transaction_active>
    233c:	81 11       	cpse	r24, r1
	else
	{
		//return s_device_state == GPIB_DEVICE_CONNECTSTATE_CONNECTED;
	}
	return !!ATN_STATE; /* is ATN LOW? This can only happen if no GPIB device is connected/powered */		
}
    233e:	08 95       	ret
    2340:	85 e3       	ldi	r24, 0x35	; 53
    2342:	8a 95       	dec	r24
    2344:	f1 f7       	brne	.-4      	; 0x2342 <gpib_is_connected+0xe>
    2346:	00 00       	nop
	if ( (DDRF & (1<<6)) != 0 )
	{
		if (!s_gpib_transaction_active) /* only check, if no GPIB transaction is active */
		{
			_delay_us(10);
			ATN_HIGH; 
    2348:	86 98       	cbi	0x10, 6	; 16
    234a:	85 e3       	ldi	r24, 0x35	; 53
    234c:	8a 95       	dec	r24
    234e:	f1 f7       	brne	.-4      	; 0x234c <gpib_is_connected+0x18>
    2350:	00 00       	nop
	}
	else
	{
		//return s_device_state == GPIB_DEVICE_CONNECTSTATE_CONNECTED;
	}
	return !!ATN_STATE; /* is ATN LOW? This can only happen if no GPIB device is connected/powered */		
    2352:	8f b1       	in	r24, 0x0f	; 15
    2354:	86 fb       	bst	r24, 6
    2356:	88 27       	eor	r24, r24
    2358:	80 f9       	bld	r24, 0
}
    235a:	08 95       	ret

0000235c <gpib_ren>:

void gpib_ren(bool enable)
{
	if (enable)
    235c:	81 11       	cpse	r24, r1
    235e:	02 c0       	rjmp	.+4      	; 0x2364 <gpib_ren+0x8>
	{
		REN_LOW; /* remote enable */
	}
	else
	{
		REN_HIGH; /* remote disable */
    2360:	25 98       	cbi	0x04, 5	; 4
    2362:	08 95       	ret

void gpib_ren(bool enable)
{
	if (enable)
	{
		REN_LOW; /* remote enable */
    2364:	25 9a       	sbi	0x04, 5	; 4
    2366:	08 95       	ret

00002368 <gpib_interface_clear>:



void gpib_interface_clear(void)
{
	NRFD_HIGH;
    2368:	3e 98       	cbi	0x07, 6	; 7
	IFC_LOW; /* interface clear */
    236a:	6a 9a       	sbi	0x0d, 2	; 13
    236c:	8f ed       	ldi	r24, 0xDF	; 223
    236e:	91 e0       	ldi	r25, 0x01	; 1
    2370:	01 97       	sbiw	r24, 0x01	; 1
    2372:	f1 f7       	brne	.-4      	; 0x2370 <gpib_interface_clear+0x8>
    2374:	00 c0       	rjmp	.+0      	; 0x2376 <gpib_interface_clear+0xe>
    2376:	00 00       	nop
	_delay_us(120);
	IFC_HIGH; /* interface clear */
    2378:	6a 98       	cbi	0x0d, 2	; 13
	#else
		//round up by default
		__ticks_dc = (uint32_t)(ceil(fabs(__tmp)));
	#endif

	__builtin_avr_delay_cycles(__ticks_dc);
    237a:	8f e3       	ldi	r24, 0x3F	; 63
    237c:	9c e9       	ldi	r25, 0x9C	; 156
    237e:	01 97       	sbiw	r24, 0x01	; 1
    2380:	f1 f7       	brne	.-4      	; 0x237e <gpib_interface_clear+0x16>
    2382:	00 c0       	rjmp	.+0      	; 0x2384 <gpib_interface_clear+0x1c>
    2384:	00 00       	nop
	_delay_ms(10);
	s_gpib_transaction_active = false;
    2386:	10 92 54 05 	sts	0x0554, r1	; 0x800554 <s_gpib_transaction_active>
    238a:	08 95       	ret

0000238c <gpib_readdat>:




uint8_t gpib_readdat(bool *pEoi, bool *ptimedout, gpibtimeout_t ptimeoutfunc)
{
    238c:	bf 92       	push	r11
    238e:	cf 92       	push	r12
    2390:	df 92       	push	r13
    2392:	ef 92       	push	r14
    2394:	ff 92       	push	r15
    2396:	0f 93       	push	r16
    2398:	1f 93       	push	r17
    239a:	cf 93       	push	r28
    239c:	df 93       	push	r29
    239e:	7c 01       	movw	r14, r24
    23a0:	6b 01       	movw	r12, r22
    23a2:	ea 01       	movw	r28, r20

	timedout = false;
	
	// ensure that ATN is high
	bool atn_was_low = !ATN_OUT_STATE;
	if (atn_was_low)
    23a4:	86 99       	sbic	0x10, 6	; 16
    23a6:	46 c0       	rjmp	.+140    	; 0x2434 <gpib_readdat+0xa8>
		_delay_us(220);
	ATN_HIGH;
    23a8:	86 98       	cbi	0x10, 6	; 16
	
	/* skipping NRFD LOW step, because we are able to handshake and response to data */
	NDAC_LOW;
    23aa:	3f 9a       	sbi	0x07, 7	; 7
	NRFD_HIGH;
    23ac:	3e 98       	cbi	0x07, 6	; 7
    23ae:	02 c0       	rjmp	.+4      	; 0x23b4 <gpib_readdat+0x28>
	do
	{
		if (timer_ticked() || quickTimeoutPoll)
			timedout = ptimeoutfunc();
	}
	while ( (DAV_STATE != 0) && !timedout ); /* wait until DAV gets low */
    23b0:	81 11       	cpse	r24, r1
    23b2:	27 c0       	rjmp	.+78     	; 0x2402 <gpib_readdat+0x76>
extern volatile bool timer0_ticked; /* flag going high every 100ms - defined in gpib.c */

/* check if 100ms timer ticked. returns true once every 100ms */
static inline bool timer_ticked(void)
{
	bool ticked = timer0_ticked;
    23b4:	80 91 51 05 	lds	r24, 0x0551	; 0x800551 <timer0_ticked>
	timer0_ticked = false;
    23b8:	10 92 51 05 	sts	0x0551, r1	; 0x800551 <timer0_ticked>
	
	
	do
	{
		if (timer_ticked() || quickTimeoutPoll)
			timedout = ptimeoutfunc();
    23bc:	fe 01       	movw	r30, r28
    23be:	09 95       	icall
	}
	while ( (DAV_STATE != 0) && !timedout ); /* wait until DAV gets low */
    23c0:	1e 99       	sbic	0x03, 6	; 3
    23c2:	f6 cf       	rjmp	.-20     	; 0x23b0 <gpib_readdat+0x24>
	
	if (!timedout)
    23c4:	81 11       	cpse	r24, r1
    23c6:	1d c0       	rjmp	.+58     	; 0x2402 <gpib_readdat+0x76>
	{
		NRFD_LOW;
    23c8:	3e 9a       	sbi	0x07, 6	; 7
		c = ~PIND;
    23ca:	09 b1       	in	r16, 0x09	; 9
    23cc:	00 95       	com	r16
		eoi = (EOI_STATE == 0) ;
    23ce:	83 b1       	in	r24, 0x03	; 3
    23d0:	80 71       	andi	r24, 0x10	; 16
    23d2:	b8 2e       	mov	r11, r24
		NDAC_HIGH;
    23d4:	3f 98       	cbi	0x07, 7	; 7
    23d6:	02 c0       	rjmp	.+4      	; 0x23dc <gpib_readdat+0x50>
		do
		{
			if (timer_ticked() || quickTimeoutPoll)
				timedout = ptimeoutfunc();
		}
		while ( (DAV_STATE == 0) && !timedout ); /* wait until DAV gets high */
    23d8:	81 11       	cpse	r24, r1
    23da:	09 c0       	rjmp	.+18     	; 0x23ee <gpib_readdat+0x62>
extern volatile bool timer0_ticked; /* flag going high every 100ms - defined in gpib.c */

/* check if 100ms timer ticked. returns true once every 100ms */
static inline bool timer_ticked(void)
{
	bool ticked = timer0_ticked;
    23dc:	80 91 51 05 	lds	r24, 0x0551	; 0x800551 <timer0_ticked>
	timer0_ticked = false;
    23e0:	10 92 51 05 	sts	0x0551, r1	; 0x800551 <timer0_ticked>
		NDAC_HIGH;
		
		do
		{
			if (timer_ticked() || quickTimeoutPoll)
				timedout = ptimeoutfunc();
    23e4:	fe 01       	movw	r30, r28
    23e6:	09 95       	icall
    23e8:	18 2f       	mov	r17, r24
		}
		while ( (DAV_STATE == 0) && !timedout ); /* wait until DAV gets high */
    23ea:	1e 9b       	sbis	0x03, 6	; 3
    23ec:	f5 cf       	rjmp	.-22     	; 0x23d8 <gpib_readdat+0x4c>
	}

	
	if (s_terminator == '\0')
    23ee:	80 91 50 05 	lds	r24, 0x0550	; 0x800550 <s_terminator>
    23f2:	88 23       	and	r24, r24
    23f4:	79 f1       	breq	.+94     	; 0x2454 <gpib_readdat+0xc8>
		*pEoi = eoi;
	else
		*pEoi = eoi || (c == s_terminator);
    23f6:	91 e0       	ldi	r25, 0x01	; 1
    23f8:	b1 10       	cpse	r11, r1
    23fa:	34 c0       	rjmp	.+104    	; 0x2464 <gpib_readdat+0xd8>
    23fc:	f7 01       	movw	r30, r14
    23fe:	90 83       	st	Z, r25
    2400:	09 c0       	rjmp	.+18     	; 0x2414 <gpib_readdat+0x88>
		}
		while ( (DAV_STATE == 0) && !timedout ); /* wait until DAV gets high */
	}

	
	if (s_terminator == '\0')
    2402:	80 91 50 05 	lds	r24, 0x0550	; 0x800550 <s_terminator>
    2406:	81 11       	cpse	r24, r1
    2408:	29 c0       	rjmp	.+82     	; 0x245c <gpib_readdat+0xd0>
    240a:	11 e0       	ldi	r17, 0x01	; 1
    240c:	00 e0       	ldi	r16, 0x00	; 0
    240e:	80 e0       	ldi	r24, 0x00	; 0
		*pEoi = eoi;
    2410:	f7 01       	movw	r30, r14
    2412:	80 83       	st	Z, r24
	else
		*pEoi = eoi || (c == s_terminator);

	if (timedout)
    2414:	11 11       	cpse	r17, r1
	}
}

void gpib_recover(void)
{
	gpib_init();
    2416:	93 db       	rcall	.-2266   	; 0x1b3e <gpib_init>
	{
		gpib_recover();
	}
	*ptimedout = timedout;
    2418:	f6 01       	movw	r30, r12
    241a:	10 83       	st	Z, r17
	
	NRFD_LOW;
    241c:	3e 9a       	sbi	0x07, 6	; 7


uint8_t gpib_readdat(bool *pEoi, bool *ptimedout, gpibtimeout_t ptimeoutfunc)
{
	return gpib_readdat_quick(pEoi, ptimedout, ptimeoutfunc, true);
};
    241e:	80 2f       	mov	r24, r16
    2420:	df 91       	pop	r29
    2422:	cf 91       	pop	r28
    2424:	1f 91       	pop	r17
    2426:	0f 91       	pop	r16
    2428:	ff 90       	pop	r15
    242a:	ef 90       	pop	r14
    242c:	df 90       	pop	r13
    242e:	cf 90       	pop	r12
    2430:	bf 90       	pop	r11
    2432:	08 95       	ret
	#else
		//round up by default
		__ticks_dc = (uint32_t)(ceil(fabs(__tmp)));
	#endif

	__builtin_avr_delay_cycles(__ticks_dc);
    2434:	8f e6       	ldi	r24, 0x6F	; 111
    2436:	93 e0       	ldi	r25, 0x03	; 3
    2438:	01 97       	sbiw	r24, 0x01	; 1
    243a:	f1 f7       	brne	.-4      	; 0x2438 <gpib_readdat+0xac>
    243c:	00 c0       	rjmp	.+0      	; 0x243e <gpib_readdat+0xb2>
    243e:	00 00       	nop
	
	// ensure that ATN is high
	bool atn_was_low = !ATN_OUT_STATE;
	if (atn_was_low)
		_delay_us(220);
	ATN_HIGH;
    2440:	86 98       	cbi	0x10, 6	; 16
	
	/* skipping NRFD LOW step, because we are able to handshake and response to data */
	NDAC_LOW;
    2442:	3f 9a       	sbi	0x07, 7	; 7
	NRFD_HIGH;
    2444:	3e 98       	cbi	0x07, 6	; 7
    2446:	e7 e1       	ldi	r30, 0x17	; 23
    2448:	f1 e0       	ldi	r31, 0x01	; 1
    244a:	31 97       	sbiw	r30, 0x01	; 1
    244c:	f1 f7       	brne	.-4      	; 0x244a <gpib_readdat+0xbe>
    244e:	00 c0       	rjmp	.+0      	; 0x2450 <gpib_readdat+0xc4>
    2450:	00 00       	nop
    2452:	b0 cf       	rjmp	.-160    	; 0x23b4 <gpib_readdat+0x28>
	
	if (!timedout)
	{
		NRFD_LOW;
		c = ~PIND;
		eoi = (EOI_STATE == 0) ;
    2454:	81 e0       	ldi	r24, 0x01	; 1
    2456:	bb 20       	and	r11, r11
    2458:	d9 f2       	breq	.-74     	; 0x2410 <gpib_readdat+0x84>
    245a:	d9 cf       	rjmp	.-78     	; 0x240e <gpib_readdat+0x82>
		}
		while ( (DAV_STATE == 0) && !timedout ); /* wait until DAV gets high */
	}

	
	if (s_terminator == '\0')
    245c:	90 e0       	ldi	r25, 0x00	; 0
    245e:	11 e0       	ldi	r17, 0x01	; 1
    2460:	00 e0       	ldi	r16, 0x00	; 0
    2462:	cc cf       	rjmp	.-104    	; 0x23fc <gpib_readdat+0x70>
    2464:	08 17       	cp	r16, r24
    2466:	51 f2       	breq	.-108    	; 0x23fc <gpib_readdat+0x70>
    2468:	90 e0       	ldi	r25, 0x00	; 0
    246a:	c8 cf       	rjmp	.-112    	; 0x23fc <gpib_readdat+0x70>

0000246c <gpib_untalk_unlisten>:

bool gpib_untalk_unlisten(gpibtimeout_t ptimeoutfunc)
{
    246c:	cf 93       	push	r28
    246e:	df 93       	push	r29
    2470:	ec 01       	movw	r28, r24

	
	if (iscommand)
	{ /* set or reset ATN line. It based on a ticket and these delay times are important. The timing was measured on a commercial GPIB adapter. */
		bool atn_was_high = ATN_OUT_STATE;
		if (atn_was_high)
    2472:	86 9b       	sbis	0x10, 6	; 16
    2474:	53 c0       	rjmp	.+166    	; 0x251c <gpib_untalk_unlisten+0xb0>
			_delay_us(220);
		ATN_LOW;
    2476:	86 9a       	sbi	0x10, 6	; 16
		ATN_HIGH;
		if (atn_was_low)
			_delay_us(70);
	}
		
	DAV_HIGH;
    2478:	26 98       	cbi	0x04, 6	; 4
	
	
	NRFD_HIGH;
    247a:	3e 98       	cbi	0x07, 6	; 7
	NDAC_HIGH;  /* they should be already high, but let's enforce it */
    247c:	3f 98       	cbi	0x07, 7	; 7
	

	DDRD = dat;
    247e:	8f e3       	ldi	r24, 0x3F	; 63
    2480:	8a b9       	out	0x0a, r24	; 10
    2482:	02 c0       	rjmp	.+4      	; 0x2488 <gpib_untalk_unlisten+0x1c>
	do
	{
		if (timer_ticked() || quickTimeoutPoll) /* the timeout function can consume significant time */
			timedout = ptimeoutfunc();
	}
	while ( (NRFD_STATE == 0) && !timedout); /* wait until ready for data (NRFD to get high) */
    2484:	81 11       	cpse	r24, r1
    2486:	41 c0       	rjmp	.+130    	; 0x250a <gpib_untalk_unlisten+0x9e>
extern volatile bool timer0_ticked; /* flag going high every 100ms - defined in gpib.c */

/* check if 100ms timer ticked. returns true once every 100ms */
static inline bool timer_ticked(void)
{
	bool ticked = timer0_ticked;
    2488:	80 91 51 05 	lds	r24, 0x0551	; 0x800551 <timer0_ticked>
	timer0_ticked = false;
    248c:	10 92 51 05 	sts	0x0551, r1	; 0x800551 <timer0_ticked>
		
	/* wait until ready for data acceptance (NRFD=H, NDAC=L)*/
	do
	{
		if (timer_ticked() || quickTimeoutPoll) /* the timeout function can consume significant time */
			timedout = ptimeoutfunc();
    2490:	fe 01       	movw	r30, r28
    2492:	09 95       	icall
	}
	while ( (NRFD_STATE == 0) && !timedout); /* wait until ready for data (NRFD to get high) */
    2494:	36 9b       	sbis	0x06, 6	; 6
    2496:	f6 cf       	rjmp	.-20     	; 0x2484 <gpib_untalk_unlisten+0x18>

	if (!timedout)
    2498:	81 11       	cpse	r24, r1
    249a:	37 c0       	rjmp	.+110    	; 0x250a <gpib_untalk_unlisten+0x9e>
	{
		DAV_LOW;
    249c:	26 9a       	sbi	0x04, 6	; 4
    249e:	02 c0       	rjmp	.+4      	; 0x24a4 <gpib_untalk_unlisten+0x38>
		do
		{
			if (timer_ticked() || quickTimeoutPoll)
				timedout = ptimeoutfunc();
		}
		while ( (NDAC_STATE == 0) && !timedout ); /* wait until NDAC gets high*/
    24a0:	81 11       	cpse	r24, r1
    24a2:	32 c0       	rjmp	.+100    	; 0x2508 <gpib_untalk_unlisten+0x9c>
extern volatile bool timer0_ticked; /* flag going high every 100ms - defined in gpib.c */

/* check if 100ms timer ticked. returns true once every 100ms */
static inline bool timer_ticked(void)
{
	bool ticked = timer0_ticked;
    24a4:	80 91 51 05 	lds	r24, 0x0551	; 0x800551 <timer0_ticked>
	timer0_ticked = false;
    24a8:	10 92 51 05 	sts	0x0551, r1	; 0x800551 <timer0_ticked>
	{
		DAV_LOW;
		do
		{
			if (timer_ticked() || quickTimeoutPoll)
				timedout = ptimeoutfunc();
    24ac:	fe 01       	movw	r30, r28
    24ae:	09 95       	icall
		}
		while ( (NDAC_STATE == 0) && !timedout ); /* wait until NDAC gets high*/
    24b0:	37 9b       	sbis	0x06, 7	; 6
    24b2:	f6 cf       	rjmp	.-20     	; 0x24a0 <gpib_untalk_unlisten+0x34>
		DAV_HIGH;
    24b4:	26 98       	cbi	0x04, 6	; 4
	}
	
	DDRD = 0x00; /* release data bus */
    24b6:	1a b8       	out	0x0a, r1	; 10
	
	if (timedout)
    24b8:	81 11       	cpse	r24, r1
    24ba:	28 c0       	rjmp	.+80     	; 0x250c <gpib_untalk_unlisten+0xa0>

	
	if (iscommand)
	{ /* set or reset ATN line. It based on a ticket and these delay times are important. The timing was measured on a commercial GPIB adapter. */
		bool atn_was_high = ATN_OUT_STATE;
		if (atn_was_high)
    24bc:	86 9b       	sbis	0x10, 6	; 16
    24be:	3c c0       	rjmp	.+120    	; 0x2538 <gpib_untalk_unlisten+0xcc>
			_delay_us(220);
		ATN_LOW;
    24c0:	86 9a       	sbi	0x10, 6	; 16
		ATN_HIGH;
		if (atn_was_low)
			_delay_us(70);
	}
		
	DAV_HIGH;
    24c2:	26 98       	cbi	0x04, 6	; 4
	
	
	NRFD_HIGH;
    24c4:	3e 98       	cbi	0x07, 6	; 7
	NDAC_HIGH;  /* they should be already high, but let's enforce it */
    24c6:	3f 98       	cbi	0x07, 7	; 7
	

	DDRD = dat;
    24c8:	8f e5       	ldi	r24, 0x5F	; 95
    24ca:	8a b9       	out	0x0a, r24	; 10
    24cc:	02 c0       	rjmp	.+4      	; 0x24d2 <gpib_untalk_unlisten+0x66>
	do
	{
		if (timer_ticked() || quickTimeoutPoll) /* the timeout function can consume significant time */
			timedout = ptimeoutfunc();
	}
	while ( (NRFD_STATE == 0) && !timedout); /* wait until ready for data (NRFD to get high) */
    24ce:	81 11       	cpse	r24, r1
    24d0:	1c c0       	rjmp	.+56     	; 0x250a <gpib_untalk_unlisten+0x9e>
extern volatile bool timer0_ticked; /* flag going high every 100ms - defined in gpib.c */

/* check if 100ms timer ticked. returns true once every 100ms */
static inline bool timer_ticked(void)
{
	bool ticked = timer0_ticked;
    24d2:	80 91 51 05 	lds	r24, 0x0551	; 0x800551 <timer0_ticked>
	timer0_ticked = false;
    24d6:	10 92 51 05 	sts	0x0551, r1	; 0x800551 <timer0_ticked>
		
	/* wait until ready for data acceptance (NRFD=H, NDAC=L)*/
	do
	{
		if (timer_ticked() || quickTimeoutPoll) /* the timeout function can consume significant time */
			timedout = ptimeoutfunc();
    24da:	fe 01       	movw	r30, r28
    24dc:	09 95       	icall
	}
	while ( (NRFD_STATE == 0) && !timedout); /* wait until ready for data (NRFD to get high) */
    24de:	36 9b       	sbis	0x06, 6	; 6
    24e0:	f6 cf       	rjmp	.-20     	; 0x24ce <gpib_untalk_unlisten+0x62>

	if (!timedout)
    24e2:	81 11       	cpse	r24, r1
    24e4:	12 c0       	rjmp	.+36     	; 0x250a <gpib_untalk_unlisten+0x9e>
	{
		DAV_LOW;
    24e6:	26 9a       	sbi	0x04, 6	; 4
    24e8:	02 c0       	rjmp	.+4      	; 0x24ee <gpib_untalk_unlisten+0x82>
		do
		{
			if (timer_ticked() || quickTimeoutPoll)
				timedout = ptimeoutfunc();
		}
		while ( (NDAC_STATE == 0) && !timedout ); /* wait until NDAC gets high*/
    24ea:	81 11       	cpse	r24, r1
    24ec:	0d c0       	rjmp	.+26     	; 0x2508 <gpib_untalk_unlisten+0x9c>
extern volatile bool timer0_ticked; /* flag going high every 100ms - defined in gpib.c */

/* check if 100ms timer ticked. returns true once every 100ms */
static inline bool timer_ticked(void)
{
	bool ticked = timer0_ticked;
    24ee:	80 91 51 05 	lds	r24, 0x0551	; 0x800551 <timer0_ticked>
	timer0_ticked = false;
    24f2:	10 92 51 05 	sts	0x0551, r1	; 0x800551 <timer0_ticked>
	{
		DAV_LOW;
		do
		{
			if (timer_ticked() || quickTimeoutPoll)
				timedout = ptimeoutfunc();
    24f6:	fe 01       	movw	r30, r28
    24f8:	09 95       	icall
		}
		while ( (NDAC_STATE == 0) && !timedout ); /* wait until NDAC gets high*/
    24fa:	37 9b       	sbis	0x06, 7	; 6
    24fc:	f6 cf       	rjmp	.-20     	; 0x24ea <gpib_untalk_unlisten+0x7e>
		DAV_HIGH;
    24fe:	26 98       	cbi	0x04, 6	; 4
	}
	
	DDRD = 0x00; /* release data bus */
    2500:	1a b8       	out	0x0a, r1	; 10
	
	if (timedout)
    2502:	88 23       	and	r24, r24
    2504:	31 f0       	breq	.+12     	; 0x2512 <gpib_untalk_unlisten+0xa6>
    2506:	02 c0       	rjmp	.+4      	; 0x250c <gpib_untalk_unlisten+0xa0>
		{
			if (timer_ticked() || quickTimeoutPoll)
				timedout = ptimeoutfunc();
		}
		while ( (NDAC_STATE == 0) && !timedout ); /* wait until NDAC gets high*/
		DAV_HIGH;
    2508:	26 98       	cbi	0x04, 6	; 4
	}
	
	DDRD = 0x00; /* release data bus */
    250a:	1a b8       	out	0x0a, r1	; 10
	}
}

void gpib_recover(void)
{
	gpib_init();
    250c:	18 db       	rcall	.-2512   	; 0x1b3e <gpib_init>
    250e:	17 db       	rcall	.-2514   	; 0x1b3e <gpib_init>
    2510:	81 e0       	ldi	r24, 0x01	; 1
	if (!timedout)
		timedout = gpib_cmd_UNT(ptimeoutfunc);
	if (timedout)
		gpib_recover();
		
	s_gpib_transaction_active = false;
    2512:	10 92 54 05 	sts	0x0554, r1	; 0x800554 <s_gpib_transaction_active>
	return timedout;
}
    2516:	df 91       	pop	r29
    2518:	cf 91       	pop	r28
    251a:	08 95       	ret
    251c:	8f e6       	ldi	r24, 0x6F	; 111
    251e:	93 e0       	ldi	r25, 0x03	; 3
    2520:	01 97       	sbiw	r24, 0x01	; 1
    2522:	f1 f7       	brne	.-4      	; 0x2520 <gpib_untalk_unlisten+0xb4>
    2524:	00 c0       	rjmp	.+0      	; 0x2526 <gpib_untalk_unlisten+0xba>
    2526:	00 00       	nop
	if (iscommand)
	{ /* set or reset ATN line. It based on a ticket and these delay times are important. The timing was measured on a commercial GPIB adapter. */
		bool atn_was_high = ATN_OUT_STATE;
		if (atn_was_high)
			_delay_us(220);
		ATN_LOW;
    2528:	86 9a       	sbi	0x10, 6	; 16
    252a:	e7 e1       	ldi	r30, 0x17	; 23
    252c:	f1 e0       	ldi	r31, 0x01	; 1
    252e:	31 97       	sbiw	r30, 0x01	; 1
    2530:	f1 f7       	brne	.-4      	; 0x252e <gpib_untalk_unlisten+0xc2>
    2532:	00 c0       	rjmp	.+0      	; 0x2534 <gpib_untalk_unlisten+0xc8>
    2534:	00 00       	nop
    2536:	a0 cf       	rjmp	.-192    	; 0x2478 <gpib_untalk_unlisten+0xc>
    2538:	8f e6       	ldi	r24, 0x6F	; 111
    253a:	93 e0       	ldi	r25, 0x03	; 3
    253c:	01 97       	sbiw	r24, 0x01	; 1
    253e:	f1 f7       	brne	.-4      	; 0x253c <gpib_untalk_unlisten+0xd0>
    2540:	00 c0       	rjmp	.+0      	; 0x2542 <gpib_untalk_unlisten+0xd6>
    2542:	00 00       	nop
    2544:	86 9a       	sbi	0x10, 6	; 16
    2546:	e7 e1       	ldi	r30, 0x17	; 23
    2548:	f1 e0       	ldi	r31, 0x01	; 1
    254a:	31 97       	sbiw	r30, 0x01	; 1
    254c:	f1 f7       	brne	.-4      	; 0x254a <gpib_untalk_unlisten+0xde>
    254e:	00 c0       	rjmp	.+0      	; 0x2550 <gpib_untalk_unlisten+0xe4>
    2550:	00 00       	nop
    2552:	b7 cf       	rjmp	.-146    	; 0x24c2 <gpib_untalk_unlisten+0x56>

00002554 <gpib_make_talker>:

bool  gpib_make_talker(uint8_t addr, gpibtimeout_t ptimeoutfunc)
{
    2554:	1f 93       	push	r17
    2556:	cf 93       	push	r28
    2558:	df 93       	push	r29
    255a:	18 2f       	mov	r17, r24
    255c:	eb 01       	movw	r28, r22
	bool timedout;
	
	s_gpib_transaction_active = true;
    255e:	81 e0       	ldi	r24, 0x01	; 1
    2560:	80 93 54 05 	sts	0x0554, r24	; 0x800554 <s_gpib_transaction_active>

	
	if (iscommand)
	{ /* set or reset ATN line. It based on a ticket and these delay times are important. The timing was measured on a commercial GPIB adapter. */
		bool atn_was_high = ATN_OUT_STATE;
		if (atn_was_high)
    2564:	86 9b       	sbis	0x10, 6	; 16
    2566:	3c c0       	rjmp	.+120    	; 0x25e0 <gpib_make_talker+0x8c>
			_delay_us(220);
		ATN_LOW;
    2568:	86 9a       	sbi	0x10, 6	; 16
		ATN_HIGH;
		if (atn_was_low)
			_delay_us(70);
	}
		
	DAV_HIGH;
    256a:	26 98       	cbi	0x04, 6	; 4
	
	
	NRFD_HIGH;
    256c:	3e 98       	cbi	0x07, 6	; 7
	NDAC_HIGH;  /* they should be already high, but let's enforce it */
    256e:	3f 98       	cbi	0x07, 7	; 7
	

	DDRD = dat;
    2570:	8f e3       	ldi	r24, 0x3F	; 63
    2572:	8a b9       	out	0x0a, r24	; 10
    2574:	02 c0       	rjmp	.+4      	; 0x257a <gpib_make_talker+0x26>
	do
	{
		if (timer_ticked() || quickTimeoutPoll) /* the timeout function can consume significant time */
			timedout = ptimeoutfunc();
	}
	while ( (NRFD_STATE == 0) && !timedout); /* wait until ready for data (NRFD to get high) */
    2576:	81 11       	cpse	r24, r1
    2578:	2a c0       	rjmp	.+84     	; 0x25ce <gpib_make_talker+0x7a>
extern volatile bool timer0_ticked; /* flag going high every 100ms - defined in gpib.c */

/* check if 100ms timer ticked. returns true once every 100ms */
static inline bool timer_ticked(void)
{
	bool ticked = timer0_ticked;
    257a:	80 91 51 05 	lds	r24, 0x0551	; 0x800551 <timer0_ticked>
	timer0_ticked = false;
    257e:	10 92 51 05 	sts	0x0551, r1	; 0x800551 <timer0_ticked>
		
	/* wait until ready for data acceptance (NRFD=H, NDAC=L)*/
	do
	{
		if (timer_ticked() || quickTimeoutPoll) /* the timeout function can consume significant time */
			timedout = ptimeoutfunc();
    2582:	fe 01       	movw	r30, r28
    2584:	09 95       	icall
	}
	while ( (NRFD_STATE == 0) && !timedout); /* wait until ready for data (NRFD to get high) */
    2586:	36 9b       	sbis	0x06, 6	; 6
    2588:	f6 cf       	rjmp	.-20     	; 0x2576 <gpib_make_talker+0x22>

	if (!timedout)
    258a:	81 11       	cpse	r24, r1
    258c:	20 c0       	rjmp	.+64     	; 0x25ce <gpib_make_talker+0x7a>
	{
		DAV_LOW;
    258e:	26 9a       	sbi	0x04, 6	; 4
    2590:	02 c0       	rjmp	.+4      	; 0x2596 <gpib_make_talker+0x42>
		do
		{
			if (timer_ticked() || quickTimeoutPoll)
				timedout = ptimeoutfunc();
		}
		while ( (NDAC_STATE == 0) && !timedout ); /* wait until NDAC gets high*/
    2592:	81 11       	cpse	r24, r1
    2594:	1b c0       	rjmp	.+54     	; 0x25cc <gpib_make_talker+0x78>
extern volatile bool timer0_ticked; /* flag going high every 100ms - defined in gpib.c */

/* check if 100ms timer ticked. returns true once every 100ms */
static inline bool timer_ticked(void)
{
	bool ticked = timer0_ticked;
    2596:	80 91 51 05 	lds	r24, 0x0551	; 0x800551 <timer0_ticked>
	timer0_ticked = false;
    259a:	10 92 51 05 	sts	0x0551, r1	; 0x800551 <timer0_ticked>
	{
		DAV_LOW;
		do
		{
			if (timer_ticked() || quickTimeoutPoll)
				timedout = ptimeoutfunc();
    259e:	fe 01       	movw	r30, r28
    25a0:	09 95       	icall
		}
		while ( (NDAC_STATE == 0) && !timedout ); /* wait until NDAC gets high*/
    25a2:	37 9b       	sbis	0x06, 7	; 6
    25a4:	f6 cf       	rjmp	.-20     	; 0x2592 <gpib_make_talker+0x3e>
		DAV_HIGH;
    25a6:	26 98       	cbi	0x04, 6	; 4
	}
	
	DDRD = 0x00; /* release data bus */
    25a8:	1a b8       	out	0x0a, r1	; 10
	
	if (timedout)
    25aa:	81 11       	cpse	r24, r1
    25ac:	11 c0       	rjmp	.+34     	; 0x25d0 <gpib_make_talker+0x7c>
	
	timedout = gpib_cmd_UNL(ptimeoutfunc);
	if (!timedout)
		timedout = gpib_cmd_LAG(0, ptimeoutfunc); /* signal that controller is listener */
    25ae:	be 01       	movw	r22, r28
    25b0:	80 e0       	ldi	r24, 0x00	; 0
    25b2:	3f db       	rcall	.-2434   	; 0x1c32 <gpib_cmd_LAG>
	if (!timedout)
    25b4:	81 11       	cpse	r24, r1
    25b6:	0d c0       	rjmp	.+26     	; 0x25d2 <gpib_make_talker+0x7e>
		timedout = gpib_cmd_TAG(addr, ptimeoutfunc); /* address as talker*/
    25b8:	be 01       	movw	r22, r28
    25ba:	81 2f       	mov	r24, r17
    25bc:	bb db       	rcall	.-2186   	; 0x1d34 <gpib_cmd_TAG>
	//_delay_us(10);
		
	NDAC_LOW;   /* make NDAC L */
    25be:	3f 9a       	sbi	0x07, 7	; 7
	//NRFD_LOW;
	
	if (timedout)
    25c0:	81 11       	cpse	r24, r1
    25c2:	08 c0       	rjmp	.+16     	; 0x25d4 <gpib_make_talker+0x80>
		gpib_recover();
	return timedout;
}
    25c4:	df 91       	pop	r29
    25c6:	cf 91       	pop	r28
    25c8:	1f 91       	pop	r17
    25ca:	08 95       	ret
		}
		while ( (NDAC_STATE == 0) && !timedout ); /* wait until NDAC gets high*/
		DAV_HIGH;
	}
	
	DDRD = 0x00; /* release data bus */
    25cc:	26 98       	cbi	0x04, 6	; 4
	}
}

void gpib_recover(void)
{
	gpib_init();
    25ce:	1a b8       	out	0x0a, r1	; 10
		timedout = gpib_cmd_LAG(0, ptimeoutfunc); /* signal that controller is listener */
	if (!timedout)
		timedout = gpib_cmd_TAG(addr, ptimeoutfunc); /* address as talker*/
	//_delay_us(10);
		
	NDAC_LOW;   /* make NDAC L */
    25d0:	b6 da       	rcall	.-2708   	; 0x1b3e <gpib_init>
	}
}

void gpib_recover(void)
{
	gpib_init();
    25d2:	3f 9a       	sbi	0x07, 7	; 7
    25d4:	b4 da       	rcall	.-2712   	; 0x1b3e <gpib_init>
    25d6:	81 e0       	ldi	r24, 0x01	; 1
	//NRFD_LOW;
	
	if (timedout)
		gpib_recover();
	return timedout;
}
    25d8:	df 91       	pop	r29
    25da:	cf 91       	pop	r28
    25dc:	1f 91       	pop	r17
    25de:	08 95       	ret
    25e0:	8f e6       	ldi	r24, 0x6F	; 111
    25e2:	93 e0       	ldi	r25, 0x03	; 3
    25e4:	01 97       	sbiw	r24, 0x01	; 1
    25e6:	f1 f7       	brne	.-4      	; 0x25e4 <gpib_make_talker+0x90>
    25e8:	00 c0       	rjmp	.+0      	; 0x25ea <gpib_make_talker+0x96>
    25ea:	00 00       	nop
	if (iscommand)
	{ /* set or reset ATN line. It based on a ticket and these delay times are important. The timing was measured on a commercial GPIB adapter. */
		bool atn_was_high = ATN_OUT_STATE;
		if (atn_was_high)
			_delay_us(220);
		ATN_LOW;
    25ec:	86 9a       	sbi	0x10, 6	; 16
    25ee:	e7 e1       	ldi	r30, 0x17	; 23
    25f0:	f1 e0       	ldi	r31, 0x01	; 1
    25f2:	31 97       	sbiw	r30, 0x01	; 1
    25f4:	f1 f7       	brne	.-4      	; 0x25f2 <gpib_make_talker+0x9e>
    25f6:	00 c0       	rjmp	.+0      	; 0x25f8 <gpib_make_talker+0xa4>
    25f8:	00 00       	nop
    25fa:	b7 cf       	rjmp	.-146    	; 0x256a <gpib_make_talker+0x16>

000025fc <gpib_make_listener>:


bool gpib_make_listener(uint8_t addr, gpibtimeout_t ptimeoutfunc)
{
    25fc:	1f 93       	push	r17
    25fe:	cf 93       	push	r28
    2600:	df 93       	push	r29
    2602:	18 2f       	mov	r17, r24
    2604:	eb 01       	movw	r28, r22
	bool timedout;
	s_gpib_transaction_active = true;
    2606:	81 e0       	ldi	r24, 0x01	; 1
    2608:	80 93 54 05 	sts	0x0554, r24	; 0x800554 <s_gpib_transaction_active>

	
	if (iscommand)
	{ /* set or reset ATN line. It based on a ticket and these delay times are important. The timing was measured on a commercial GPIB adapter. */
		bool atn_was_high = ATN_OUT_STATE;
		if (atn_was_high)
    260c:	86 9b       	sbis	0x10, 6	; 16
    260e:	5f c0       	rjmp	.+190    	; 0x26ce <gpib_make_listener+0xd2>
			_delay_us(220);
		ATN_LOW;
    2610:	86 9a       	sbi	0x10, 6	; 16
		ATN_HIGH;
		if (atn_was_low)
			_delay_us(70);
	}
		
	DAV_HIGH;
    2612:	26 98       	cbi	0x04, 6	; 4
	
	
	NRFD_HIGH;
    2614:	3e 98       	cbi	0x07, 6	; 7
	NDAC_HIGH;  /* they should be already high, but let's enforce it */
    2616:	3f 98       	cbi	0x07, 7	; 7
	

	DDRD = dat;
    2618:	8f e5       	ldi	r24, 0x5F	; 95
    261a:	8a b9       	out	0x0a, r24	; 10
    261c:	02 c0       	rjmp	.+4      	; 0x2622 <gpib_make_listener+0x26>
	do
	{
		if (timer_ticked() || quickTimeoutPoll) /* the timeout function can consume significant time */
			timedout = ptimeoutfunc();
	}
	while ( (NRFD_STATE == 0) && !timedout); /* wait until ready for data (NRFD to get high) */
    261e:	81 11       	cpse	r24, r1
    2620:	4e c0       	rjmp	.+156    	; 0x26be <gpib_make_listener+0xc2>
extern volatile bool timer0_ticked; /* flag going high every 100ms - defined in gpib.c */

/* check if 100ms timer ticked. returns true once every 100ms */
static inline bool timer_ticked(void)
{
	bool ticked = timer0_ticked;
    2622:	80 91 51 05 	lds	r24, 0x0551	; 0x800551 <timer0_ticked>
	timer0_ticked = false;
    2626:	10 92 51 05 	sts	0x0551, r1	; 0x800551 <timer0_ticked>
		
	/* wait until ready for data acceptance (NRFD=H, NDAC=L)*/
	do
	{
		if (timer_ticked() || quickTimeoutPoll) /* the timeout function can consume significant time */
			timedout = ptimeoutfunc();
    262a:	fe 01       	movw	r30, r28
    262c:	09 95       	icall
	}
	while ( (NRFD_STATE == 0) && !timedout); /* wait until ready for data (NRFD to get high) */
    262e:	36 9b       	sbis	0x06, 6	; 6
    2630:	f6 cf       	rjmp	.-20     	; 0x261e <gpib_make_listener+0x22>

	if (!timedout)
    2632:	81 11       	cpse	r24, r1
    2634:	44 c0       	rjmp	.+136    	; 0x26be <gpib_make_listener+0xc2>
	{
		DAV_LOW;
    2636:	26 9a       	sbi	0x04, 6	; 4
    2638:	02 c0       	rjmp	.+4      	; 0x263e <gpib_make_listener+0x42>
		do
		{
			if (timer_ticked() || quickTimeoutPoll)
				timedout = ptimeoutfunc();
		}
		while ( (NDAC_STATE == 0) && !timedout ); /* wait until NDAC gets high*/
    263a:	81 11       	cpse	r24, r1
    263c:	3f c0       	rjmp	.+126    	; 0x26bc <gpib_make_listener+0xc0>
extern volatile bool timer0_ticked; /* flag going high every 100ms - defined in gpib.c */

/* check if 100ms timer ticked. returns true once every 100ms */
static inline bool timer_ticked(void)
{
	bool ticked = timer0_ticked;
    263e:	80 91 51 05 	lds	r24, 0x0551	; 0x800551 <timer0_ticked>
	timer0_ticked = false;
    2642:	10 92 51 05 	sts	0x0551, r1	; 0x800551 <timer0_ticked>
	{
		DAV_LOW;
		do
		{
			if (timer_ticked() || quickTimeoutPoll)
				timedout = ptimeoutfunc();
    2646:	fe 01       	movw	r30, r28
    2648:	09 95       	icall
		}
		while ( (NDAC_STATE == 0) && !timedout ); /* wait until NDAC gets high*/
    264a:	37 9b       	sbis	0x06, 7	; 6
    264c:	f6 cf       	rjmp	.-20     	; 0x263a <gpib_make_listener+0x3e>
		DAV_HIGH;
    264e:	26 98       	cbi	0x04, 6	; 4
	}
	
	DDRD = 0x00; /* release data bus */
    2650:	1a b8       	out	0x0a, r1	; 10
	
	if (timedout)
    2652:	81 11       	cpse	r24, r1
    2654:	35 c0       	rjmp	.+106    	; 0x26c0 <gpib_make_listener+0xc4>
	timedout = gpib_cmd_UNT(ptimeoutfunc);
	if (!timedout)
		timedout = gpib_cmd_TAG(0, ptimeoutfunc); /* signal that controller is talker */
    2656:	be 01       	movw	r22, r28
    2658:	80 e0       	ldi	r24, 0x00	; 0
    265a:	6c db       	rcall	.-2344   	; 0x1d34 <gpib_cmd_TAG>
	if (!timedout)
    265c:	81 11       	cpse	r24, r1
    265e:	31 c0       	rjmp	.+98     	; 0x26c2 <gpib_make_listener+0xc6>

	
	if (iscommand)
	{ /* set or reset ATN line. It based on a ticket and these delay times are important. The timing was measured on a commercial GPIB adapter. */
		bool atn_was_high = ATN_OUT_STATE;
		if (atn_was_high)
    2660:	86 9b       	sbis	0x10, 6	; 16
    2662:	43 c0       	rjmp	.+134    	; 0x26ea <gpib_make_listener+0xee>
			_delay_us(220);
		ATN_LOW;
    2664:	86 9a       	sbi	0x10, 6	; 16
		ATN_HIGH;
		if (atn_was_low)
			_delay_us(70);
	}
		
	DAV_HIGH;
    2666:	26 98       	cbi	0x04, 6	; 4
	
	
	NRFD_HIGH;
    2668:	3e 98       	cbi	0x07, 6	; 7
	NDAC_HIGH;  /* they should be already high, but let's enforce it */
    266a:	3f 98       	cbi	0x07, 7	; 7
	

	DDRD = dat;
    266c:	8f e3       	ldi	r24, 0x3F	; 63
    266e:	8a b9       	out	0x0a, r24	; 10
    2670:	02 c0       	rjmp	.+4      	; 0x2676 <gpib_make_listener+0x7a>
	do
	{
		if (timer_ticked() || quickTimeoutPoll) /* the timeout function can consume significant time */
			timedout = ptimeoutfunc();
	}
	while ( (NRFD_STATE == 0) && !timedout); /* wait until ready for data (NRFD to get high) */
    2672:	81 11       	cpse	r24, r1
    2674:	24 c0       	rjmp	.+72     	; 0x26be <gpib_make_listener+0xc2>
extern volatile bool timer0_ticked; /* flag going high every 100ms - defined in gpib.c */

/* check if 100ms timer ticked. returns true once every 100ms */
static inline bool timer_ticked(void)
{
	bool ticked = timer0_ticked;
    2676:	80 91 51 05 	lds	r24, 0x0551	; 0x800551 <timer0_ticked>
	timer0_ticked = false;
    267a:	10 92 51 05 	sts	0x0551, r1	; 0x800551 <timer0_ticked>
		
	/* wait until ready for data acceptance (NRFD=H, NDAC=L)*/
	do
	{
		if (timer_ticked() || quickTimeoutPoll) /* the timeout function can consume significant time */
			timedout = ptimeoutfunc();
    267e:	fe 01       	movw	r30, r28
    2680:	09 95       	icall
	}
	while ( (NRFD_STATE == 0) && !timedout); /* wait until ready for data (NRFD to get high) */
    2682:	36 9b       	sbis	0x06, 6	; 6
    2684:	f6 cf       	rjmp	.-20     	; 0x2672 <gpib_make_listener+0x76>

	if (!timedout)
    2686:	81 11       	cpse	r24, r1
    2688:	1a c0       	rjmp	.+52     	; 0x26be <gpib_make_listener+0xc2>
	{
		DAV_LOW;
    268a:	26 9a       	sbi	0x04, 6	; 4
    268c:	02 c0       	rjmp	.+4      	; 0x2692 <gpib_make_listener+0x96>
		do
		{
			if (timer_ticked() || quickTimeoutPoll)
				timedout = ptimeoutfunc();
		}
		while ( (NDAC_STATE == 0) && !timedout ); /* wait until NDAC gets high*/
    268e:	81 11       	cpse	r24, r1
    2690:	15 c0       	rjmp	.+42     	; 0x26bc <gpib_make_listener+0xc0>
extern volatile bool timer0_ticked; /* flag going high every 100ms - defined in gpib.c */

/* check if 100ms timer ticked. returns true once every 100ms */
static inline bool timer_ticked(void)
{
	bool ticked = timer0_ticked;
    2692:	80 91 51 05 	lds	r24, 0x0551	; 0x800551 <timer0_ticked>
	timer0_ticked = false;
    2696:	10 92 51 05 	sts	0x0551, r1	; 0x800551 <timer0_ticked>
	{
		DAV_LOW;
		do
		{
			if (timer_ticked() || quickTimeoutPoll)
				timedout = ptimeoutfunc();
    269a:	fe 01       	movw	r30, r28
    269c:	09 95       	icall
		}
		while ( (NDAC_STATE == 0) && !timedout ); /* wait until NDAC gets high*/
    269e:	37 9b       	sbis	0x06, 7	; 6
    26a0:	f6 cf       	rjmp	.-20     	; 0x268e <gpib_make_listener+0x92>
		DAV_HIGH;
    26a2:	26 98       	cbi	0x04, 6	; 4
	}
	
	DDRD = 0x00; /* release data bus */
    26a4:	1a b8       	out	0x0a, r1	; 10
	
	if (timedout)
    26a6:	81 11       	cpse	r24, r1
    26a8:	0b c0       	rjmp	.+22     	; 0x26c0 <gpib_make_listener+0xc4>
		timedout = gpib_cmd_UNL(ptimeoutfunc);
	if (!timedout)
		timedout = gpib_cmd_LAG(addr, ptimeoutfunc); /* address target as listener*/
    26aa:	be 01       	movw	r22, r28
    26ac:	81 2f       	mov	r24, r17
    26ae:	c1 da       	rcall	.-2686   	; 0x1c32 <gpib_cmd_LAG>
		
	if (timedout)
    26b0:	81 11       	cpse	r24, r1
    26b2:	07 c0       	rjmp	.+14     	; 0x26c2 <gpib_make_listener+0xc6>
		gpib_recover();
	return timedout;
}
    26b4:	df 91       	pop	r29
    26b6:	cf 91       	pop	r28
    26b8:	1f 91       	pop	r17
    26ba:	08 95       	ret
	}
}

void gpib_recover(void)
{
	gpib_init();
    26bc:	26 98       	cbi	0x04, 6	; 4
    26be:	1a b8       	out	0x0a, r1	; 10
    26c0:	3e da       	rcall	.-2948   	; 0x1b3e <gpib_init>
    26c2:	3d da       	rcall	.-2950   	; 0x1b3e <gpib_init>
    26c4:	81 e0       	ldi	r24, 0x01	; 1
		timedout = gpib_cmd_LAG(addr, ptimeoutfunc); /* address target as listener*/
		
	if (timedout)
		gpib_recover();
	return timedout;
}
    26c6:	df 91       	pop	r29
    26c8:	cf 91       	pop	r28
    26ca:	1f 91       	pop	r17
    26cc:	08 95       	ret
    26ce:	8f e6       	ldi	r24, 0x6F	; 111
    26d0:	93 e0       	ldi	r25, 0x03	; 3
    26d2:	01 97       	sbiw	r24, 0x01	; 1
    26d4:	f1 f7       	brne	.-4      	; 0x26d2 <gpib_make_listener+0xd6>
    26d6:	00 c0       	rjmp	.+0      	; 0x26d8 <gpib_make_listener+0xdc>
    26d8:	00 00       	nop
	if (iscommand)
	{ /* set or reset ATN line. It based on a ticket and these delay times are important. The timing was measured on a commercial GPIB adapter. */
		bool atn_was_high = ATN_OUT_STATE;
		if (atn_was_high)
			_delay_us(220);
		ATN_LOW;
    26da:	86 9a       	sbi	0x10, 6	; 16
    26dc:	e7 e1       	ldi	r30, 0x17	; 23
    26de:	f1 e0       	ldi	r31, 0x01	; 1
    26e0:	31 97       	sbiw	r30, 0x01	; 1
    26e2:	f1 f7       	brne	.-4      	; 0x26e0 <gpib_make_listener+0xe4>
    26e4:	00 c0       	rjmp	.+0      	; 0x26e6 <gpib_make_listener+0xea>
    26e6:	00 00       	nop
    26e8:	94 cf       	rjmp	.-216    	; 0x2612 <gpib_make_listener+0x16>
    26ea:	8f e6       	ldi	r24, 0x6F	; 111
    26ec:	93 e0       	ldi	r25, 0x03	; 3
    26ee:	01 97       	sbiw	r24, 0x01	; 1
    26f0:	f1 f7       	brne	.-4      	; 0x26ee <gpib_make_listener+0xf2>
    26f2:	00 c0       	rjmp	.+0      	; 0x26f4 <gpib_make_listener+0xf8>
    26f4:	00 00       	nop
    26f6:	86 9a       	sbi	0x10, 6	; 16
    26f8:	e7 e1       	ldi	r30, 0x17	; 23
    26fa:	f1 e0       	ldi	r31, 0x01	; 1
    26fc:	31 97       	sbiw	r30, 0x01	; 1
    26fe:	f1 f7       	brne	.-4      	; 0x26fc <gpib_make_listener+0x100>
    2700:	00 c0       	rjmp	.+0      	; 0x2702 <gpib_make_listener+0x106>
    2702:	00 00       	nop
    2704:	b0 cf       	rjmp	.-160    	; 0x2666 <gpib_make_listener+0x6a>

00002706 <gpib_writedat>:

bool gpib_writedat(uint8_t dat, bool Eoi, gpibtimeout_t ptimeoutfunc)
{
    2706:	cf 93       	push	r28
    2708:	df 93       	push	r29
    270a:	ea 01       	movw	r28, r20
}

static inline bool gpib_writedat_quick(uint8_t dat, bool Eoi, gpibtimeout_t ptimeoutfunc, bool quickTimeoutPoll)
{
	bool timedout;
	if (Eoi)
    270c:	61 11       	cpse	r22, r1
	{
		EOI_LOW; /* make EOI L */
    270e:	24 9a       	sbi	0x04, 4	; 4
			_delay_us(70);
	}
	else
	{
		bool atn_was_low = !ATN_OUT_STATE;
		if (atn_was_low)
    2710:	86 99       	sbic	0x10, 6	; 16
    2712:	2e c0       	rjmp	.+92     	; 0x2770 <gpib_writedat+0x6a>
			_delay_us(220);
		ATN_HIGH;
    2714:	86 98       	cbi	0x10, 6	; 16
		if (atn_was_low)
			_delay_us(70);
	}
		
	DAV_HIGH;
    2716:	26 98       	cbi	0x04, 6	; 4
	
	
	NRFD_HIGH;
    2718:	3e 98       	cbi	0x07, 6	; 7
	NDAC_HIGH;  /* they should be already high, but let's enforce it */
    271a:	3f 98       	cbi	0x07, 7	; 7
	

	DDRD = dat;
    271c:	8a b9       	out	0x0a, r24	; 10
    271e:	02 c0       	rjmp	.+4      	; 0x2724 <gpib_writedat+0x1e>
	do
	{
		if (timer_ticked() || quickTimeoutPoll) /* the timeout function can consume significant time */
			timedout = ptimeoutfunc();
	}
	while ( (NRFD_STATE == 0) && !timedout); /* wait until ready for data (NRFD to get high) */
    2720:	81 11       	cpse	r24, r1
    2722:	1f c0       	rjmp	.+62     	; 0x2762 <gpib_writedat+0x5c>
extern volatile bool timer0_ticked; /* flag going high every 100ms - defined in gpib.c */

/* check if 100ms timer ticked. returns true once every 100ms */
static inline bool timer_ticked(void)
{
	bool ticked = timer0_ticked;
    2724:	80 91 51 05 	lds	r24, 0x0551	; 0x800551 <timer0_ticked>
	timer0_ticked = false;
    2728:	10 92 51 05 	sts	0x0551, r1	; 0x800551 <timer0_ticked>
		
	/* wait until ready for data acceptance (NRFD=H, NDAC=L)*/
	do
	{
		if (timer_ticked() || quickTimeoutPoll) /* the timeout function can consume significant time */
			timedout = ptimeoutfunc();
    272c:	fe 01       	movw	r30, r28
    272e:	09 95       	icall
	}
	while ( (NRFD_STATE == 0) && !timedout); /* wait until ready for data (NRFD to get high) */
    2730:	36 9b       	sbis	0x06, 6	; 6
    2732:	f6 cf       	rjmp	.-20     	; 0x2720 <gpib_writedat+0x1a>

	if (!timedout)
    2734:	81 11       	cpse	r24, r1
    2736:	15 c0       	rjmp	.+42     	; 0x2762 <gpib_writedat+0x5c>
	{
		DAV_LOW;
    2738:	26 9a       	sbi	0x04, 6	; 4
    273a:	02 c0       	rjmp	.+4      	; 0x2740 <gpib_writedat+0x3a>
		do
		{
			if (timer_ticked() || quickTimeoutPoll)
				timedout = ptimeoutfunc();
		}
		while ( (NDAC_STATE == 0) && !timedout ); /* wait until NDAC gets high*/
    273c:	81 11       	cpse	r24, r1
    273e:	10 c0       	rjmp	.+32     	; 0x2760 <gpib_writedat+0x5a>
extern volatile bool timer0_ticked; /* flag going high every 100ms - defined in gpib.c */

/* check if 100ms timer ticked. returns true once every 100ms */
static inline bool timer_ticked(void)
{
	bool ticked = timer0_ticked;
    2740:	80 91 51 05 	lds	r24, 0x0551	; 0x800551 <timer0_ticked>
	timer0_ticked = false;
    2744:	10 92 51 05 	sts	0x0551, r1	; 0x800551 <timer0_ticked>
	{
		DAV_LOW;
		do
		{
			if (timer_ticked() || quickTimeoutPoll)
				timedout = ptimeoutfunc();
    2748:	fe 01       	movw	r30, r28
    274a:	09 95       	icall
		}
		while ( (NDAC_STATE == 0) && !timedout ); /* wait until NDAC gets high*/
    274c:	37 9b       	sbis	0x06, 7	; 6
    274e:	f6 cf       	rjmp	.-20     	; 0x273c <gpib_writedat+0x36>
		DAV_HIGH;
    2750:	26 98       	cbi	0x04, 6	; 4
	}
	
	DDRD = 0x00; /* release data bus */
    2752:	1a b8       	out	0x0a, r1	; 10
	
	if (timedout)
    2754:	81 11       	cpse	r24, r1
    2756:	06 c0       	rjmp	.+12     	; 0x2764 <gpib_writedat+0x5e>
	if (Eoi)
	{
		EOI_LOW; /* make EOI L */
	}
	timedout = gpib_tx_quick(dat, false, ptimeoutfunc, quickTimeoutPoll);
	EOI_HIGH;    /* make EOI H */
    2758:	24 98       	cbi	0x04, 4	; 4
	return gpib_writedat_quick(dat, Eoi, ptimeoutfunc, true);
}
    275a:	df 91       	pop	r29
    275c:	cf 91       	pop	r28
    275e:	08 95       	ret
		{
			if (timer_ticked() || quickTimeoutPoll)
				timedout = ptimeoutfunc();
		}
		while ( (NDAC_STATE == 0) && !timedout ); /* wait until NDAC gets high*/
		DAV_HIGH;
    2760:	26 98       	cbi	0x04, 6	; 4
	}
	
	DDRD = 0x00; /* release data bus */
    2762:	1a b8       	out	0x0a, r1	; 10
	}
}

void gpib_recover(void)
{
	gpib_init();
    2764:	ec d9       	rcall	.-3112   	; 0x1b3e <gpib_init>
    2766:	81 e0       	ldi	r24, 0x01	; 1
	if (Eoi)
	{
		EOI_LOW; /* make EOI L */
	}
	timedout = gpib_tx_quick(dat, false, ptimeoutfunc, quickTimeoutPoll);
	EOI_HIGH;    /* make EOI H */
    2768:	24 98       	cbi	0x04, 4	; 4
}

bool gpib_writedat(uint8_t dat, bool Eoi, gpibtimeout_t ptimeoutfunc)
{
	return gpib_writedat_quick(dat, Eoi, ptimeoutfunc, true);
}
    276a:	df 91       	pop	r29
    276c:	cf 91       	pop	r28
    276e:	08 95       	ret
    2770:	ef e6       	ldi	r30, 0x6F	; 111
    2772:	f3 e0       	ldi	r31, 0x03	; 3
    2774:	31 97       	sbiw	r30, 0x01	; 1
    2776:	f1 f7       	brne	.-4      	; 0x2774 <gpib_writedat+0x6e>
    2778:	00 c0       	rjmp	.+0      	; 0x277a <gpib_writedat+0x74>
    277a:	00 00       	nop
	else
	{
		bool atn_was_low = !ATN_OUT_STATE;
		if (atn_was_low)
			_delay_us(220);
		ATN_HIGH;
    277c:	86 98       	cbi	0x10, 6	; 16
    277e:	e7 e1       	ldi	r30, 0x17	; 23
    2780:	f1 e0       	ldi	r31, 0x01	; 1
    2782:	31 97       	sbiw	r30, 0x01	; 1
    2784:	f1 f7       	brne	.-4      	; 0x2782 <gpib_writedat+0x7c>
    2786:	00 c0       	rjmp	.+0      	; 0x2788 <gpib_writedat+0x82>
    2788:	00 00       	nop
    278a:	c5 cf       	rjmp	.-118    	; 0x2716 <gpib_writedat+0x10>

0000278c <gpib_get_readtermination>:

char gpib_get_readtermination(void)
{
	return s_terminator;
}
    278c:	80 91 50 05 	lds	r24, 0x0550	; 0x800550 <s_terminator>
    2790:	08 95       	ret

00002792 <gpib_set_readtermination>:

void gpib_set_readtermination(char terminator)
{
	switch(terminator)
    2792:	8a 30       	cpi	r24, 0x0A	; 10
    2794:	11 f0       	breq	.+4      	; 0x279a <gpib_set_readtermination+0x8>
    2796:	8d 30       	cpi	r24, 0x0D	; 13
    2798:	19 f4       	brne	.+6      	; 0x27a0 <gpib_set_readtermination+0xe>
	{
		case '\n':
			s_terminator = '\n';
			break;
		case '\r':
			s_terminator = '\r';
    279a:	80 93 50 05 	sts	0x0550, r24	; 0x800550 <s_terminator>
			break;
    279e:	08 95       	ret
		default:
			s_terminator = '\0';
    27a0:	10 92 50 05 	sts	0x0550, r1	; 0x800550 <s_terminator>
    27a4:	08 95       	ret

000027a6 <gpib_search>:
	return false;
}
#define LED(s) {if(s) PORTF |= (1<<5); else PORTF &= ~(1<<5);}

uint8_t gpib_search(void)
{
    27a6:	0f 93       	push	r16
    27a8:	1f 93       	push	r17
    27aa:	cf 93       	push	r28
    27ac:	df 93       	push	r29
	uint8_t addr, foundaddr;
	
	s_gpib_transaction_active = true;
    27ae:	81 e0       	ldi	r24, 0x01	; 1
    27b0:	80 93 54 05 	sts	0x0554, r24	; 0x800554 <s_gpib_transaction_active>

static uint16_t timeout_val;

static void timeout_start(uint16_t timeout)
{
	timeout_val = timeout;
    27b4:	84 ef       	ldi	r24, 0xF4	; 244
    27b6:	91 e0       	ldi	r25, 0x01	; 1
    27b8:	90 93 53 05 	sts	0x0553, r25	; 0x800553 <timeout_val+0x1>
    27bc:	80 93 52 05 	sts	0x0552, r24	; 0x800552 <timeout_val>

	
	if (iscommand)
	{ /* set or reset ATN line. It based on a ticket and these delay times are important. The timing was measured on a commercial GPIB adapter. */
		bool atn_was_high = ATN_OUT_STATE;
		if (atn_was_high)
    27c0:	86 9b       	sbis	0x10, 6	; 16
    27c2:	d2 c0       	rjmp	.+420    	; 0x2968 <gpib_search+0x1c2>
			_delay_us(220);
		ATN_LOW;
    27c4:	86 9a       	sbi	0x10, 6	; 16
		ATN_HIGH;
		if (atn_was_low)
			_delay_us(70);
	}
		
	DAV_HIGH;
    27c6:	26 98       	cbi	0x04, 6	; 4
	
	
	NRFD_HIGH;
    27c8:	3e 98       	cbi	0x07, 6	; 7
	NDAC_HIGH;  /* they should be already high, but let's enforce it */
    27ca:	3f 98       	cbi	0x07, 7	; 7
	

	DDRD = dat;
    27cc:	8f e3       	ldi	r24, 0x3F	; 63
    27ce:	8a b9       	out	0x0a, r24	; 10
    27d0:	02 c0       	rjmp	.+4      	; 0x27d6 <gpib_search+0x30>
	do
	{
		if (timer_ticked() || quickTimeoutPoll) /* the timeout function can consume significant time */
			timedout = ptimeoutfunc();
	}
	while ( (NRFD_STATE == 0) && !timedout); /* wait until ready for data (NRFD to get high) */
    27d2:	81 11       	cpse	r24, r1
    27d4:	1a c0       	rjmp	.+52     	; 0x280a <gpib_search+0x64>
extern volatile bool timer0_ticked; /* flag going high every 100ms - defined in gpib.c */

/* check if 100ms timer ticked. returns true once every 100ms */
static inline bool timer_ticked(void)
{
	bool ticked = timer0_ticked;
    27d6:	80 91 51 05 	lds	r24, 0x0551	; 0x800551 <timer0_ticked>
	timer0_ticked = false;
    27da:	10 92 51 05 	sts	0x0551, r1	; 0x800551 <timer0_ticked>
		
	/* wait until ready for data acceptance (NRFD=H, NDAC=L)*/
	do
	{
		if (timer_ticked() || quickTimeoutPoll) /* the timeout function can consume significant time */
			timedout = ptimeoutfunc();
    27de:	64 d9       	rcall	.-3384   	; 0x1aa8 <is_timedout>
	}
	while ( (NRFD_STATE == 0) && !timedout); /* wait until ready for data (NRFD to get high) */
    27e0:	36 9b       	sbis	0x06, 6	; 6
    27e2:	f7 cf       	rjmp	.-18     	; 0x27d2 <gpib_search+0x2c>

	if (!timedout)
    27e4:	81 11       	cpse	r24, r1
    27e6:	11 c0       	rjmp	.+34     	; 0x280a <gpib_search+0x64>
	{
		DAV_LOW;
    27e8:	26 9a       	sbi	0x04, 6	; 4
    27ea:	02 c0       	rjmp	.+4      	; 0x27f0 <gpib_search+0x4a>
		do
		{
			if (timer_ticked() || quickTimeoutPoll)
				timedout = ptimeoutfunc();
		}
		while ( (NDAC_STATE == 0) && !timedout ); /* wait until NDAC gets high*/
    27ec:	81 11       	cpse	r24, r1
    27ee:	0c c0       	rjmp	.+24     	; 0x2808 <gpib_search+0x62>
extern volatile bool timer0_ticked; /* flag going high every 100ms - defined in gpib.c */

/* check if 100ms timer ticked. returns true once every 100ms */
static inline bool timer_ticked(void)
{
	bool ticked = timer0_ticked;
    27f0:	80 91 51 05 	lds	r24, 0x0551	; 0x800551 <timer0_ticked>
	timer0_ticked = false;
    27f4:	10 92 51 05 	sts	0x0551, r1	; 0x800551 <timer0_ticked>
	{
		DAV_LOW;
		do
		{
			if (timer_ticked() || quickTimeoutPoll)
				timedout = ptimeoutfunc();
    27f8:	57 d9       	rcall	.-3410   	; 0x1aa8 <is_timedout>
		}
		while ( (NDAC_STATE == 0) && !timedout ); /* wait until NDAC gets high*/
    27fa:	37 9b       	sbis	0x06, 7	; 6
    27fc:	f7 cf       	rjmp	.-18     	; 0x27ec <gpib_search+0x46>
		DAV_HIGH;
    27fe:	26 98       	cbi	0x04, 6	; 4
	}
	
	DDRD = 0x00; /* release data bus */
    2800:	1a b8       	out	0x0a, r1	; 10
	
	if (timedout)
    2802:	88 23       	and	r24, r24
    2804:	21 f0       	breq	.+8      	; 0x280e <gpib_search+0x68>
    2806:	02 c0       	rjmp	.+4      	; 0x280c <gpib_search+0x66>
		}
		while ( (NDAC_STATE == 0) && !timedout ); /* wait until NDAC gets high*/
		DAV_HIGH;
	}
	
	DDRD = 0x00; /* release data bus */
    2808:	26 98       	cbi	0x04, 6	; 4
	}
}

void gpib_recover(void)
{
	gpib_init();
    280a:	1a b8       	out	0x0a, r1	; 10
    280c:	98 d9       	rcall	.-3280   	; 0x1b3e <gpib_init>
	return false;
}
#define LED(s) {if(s) PORTF |= (1<<5); else PORTF &= ~(1<<5);}

uint8_t gpib_search(void)
{
    280e:	c0 e0       	ldi	r28, 0x00	; 0

static uint16_t timeout_val;

static void timeout_start(uint16_t timeout)
{
	timeout_val = timeout;
    2810:	04 ef       	ldi	r16, 0xF4	; 244
    2812:	11 e0       	ldi	r17, 0x01	; 1
	
	foundaddr = 255;
	addr = 0; // start searching from GPIB Address 1 onwards as 0 is reserved for controller
	do
	{
		addr++;
    2814:	cf 5f       	subi	r28, 0xFF	; 255
    2816:	dc 2f       	mov	r29, r28
    2818:	df 71       	andi	r29, 0x1F	; 31
		if ((addr & 0x1f) != 31)
    281a:	df 31       	cpi	r29, 0x1F	; 31
    281c:	09 f4       	brne	.+2      	; 0x2820 <gpib_search+0x7a>
    281e:	86 c0       	rjmp	.+268    	; 0x292c <gpib_search+0x186>

static uint16_t timeout_val;

static void timeout_start(uint16_t timeout)
{
	timeout_val = timeout;
    2820:	10 93 53 05 	sts	0x0553, r17	; 0x800553 <timeout_val+0x1>
    2824:	00 93 52 05 	sts	0x0552, r16	; 0x800552 <timeout_val>
	{
		addr++;
		if ((addr & 0x1f) != 31)
		{
			timeout_start(500);
			gpib_cmd_LAG(addr, is_timedout);
    2828:	64 e5       	ldi	r22, 0x54	; 84
    282a:	7d e0       	ldi	r23, 0x0D	; 13
    282c:	8c 2f       	mov	r24, r28
    282e:	01 da       	rcall	.-3070   	; 0x1c32 <gpib_cmd_LAG>
			
			ATN_HIGH; /* make ATN H */
    2830:	86 98       	cbi	0x10, 6	; 16
	#else
		//round up by default
		__ticks_dc = (uint32_t)(ceil(fabs(__tmp)));
	#endif

	__builtin_avr_delay_cycles(__ticks_dc);
    2832:	8f e3       	ldi	r24, 0x3F	; 63
    2834:	9f e1       	ldi	r25, 0x1F	; 31
    2836:	01 97       	sbiw	r24, 0x01	; 1
    2838:	f1 f7       	brne	.-4      	; 0x2836 <gpib_search+0x90>
    283a:	00 c0       	rjmp	.+0      	; 0x283c <gpib_search+0x96>
    283c:	00 00       	nop
			_delay_ms(2);
			if ( (NDAC_STATE == 0) && (ATN_STATE != 0))
    283e:	37 99       	sbic	0x06, 7	; 6
    2840:	75 c0       	rjmp	.+234    	; 0x292c <gpib_search+0x186>
    2842:	7e 9b       	sbis	0x0f, 6	; 15
    2844:	73 c0       	rjmp	.+230    	; 0x292c <gpib_search+0x186>
	
	foundaddr = 255;
	addr = 0; // start searching from GPIB Address 1 onwards as 0 is reserved for controller
	do
	{
		addr++;
    2846:	1c 2f       	mov	r17, r28

static uint16_t timeout_val;

static void timeout_start(uint16_t timeout)
{
	timeout_val = timeout;
    2848:	84 ef       	ldi	r24, 0xF4	; 244
    284a:	91 e0       	ldi	r25, 0x01	; 1
    284c:	90 93 53 05 	sts	0x0553, r25	; 0x800553 <timeout_val+0x1>
    2850:	80 93 52 05 	sts	0x0552, r24	; 0x800552 <timeout_val>

	
	if (iscommand)
	{ /* set or reset ATN line. It based on a ticket and these delay times are important. The timing was measured on a commercial GPIB adapter. */
		bool atn_was_high = ATN_OUT_STATE;
		if (atn_was_high)
    2854:	86 9b       	sbis	0x10, 6	; 16
    2856:	96 c0       	rjmp	.+300    	; 0x2984 <gpib_search+0x1de>
			_delay_us(220);
		ATN_LOW;
    2858:	86 9a       	sbi	0x10, 6	; 16
		ATN_HIGH;
		if (atn_was_low)
			_delay_us(70);
	}
		
	DAV_HIGH;
    285a:	26 98       	cbi	0x04, 6	; 4
	
	
	NRFD_HIGH;
    285c:	3e 98       	cbi	0x07, 6	; 7
	NDAC_HIGH;  /* they should be already high, but let's enforce it */
    285e:	3f 98       	cbi	0x07, 7	; 7
	

	DDRD = dat;
    2860:	8f e3       	ldi	r24, 0x3F	; 63
    2862:	8a b9       	out	0x0a, r24	; 10
    2864:	02 c0       	rjmp	.+4      	; 0x286a <gpib_search+0xc4>
	do
	{
		if (timer_ticked() || quickTimeoutPoll) /* the timeout function can consume significant time */
			timedout = ptimeoutfunc();
	}
	while ( (NRFD_STATE == 0) && !timedout); /* wait until ready for data (NRFD to get high) */
    2866:	81 11       	cpse	r24, r1
    2868:	67 c0       	rjmp	.+206    	; 0x2938 <gpib_search+0x192>
extern volatile bool timer0_ticked; /* flag going high every 100ms - defined in gpib.c */

/* check if 100ms timer ticked. returns true once every 100ms */
static inline bool timer_ticked(void)
{
	bool ticked = timer0_ticked;
    286a:	80 91 51 05 	lds	r24, 0x0551	; 0x800551 <timer0_ticked>
	timer0_ticked = false;
    286e:	10 92 51 05 	sts	0x0551, r1	; 0x800551 <timer0_ticked>
		
	/* wait until ready for data acceptance (NRFD=H, NDAC=L)*/
	do
	{
		if (timer_ticked() || quickTimeoutPoll) /* the timeout function can consume significant time */
			timedout = ptimeoutfunc();
    2872:	1a d9       	rcall	.-3532   	; 0x1aa8 <is_timedout>
	}
	while ( (NRFD_STATE == 0) && !timedout); /* wait until ready for data (NRFD to get high) */
    2874:	36 9b       	sbis	0x06, 6	; 6
    2876:	f7 cf       	rjmp	.-18     	; 0x2866 <gpib_search+0xc0>

	if (!timedout)
    2878:	81 11       	cpse	r24, r1
    287a:	5e c0       	rjmp	.+188    	; 0x2938 <gpib_search+0x192>
	{
		DAV_LOW;
    287c:	26 9a       	sbi	0x04, 6	; 4
    287e:	02 c0       	rjmp	.+4      	; 0x2884 <gpib_search+0xde>
		do
		{
			if (timer_ticked() || quickTimeoutPoll)
				timedout = ptimeoutfunc();
		}
		while ( (NDAC_STATE == 0) && !timedout ); /* wait until NDAC gets high*/
    2880:	81 11       	cpse	r24, r1
extern volatile bool timer0_ticked; /* flag going high every 100ms - defined in gpib.c */

/* check if 100ms timer ticked. returns true once every 100ms */
static inline bool timer_ticked(void)
{
	bool ticked = timer0_ticked;
    2882:	59 c0       	rjmp	.+178    	; 0x2936 <gpib_search+0x190>
    2884:	80 91 51 05 	lds	r24, 0x0551	; 0x800551 <timer0_ticked>
	timer0_ticked = false;
    2888:	10 92 51 05 	sts	0x0551, r1	; 0x800551 <timer0_ticked>
	{
		DAV_LOW;
		do
		{
			if (timer_ticked() || quickTimeoutPoll)
				timedout = ptimeoutfunc();
    288c:	0d d9       	rcall	.-3558   	; 0x1aa8 <is_timedout>
		}
		while ( (NDAC_STATE == 0) && !timedout ); /* wait until NDAC gets high*/
    288e:	37 9b       	sbis	0x06, 7	; 6
    2890:	f7 cf       	rjmp	.-18     	; 0x2880 <gpib_search+0xda>
		DAV_HIGH;
    2892:	26 98       	cbi	0x04, 6	; 4
	}
	
	DDRD = 0x00; /* release data bus */
    2894:	1a b8       	out	0x0a, r1	; 10
	
	if (timedout)
    2896:	81 11       	cpse	r24, r1
    2898:	50 c0       	rjmp	.+160    	; 0x293a <gpib_search+0x194>
	timeout_start(500);
	gpib_tx(0x3F, true, is_timedout); // UNL

	
	/* if the device needs a secondary address, ensure, that it really cannot be addressed without secondary address */
	if (addr >= 32)
    289a:	c0 32       	cpi	r28, 0x20	; 32
    289c:	08 f4       	brcc	.+2      	; 0x28a0 <gpib_search+0xfa>
    289e:	51 c0       	rjmp	.+162    	; 0x2942 <gpib_search+0x19c>

static uint16_t timeout_val;

static void timeout_start(uint16_t timeout)
{
	timeout_val = timeout;
    28a0:	84 ef       	ldi	r24, 0xF4	; 244
    28a2:	91 e0       	ldi	r25, 0x01	; 1
    28a4:	90 93 53 05 	sts	0x0553, r25	; 0x800553 <timeout_val+0x1>
    28a8:	80 93 52 05 	sts	0x0552, r24	; 0x800552 <timeout_val>
	/* if the device needs a secondary address, ensure, that it really cannot be addressed without secondary address */
	if (addr >= 32)
	{
		/* address once without SA. If it responds, force it to this primary addressing only! */
		timeout_start(500);
		gpib_cmd_LAG(addr & 0x1f, is_timedout);
    28ac:	64 e5       	ldi	r22, 0x54	; 84
    28ae:	7d e0       	ldi	r23, 0x0D	; 13
    28b0:	8d 2f       	mov	r24, r29
    28b2:	bf d9       	rcall	.-3202   	; 0x1c32 <gpib_cmd_LAG>
		ATN_HIGH; /* make ATN H */
    28b4:	86 98       	cbi	0x10, 6	; 16
    28b6:	8f e3       	ldi	r24, 0x3F	; 63
    28b8:	9f e1       	ldi	r25, 0x1F	; 31
    28ba:	01 97       	sbiw	r24, 0x01	; 1
    28bc:	f1 f7       	brne	.-4      	; 0x28ba <gpib_search+0x114>
    28be:	00 c0       	rjmp	.+0      	; 0x28c0 <gpib_search+0x11a>
    28c0:	00 00       	nop
		_delay_ms(2);
		if ( (NDAC_STATE == 0) && (ATN_STATE != 0))
    28c2:	37 99       	sbic	0x06, 7	; 6
    28c4:	02 c0       	rjmp	.+4      	; 0x28ca <gpib_search+0x124>
    28c6:	7e 99       	sbic	0x0f, 6	; 15
    28c8:	6b c0       	rjmp	.+214    	; 0x29a0 <gpib_search+0x1fa>

static uint16_t timeout_val;

static void timeout_start(uint16_t timeout)
{
	timeout_val = timeout;
    28ca:	84 ef       	ldi	r24, 0xF4	; 244
    28cc:	91 e0       	ldi	r25, 0x01	; 1
    28ce:	90 93 53 05 	sts	0x0553, r25	; 0x800553 <timeout_val+0x1>
    28d2:	80 93 52 05 	sts	0x0552, r24	; 0x800552 <timeout_val>

	
	if (iscommand)
	{ /* set or reset ATN line. It based on a ticket and these delay times are important. The timing was measured on a commercial GPIB adapter. */
		bool atn_was_high = ATN_OUT_STATE;
		if (atn_was_high)
    28d6:	86 9b       	sbis	0x10, 6	; 16
    28d8:	6c c0       	rjmp	.+216    	; 0x29b2 <gpib_search+0x20c>
			_delay_us(220);
		ATN_LOW;
    28da:	86 9a       	sbi	0x10, 6	; 16
		ATN_HIGH;
		if (atn_was_low)
			_delay_us(70);
	}
		
	DAV_HIGH;
    28dc:	26 98       	cbi	0x04, 6	; 4
	
	
	NRFD_HIGH;
    28de:	3e 98       	cbi	0x07, 6	; 7
	NDAC_HIGH;  /* they should be already high, but let's enforce it */
    28e0:	3f 98       	cbi	0x07, 7	; 7
	

	DDRD = dat;
    28e2:	8f e3       	ldi	r24, 0x3F	; 63
    28e4:	8a b9       	out	0x0a, r24	; 10
	do
	{
		if (timer_ticked() || quickTimeoutPoll) /* the timeout function can consume significant time */
			timedout = ptimeoutfunc();
	}
	while ( (NRFD_STATE == 0) && !timedout); /* wait until ready for data (NRFD to get high) */
    28e6:	02 c0       	rjmp	.+4      	; 0x28ec <gpib_search+0x146>
    28e8:	81 11       	cpse	r24, r1
extern volatile bool timer0_ticked; /* flag going high every 100ms - defined in gpib.c */

/* check if 100ms timer ticked. returns true once every 100ms */
static inline bool timer_ticked(void)
{
	bool ticked = timer0_ticked;
    28ea:	34 c0       	rjmp	.+104    	; 0x2954 <gpib_search+0x1ae>
    28ec:	80 91 51 05 	lds	r24, 0x0551	; 0x800551 <timer0_ticked>
	timer0_ticked = false;
    28f0:	10 92 51 05 	sts	0x0551, r1	; 0x800551 <timer0_ticked>
		
	/* wait until ready for data acceptance (NRFD=H, NDAC=L)*/
	do
	{
		if (timer_ticked() || quickTimeoutPoll) /* the timeout function can consume significant time */
			timedout = ptimeoutfunc();
    28f4:	d9 d8       	rcall	.-3662   	; 0x1aa8 <is_timedout>
	}
	while ( (NRFD_STATE == 0) && !timedout); /* wait until ready for data (NRFD to get high) */
    28f6:	36 9b       	sbis	0x06, 6	; 6
    28f8:	f7 cf       	rjmp	.-18     	; 0x28e8 <gpib_search+0x142>

	if (!timedout)
    28fa:	81 11       	cpse	r24, r1
    28fc:	2b c0       	rjmp	.+86     	; 0x2954 <gpib_search+0x1ae>
	{
		DAV_LOW;
    28fe:	26 9a       	sbi	0x04, 6	; 4
		do
		{
			if (timer_ticked() || quickTimeoutPoll)
				timedout = ptimeoutfunc();
		}
		while ( (NDAC_STATE == 0) && !timedout ); /* wait until NDAC gets high*/
    2900:	02 c0       	rjmp	.+4      	; 0x2906 <gpib_search+0x160>
    2902:	81 11       	cpse	r24, r1
extern volatile bool timer0_ticked; /* flag going high every 100ms - defined in gpib.c */

/* check if 100ms timer ticked. returns true once every 100ms */
static inline bool timer_ticked(void)
{
	bool ticked = timer0_ticked;
    2904:	26 c0       	rjmp	.+76     	; 0x2952 <gpib_search+0x1ac>
    2906:	80 91 51 05 	lds	r24, 0x0551	; 0x800551 <timer0_ticked>
	timer0_ticked = false;
    290a:	10 92 51 05 	sts	0x0551, r1	; 0x800551 <timer0_ticked>
	{
		DAV_LOW;
		do
		{
			if (timer_ticked() || quickTimeoutPoll)
				timedout = ptimeoutfunc();
    290e:	cc d8       	rcall	.-3688   	; 0x1aa8 <is_timedout>
		}
		while ( (NDAC_STATE == 0) && !timedout ); /* wait until NDAC gets high*/
    2910:	37 9b       	sbis	0x06, 7	; 6
    2912:	f7 cf       	rjmp	.-18     	; 0x2902 <gpib_search+0x15c>
		DAV_HIGH;
    2914:	26 98       	cbi	0x04, 6	; 4
	}
	
	DDRD = 0x00; /* release data bus */
    2916:	1a b8       	out	0x0a, r1	; 10
	
	if (timedout)
    2918:	81 11       	cpse	r24, r1
    291a:	1d c0       	rjmp	.+58     	; 0x2956 <gpib_search+0x1b0>
		}
		timeout_start(500);
		gpib_tx(0x3F, true, is_timedout); // UNL
	}
	
	s_gpib_transaction_active = false;
    291c:	10 92 54 05 	sts	0x0554, r1	; 0x800554 <s_gpib_transaction_active>
	
	return foundaddr;
}
    2920:	81 2f       	mov	r24, r17
    2922:	df 91       	pop	r29
    2924:	cf 91       	pop	r28
    2926:	1f 91       	pop	r17
    2928:	0f 91       	pop	r16
				foundaddr = addr;
			}
		}
		
	}
	while ( (addr < 63) && (foundaddr == 255));
    292a:	08 95       	ret
    292c:	cf 33       	cpi	r28, 0x3F	; 63
    292e:	09 f0       	breq	.+2      	; 0x2932 <gpib_search+0x18c>
    2930:	71 cf       	rjmp	.-286    	; 0x2814 <gpib_search+0x6e>
    2932:	1f ef       	ldi	r17, 0xFF	; 255
		{
			if (timer_ticked() || quickTimeoutPoll)
				timedout = ptimeoutfunc();
		}
		while ( (NDAC_STATE == 0) && !timedout ); /* wait until NDAC gets high*/
		DAV_HIGH;
    2934:	89 cf       	rjmp	.-238    	; 0x2848 <gpib_search+0xa2>
	}
	
	DDRD = 0x00; /* release data bus */
    2936:	26 98       	cbi	0x04, 6	; 4
	}
}

void gpib_recover(void)
{
	gpib_init();
    2938:	1a b8       	out	0x0a, r1	; 10
    293a:	01 d9       	rcall	.-3582   	; 0x1b3e <gpib_init>
	timeout_start(500);
	gpib_tx(0x3F, true, is_timedout); // UNL

	
	/* if the device needs a secondary address, ensure, that it really cannot be addressed without secondary address */
	if (addr >= 32)
    293c:	c0 32       	cpi	r28, 0x20	; 32
    293e:	08 f0       	brcs	.+2      	; 0x2942 <gpib_search+0x19c>
    2940:	af cf       	rjmp	.-162    	; 0x28a0 <gpib_search+0xfa>
		}
		timeout_start(500);
		gpib_tx(0x3F, true, is_timedout); // UNL
	}
	
	s_gpib_transaction_active = false;
    2942:	10 92 54 05 	sts	0x0554, r1	; 0x800554 <s_gpib_transaction_active>
	
	return foundaddr;
}
    2946:	81 2f       	mov	r24, r17
    2948:	df 91       	pop	r29
    294a:	cf 91       	pop	r28
    294c:	1f 91       	pop	r17
    294e:	0f 91       	pop	r16
		{
			if (timer_ticked() || quickTimeoutPoll)
				timedout = ptimeoutfunc();
		}
		while ( (NDAC_STATE == 0) && !timedout ); /* wait until NDAC gets high*/
		DAV_HIGH;
    2950:	08 95       	ret
	}
	
	DDRD = 0x00; /* release data bus */
    2952:	26 98       	cbi	0x04, 6	; 4
	}
}

void gpib_recover(void)
{
	gpib_init();
    2954:	1a b8       	out	0x0a, r1	; 10
    2956:	f3 d8       	rcall	.-3610   	; 0x1b3e <gpib_init>
		}
		timeout_start(500);
		gpib_tx(0x3F, true, is_timedout); // UNL
	}
	
	s_gpib_transaction_active = false;
    2958:	10 92 54 05 	sts	0x0554, r1	; 0x800554 <s_gpib_transaction_active>
	
	return foundaddr;
}
    295c:	81 2f       	mov	r24, r17
    295e:	df 91       	pop	r29
    2960:	cf 91       	pop	r28
    2962:	1f 91       	pop	r17
    2964:	0f 91       	pop	r16
    2966:	08 95       	ret
	#else
		//round up by default
		__ticks_dc = (uint32_t)(ceil(fabs(__tmp)));
	#endif

	__builtin_avr_delay_cycles(__ticks_dc);
    2968:	8f e6       	ldi	r24, 0x6F	; 111
    296a:	93 e0       	ldi	r25, 0x03	; 3
    296c:	01 97       	sbiw	r24, 0x01	; 1
    296e:	f1 f7       	brne	.-4      	; 0x296c <gpib_search+0x1c6>
    2970:	00 c0       	rjmp	.+0      	; 0x2972 <gpib_search+0x1cc>
    2972:	00 00       	nop
	if (iscommand)
	{ /* set or reset ATN line. It based on a ticket and these delay times are important. The timing was measured on a commercial GPIB adapter. */
		bool atn_was_high = ATN_OUT_STATE;
		if (atn_was_high)
			_delay_us(220);
		ATN_LOW;
    2974:	86 9a       	sbi	0x10, 6	; 16
    2976:	87 e1       	ldi	r24, 0x17	; 23
    2978:	91 e0       	ldi	r25, 0x01	; 1
    297a:	01 97       	sbiw	r24, 0x01	; 1
    297c:	f1 f7       	brne	.-4      	; 0x297a <gpib_search+0x1d4>
    297e:	00 c0       	rjmp	.+0      	; 0x2980 <gpib_search+0x1da>
    2980:	00 00       	nop
    2982:	21 cf       	rjmp	.-446    	; 0x27c6 <gpib_search+0x20>
    2984:	8f e6       	ldi	r24, 0x6F	; 111
    2986:	93 e0       	ldi	r25, 0x03	; 3
    2988:	01 97       	sbiw	r24, 0x01	; 1
    298a:	f1 f7       	brne	.-4      	; 0x2988 <gpib_search+0x1e2>
    298c:	00 c0       	rjmp	.+0      	; 0x298e <gpib_search+0x1e8>
    298e:	00 00       	nop
    2990:	86 9a       	sbi	0x10, 6	; 16
    2992:	87 e1       	ldi	r24, 0x17	; 23
    2994:	91 e0       	ldi	r25, 0x01	; 1
    2996:	01 97       	sbiw	r24, 0x01	; 1
    2998:	f1 f7       	brne	.-4      	; 0x2996 <gpib_search+0x1f0>
    299a:	00 c0       	rjmp	.+0      	; 0x299c <gpib_search+0x1f6>
    299c:	00 00       	nop
    299e:	5d cf       	rjmp	.-326    	; 0x285a <gpib_search+0xb4>
		/* address once without SA. If it responds, force it to this primary addressing only! */
		timeout_start(500);
		gpib_cmd_LAG(addr & 0x1f, is_timedout);
		ATN_HIGH; /* make ATN H */
		_delay_ms(2);
		if ( (NDAC_STATE == 0) && (ATN_STATE != 0))
    29a0:	1d 2f       	mov	r17, r29

static uint16_t timeout_val;

static void timeout_start(uint16_t timeout)
{
	timeout_val = timeout;
    29a2:	84 ef       	ldi	r24, 0xF4	; 244
    29a4:	91 e0       	ldi	r25, 0x01	; 1
    29a6:	90 93 53 05 	sts	0x0553, r25	; 0x800553 <timeout_val+0x1>
    29aa:	80 93 52 05 	sts	0x0552, r24	; 0x800552 <timeout_val>

	
	if (iscommand)
	{ /* set or reset ATN line. It based on a ticket and these delay times are important. The timing was measured on a commercial GPIB adapter. */
		bool atn_was_high = ATN_OUT_STATE;
		if (atn_was_high)
    29ae:	86 99       	sbic	0x10, 6	; 16
    29b0:	94 cf       	rjmp	.-216    	; 0x28da <gpib_search+0x134>
    29b2:	8f e6       	ldi	r24, 0x6F	; 111
    29b4:	93 e0       	ldi	r25, 0x03	; 3
    29b6:	01 97       	sbiw	r24, 0x01	; 1
    29b8:	f1 f7       	brne	.-4      	; 0x29b6 <gpib_search+0x210>
    29ba:	00 c0       	rjmp	.+0      	; 0x29bc <gpib_search+0x216>
    29bc:	00 00       	nop
			_delay_us(220);
		ATN_LOW;
    29be:	86 9a       	sbi	0x10, 6	; 16
    29c0:	87 e1       	ldi	r24, 0x17	; 23
    29c2:	91 e0       	ldi	r25, 0x01	; 1
    29c4:	01 97       	sbiw	r24, 0x01	; 1
    29c6:	f1 f7       	brne	.-4      	; 0x29c4 <gpib_search+0x21e>
    29c8:	00 c0       	rjmp	.+0      	; 0x29ca <gpib_search+0x224>
    29ca:	00 00       	nop
    29cc:	87 cf       	rjmp	.-242    	; 0x28dc <gpib_search+0x136>

000029ce <cmd_addr>:
	eeprom_update_if_changed(105, '\r');
	gpib_set_readtermination('\r');
}

void cmd_addr(void)
{
    29ce:	08 95       	ret

000029d0 <cmd_autoid_slow>:
	eeprom_update_if_changed(104, 0x01); // autoId OFF
}

void cmd_autoid_slow(void)
{
	eeprom_update_if_changed(104, 0x02); // autoId SLOW
    29d0:	62 e0       	ldi	r22, 0x02	; 2
    29d2:	88 e6       	ldi	r24, 0x68	; 104
    29d4:	90 e0       	ldi	r25, 0x00	; 0
    29d6:	0c 94 ce 04 	jmp	0x99c	; 0x99c <eeprom_update_if_changed>

000029da <cmd_autoid_slower>:
}

void cmd_autoid_slower(void)
{
	eeprom_update_if_changed(104, 0x03); // autoId SLOWEST
    29da:	63 e0       	ldi	r22, 0x03	; 3
    29dc:	88 e6       	ldi	r24, 0x68	; 104
    29de:	90 e0       	ldi	r25, 0x00	; 0
    29e0:	0c 94 ce 04 	jmp	0x99c	; 0x99c <eeprom_update_if_changed>

000029e4 <cmd_autoid_slowest>:
}

void cmd_autoid_slowest(void)
{
	eeprom_update_if_changed(104, 0x04); // autoId SLOWEST
    29e4:	64 e0       	ldi	r22, 0x04	; 4
    29e6:	88 e6       	ldi	r24, 0x68	; 104
    29e8:	90 e0       	ldi	r25, 0x00	; 0
    29ea:	0c 94 ce 04 	jmp	0x99c	; 0x99c <eeprom_update_if_changed>

000029ee <cmd_0000>:
	set_internal_response((void*)"V1.7", 4);
}

void cmd_0000(void)
{
	eeprom_update_if_changed(104, 0x00); // autoId ON
    29ee:	60 e0       	ldi	r22, 0x00	; 0
    29f0:	88 e6       	ldi	r24, 0x68	; 104
    29f2:	90 e0       	ldi	r25, 0x00	; 0
    29f4:	0c 94 ce 04 	jmp	0x99c	; 0x99c <eeprom_update_if_changed>

000029f8 <cmd_autoid_on>:
    29f8:	fa cf       	rjmp	.-12     	; 0x29ee <cmd_0000>

000029fa <cmd_0001>:
}

void cmd_0001(void)
{
	eeprom_update_if_changed(104, 0x01); // autoId OFF
    29fa:	61 e0       	ldi	r22, 0x01	; 1
    29fc:	88 e6       	ldi	r24, 0x68	; 104
    29fe:	90 e0       	ldi	r25, 0x00	; 0
    2a00:	0c 94 ce 04 	jmp	0x99c	; 0x99c <eeprom_update_if_changed>

00002a04 <cmd_autoid_off>:
    2a04:	fa cf       	rjmp	.-12     	; 0x29fa <cmd_0001>

00002a06 <cmd_string_short>:
	Jump_To_Bootloader();
}

void cmd_string_short(void)
{
	eeprom_update_if_changed(106, 1);
    2a06:	61 e0       	ldi	r22, 0x01	; 1
    2a08:	8a e6       	ldi	r24, 0x6A	; 106
    2a0a:	90 e0       	ldi	r25, 0x00	; 0
    2a0c:	0c 94 ce 04 	jmp	0x99c	; 0x99c <eeprom_update_if_changed>

00002a10 <cmd_string_normal>:
}

void cmd_string_normal(void)
{
    eeprom_update_if_changed(106, 0);
    2a10:	60 e0       	ldi	r22, 0x00	; 0
    2a12:	8a e6       	ldi	r24, 0x6A	; 106
    2a14:	90 e0       	ldi	r25, 0x00	; 0
    2a16:	0c 94 ce 04 	jmp	0x99c	; 0x99c <eeprom_update_if_changed>

00002a1a <cmd_ver_query>:
	eeprom_update_if_changed(105, gpib_get_readtermination());
}

void cmd_ver_query(void)
{
	set_internal_response((void*)"V1.7", 4);
    2a1a:	64 e0       	ldi	r22, 0x04	; 4
    2a1c:	8d e1       	ldi	r24, 0x1D	; 29
    2a1e:	91 e0       	ldi	r25, 0x01	; 1
    2a20:	0c 94 c9 06 	jmp	0xd92	; 0xd92 <set_internal_response>

00002a24 <cmd_string_query>:
	{
		case 0x01:
			set_internal_response((void*) "short", 5);
			break;
		default: // 0x00 or 0xff
			set_internal_response((void*)"normal", 6);
    2a24:	66 e0       	ldi	r22, 0x06	; 6
    2a26:	82 e2       	ldi	r24, 0x22	; 34
    2a28:	91 e0       	ldi	r25, 0x01	; 1
    2a2a:	0c 94 c9 06 	jmp	0xd92	; 0xd92 <set_internal_response>

00002a2e <cmd_term_cr>:
	}
}

void cmd_term_cr(void)
{
	gpib_set_readtermination('\r');
    2a2e:	8d e0       	ldi	r24, 0x0D	; 13
    2a30:	b0 ce       	rjmp	.-672    	; 0x2792 <gpib_set_readtermination>

00002a32 <cmd_term_lf>:
}

void cmd_term_lf(void)
{
	gpib_set_readtermination('\n');
    2a32:	8a e0       	ldi	r24, 0x0A	; 10
    2a34:	ae ce       	rjmp	.-676    	; 0x2792 <gpib_set_readtermination>

00002a36 <cmd_term_eoi>:
}

void cmd_term_eoi(void)
{
	gpib_set_readtermination('\0');
    2a36:	80 e0       	ldi	r24, 0x00	; 0
    2a38:	ac ce       	rjmp	.-680    	; 0x2792 <gpib_set_readtermination>

00002a3a <cmd_0100>:
	eeprom_update_if_changed(104, 0x01); // autoId OFF
}

void cmd_0100(void)
{
	eeprom_update_if_changed(105, '\0');
    2a3a:	60 e0       	ldi	r22, 0x00	; 0
    2a3c:	89 e6       	ldi	r24, 0x69	; 105
    2a3e:	90 e0       	ldi	r25, 0x00	; 0
    2a40:	0e 94 ce 04 	call	0x99c	; 0x99c <eeprom_update_if_changed>
	gpib_set_readtermination('\0');
    2a44:	80 e0       	ldi	r24, 0x00	; 0
    2a46:	a5 ce       	rjmp	.-694    	; 0x2792 <gpib_set_readtermination>

00002a48 <cmd_0101>:
}

void cmd_0101(void)
{
	eeprom_update_if_changed(105, '\n');
    2a48:	6a e0       	ldi	r22, 0x0A	; 10
    2a4a:	89 e6       	ldi	r24, 0x69	; 105
    2a4c:	90 e0       	ldi	r25, 0x00	; 0
    2a4e:	0e 94 ce 04 	call	0x99c	; 0x99c <eeprom_update_if_changed>
	gpib_set_readtermination('\n');
    2a52:	8a e0       	ldi	r24, 0x0A	; 10
    2a54:	9e ce       	rjmp	.-708    	; 0x2792 <gpib_set_readtermination>

00002a56 <cmd_0102>:
}

void cmd_0102(void)
{
	eeprom_update_if_changed(105, '\r');
    2a56:	6d e0       	ldi	r22, 0x0D	; 13
    2a58:	89 e6       	ldi	r24, 0x69	; 105
    2a5a:	90 e0       	ldi	r25, 0x00	; 0
    2a5c:	0e 94 ce 04 	call	0x99c	; 0x99c <eeprom_update_if_changed>
	gpib_set_readtermination('\r');
    2a60:	8d e0       	ldi	r24, 0x0D	; 13
    2a62:	97 ce       	rjmp	.-722    	; 0x2792 <gpib_set_readtermination>

00002a64 <cmd_term_store>:
	}
}

void cmd_term_store(void)
{
	eeprom_update_if_changed(105, gpib_get_readtermination());
    2a64:	93 de       	rcall	.-730    	; 0x278c <gpib_get_readtermination>
    2a66:	68 2f       	mov	r22, r24
    2a68:	89 e6       	ldi	r24, 0x69	; 105
    2a6a:	90 e0       	ldi	r25, 0x00	; 0
    2a6c:	0c 94 ce 04 	jmp	0x99c	; 0x99c <eeprom_update_if_changed>

00002a70 <cmd_reset>:
{
}

void cmd_reset(void)
{
	Jump_To_Bootloader();
    2a70:	0c 94 dc 01 	jmp	0x3b8	; 0x3b8 <Jump_To_Bootloader>

00002a74 <cmd_autoid_query>:
	eeprom_update_if_changed(104, 0x04); // autoId SLOWEST
}

void cmd_autoid_query(void)
{
	switch(eeprom_read_byte((uint8_t*)104))
    2a74:	88 e6       	ldi	r24, 0x68	; 104
    2a76:	90 e0       	ldi	r25, 0x00	; 0
    2a78:	3a d5       	rcall	.+2676   	; 0x34ee <eeprom_read_byte>
    2a7a:	81 30       	cpi	r24, 0x01	; 1
    2a7c:	61 f0       	breq	.+24     	; 0x2a96 <cmd_autoid_query+0x22>
    2a7e:	82 30       	cpi	r24, 0x02	; 2
    2a80:	29 f4       	brne	.+10     	; 0x2a8c <cmd_autoid_query+0x18>
	{
		case 0x02:
			set_internal_response((void*)"slow", 4);
    2a82:	64 e0       	ldi	r22, 0x04	; 4
    2a84:	89 e2       	ldi	r24, 0x29	; 41
    2a86:	91 e0       	ldi	r25, 0x01	; 1
    2a88:	0c 94 c9 06 	jmp	0xd92	; 0xd92 <set_internal_response>
			break;
		case 0x01:
			set_internal_response((void*) "off", 3);
			break;
		default: // 0x00 or 0xff
			set_internal_response((void*)  "on", 2);
    2a8c:	62 e0       	ldi	r22, 0x02	; 2
    2a8e:	82 e3       	ldi	r24, 0x32	; 50
    2a90:	91 e0       	ldi	r25, 0x01	; 1
    2a92:	0c 94 c9 06 	jmp	0xd92	; 0xd92 <set_internal_response>
	{
		case 0x02:
			set_internal_response((void*)"slow", 4);
			break;
		case 0x01:
			set_internal_response((void*) "off", 3);
    2a96:	63 e0       	ldi	r22, 0x03	; 3
    2a98:	8e e2       	ldi	r24, 0x2E	; 46
    2a9a:	91 e0       	ldi	r25, 0x01	; 1
    2a9c:	0c 94 c9 06 	jmp	0xd92	; 0xd92 <set_internal_response>

00002aa0 <cmd_term_query>:
	gpib_set_readtermination('\0');
}

void cmd_term_query(void)
{
	char t = gpib_get_readtermination();
    2aa0:	75 de       	rcall	.-790    	; 0x278c <gpib_get_readtermination>
	switch (t)
    2aa2:	8a 30       	cpi	r24, 0x0A	; 10
    2aa4:	61 f0       	breq	.+24     	; 0x2abe <cmd_term_query+0x1e>
    2aa6:	8d 30       	cpi	r24, 0x0D	; 13
    2aa8:	29 f4       	brne	.+10     	; 0x2ab4 <cmd_term_query+0x14>
	{
		case '\r':	set_internal_response((void*) "cr", 2); break;
    2aaa:	62 e0       	ldi	r22, 0x02	; 2
    2aac:	85 e3       	ldi	r24, 0x35	; 53
    2aae:	91 e0       	ldi	r25, 0x01	; 1
    2ab0:	0c 94 c9 06 	jmp	0xd92	; 0xd92 <set_internal_response>
		case '\n':	set_internal_response((void*) "lf", 2); break;
		default:    set_internal_response((void*)"eoi", 3); break;
    2ab4:	63 e0       	ldi	r22, 0x03	; 3
    2ab6:	8b e3       	ldi	r24, 0x3B	; 59
    2ab8:	91 e0       	ldi	r25, 0x01	; 1
    2aba:	0c 94 c9 06 	jmp	0xd92	; 0xd92 <set_internal_response>
{
	char t = gpib_get_readtermination();
	switch (t)
	{
		case '\r':	set_internal_response((void*) "cr", 2); break;
		case '\n':	set_internal_response((void*) "lf", 2); break;
    2abe:	62 e0       	ldi	r22, 0x02	; 2
    2ac0:	88 e3       	ldi	r24, 0x38	; 56
    2ac2:	91 e0       	ldi	r25, 0x01	; 1
    2ac4:	0c 94 c9 06 	jmp	0xd92	; 0xd92 <set_internal_response>

00002ac8 <parser_reset>:

PGM_P pparser_ps = cmd_parser;

void parser_reset(void)
{
    pparser_ps = cmd_parser;
    2ac8:	8f e3       	ldi	r24, 0x3F	; 63
    2aca:	91 e0       	ldi	r25, 0x01	; 1
    2acc:	90 93 1c 01 	sts	0x011C, r25	; 0x80011c <pparser_ps+0x1>
    2ad0:	80 93 1b 01 	sts	0x011B, r24	; 0x80011b <pparser_ps>
    2ad4:	08 95       	ret

00002ad6 <parser_add>:
}


bool parser_add(uint8_t ch)
{
    2ad6:	1f 93       	push	r17
    2ad8:	cf 93       	push	r28
    2ada:	df 93       	push	r29
    2adc:	18 2f       	mov	r17, r24
    uint16_t entryidx;
	#endif
    uint8_t cnt = 0;
	
	// enforce lower case
	if ( (ch >=65) && (ch<=90) )
    2ade:	8f eb       	ldi	r24, 0xBF	; 191
    2ae0:	81 0f       	add	r24, r17
    2ae2:	8a 31       	cpi	r24, 0x1A	; 26
    2ae4:	08 f4       	brcc	.+2      	; 0x2ae8 <parser_add+0x12>
		ch += 32;
    2ae6:	10 5e       	subi	r17, 0xE0	; 224

	entrycount = pgm_read_byte(pparser_ps++);
    2ae8:	e0 91 1b 01 	lds	r30, 0x011B	; 0x80011b <pparser_ps>
    2aec:	f0 91 1c 01 	lds	r31, 0x011C	; 0x80011c <pparser_ps+0x1>
    2af0:	9f 01       	movw	r18, r30
    2af2:	2f 5f       	subi	r18, 0xFF	; 255
    2af4:	3f 4f       	sbci	r19, 0xFF	; 255
    2af6:	d4 91       	lpm	r29, Z
    while (cnt < entrycount)
    2af8:	dd 23       	and	r29, r29
    2afa:	09 f4       	brne	.+2      	; 0x2afe <parser_add+0x28>
    2afc:	45 c0       	rjmp	.+138    	; 0x2b88 <parser_add+0xb2>
    2afe:	c0 e0       	ldi	r28, 0x00	; 0
    2b00:	80 e0       	ldi	r24, 0x00	; 0
    2b02:	07 c0       	rjmp	.+14     	; 0x2b12 <parser_add+0x3c>
                pparser_ps = &(cmd_parser[entryidx]);
				return false;
            }
        }

        cnt = cnt + 1;
    2b04:	cf 5f       	subi	r28, 0xFF	; 255
	// enforce lower case
	if ( (ch >=65) && (ch<=90) )
		ch += 32;

	entrycount = pgm_read_byte(pparser_ps++);
    while (cnt < entrycount)
    2b06:	dc 17       	cp	r29, r28
    2b08:	49 f1       	breq	.+82     	; 0x2b5c <parser_add+0x86>
    2b0a:	20 91 1b 01 	lds	r18, 0x011B	; 0x80011b <pparser_ps>
    2b0e:	30 91 1c 01 	lds	r19, 0x011C	; 0x80011c <pparser_ps+0x1>
    {
        uint8_t entrych = pgm_read_byte(pparser_ps++);
    2b12:	f9 01       	movw	r30, r18
    2b14:	94 91       	lpm	r25, Z

		#if PARSER_ENTRYBYTECOUNT == 1
		entryidx = pgm_read_byte(pparser_ps++);
    2b16:	a9 01       	movw	r20, r18
    2b18:	4e 5f       	subi	r20, 0xFE	; 254
    2b1a:	5f 4f       	sbci	r21, 0xFF	; 255
    2b1c:	50 93 1c 01 	sts	0x011C, r21	; 0x80011c <pparser_ps+0x1>
    2b20:	40 93 1b 01 	sts	0x011B, r20	; 0x80011b <pparser_ps>
    2b24:	31 96       	adiw	r30, 0x01	; 1
    2b26:	e4 91       	lpm	r30, Z
            entryidx <<= 8;
            entryidx = entryidx | pgm_read_byte(pparser_ps++);
        }
		#endif

        if ((entrych & 0x7F) == ch)
    2b28:	29 2f       	mov	r18, r25
    2b2a:	2f 77       	andi	r18, 0x7F	; 127
    2b2c:	12 13       	cpse	r17, r18
    2b2e:	ea cf       	rjmp	.-44     	; 0x2b04 <parser_add+0x2e>
        {
            if ((entrych >= 128))
            { // entry to cmd list
				parser_func_t func;
				func = pgm_read_ptr_far(&(cmd_list[entryidx]));
    2b30:	8e 2f       	mov	r24, r30
        }
		#endif

        if ((entrych & 0x7F) == ch)
        {
            if ((entrych >= 128))
    2b32:	97 ff       	sbrs	r25, 7
    2b34:	1d c0       	rjmp	.+58     	; 0x2b70 <parser_add+0x9a>
            { // entry to cmd list
				parser_func_t func;
				func = pgm_read_ptr_far(&(cmd_list[entryidx]));
    2b36:	90 e0       	ldi	r25, 0x00	; 0
    2b38:	88 0f       	add	r24, r24
    2b3a:	99 1f       	adc	r25, r25
    2b3c:	8d 5e       	subi	r24, 0xED	; 237
    2b3e:	9e 4f       	sbci	r25, 0xFE	; 254
    2b40:	09 2e       	mov	r0, r25
    2b42:	00 0c       	add	r0, r0
    2b44:	aa 0b       	sbc	r26, r26
    2b46:	bb 0b       	sbc	r27, r27
    2b48:	ab bf       	out	0x3b, r26	; 59
    2b4a:	fc 01       	movw	r30, r24
    2b4c:	87 91       	elpm	r24, Z+
    2b4e:	96 91       	elpm	r25, Z
				func(); // dispatch the command!
    2b50:	fc 01       	movw	r30, r24
    2b52:	09 95       	icall
				cmd_dispatched = true;
    2b54:	81 e0       	ldi	r24, 0x01	; 1
                pparser_ps = &(cmd_parser[entryidx]);
				return false;
            }
        }

        cnt = cnt + 1;
    2b56:	cf 5f       	subi	r28, 0xFF	; 255
	// enforce lower case
	if ( (ch >=65) && (ch<=90) )
		ch += 32;

	entrycount = pgm_read_byte(pparser_ps++);
    while (cnt < entrycount)
    2b58:	dc 13       	cpse	r29, r28
    2b5a:	d7 cf       	rjmp	.-82     	; 0x2b0a <parser_add+0x34>

PGM_P pparser_ps = cmd_parser;

void parser_reset(void)
{
    pparser_ps = cmd_parser;
    2b5c:	2f e3       	ldi	r18, 0x3F	; 63
    2b5e:	31 e0       	ldi	r19, 0x01	; 1
    2b60:	30 93 1c 01 	sts	0x011C, r19	; 0x80011c <pparser_ps+0x1>
    2b64:	20 93 1b 01 	sts	0x011B, r18	; 0x80011b <pparser_ps>
    }

	// character not in list => restart parser at root
    parser_reset();
	return cmd_dispatched;
}
    2b68:	df 91       	pop	r29
    2b6a:	cf 91       	pop	r28
    2b6c:	1f 91       	pop	r17
    2b6e:	08 95       	ret
				func(); // dispatch the command!
				cmd_dispatched = true;
            }
            else
            { // parsing not finished
                pparser_ps = &(cmd_parser[entryidx]);
    2b70:	90 e0       	ldi	r25, 0x00	; 0
    2b72:	81 5c       	subi	r24, 0xC1	; 193
    2b74:	9e 4f       	sbci	r25, 0xFE	; 254
    2b76:	90 93 1c 01 	sts	0x011C, r25	; 0x80011c <pparser_ps+0x1>
    2b7a:	80 93 1b 01 	sts	0x011B, r24	; 0x80011b <pparser_ps>
				return false;
    2b7e:	80 e0       	ldi	r24, 0x00	; 0
    }

	// character not in list => restart parser at root
    parser_reset();
	return cmd_dispatched;
}
    2b80:	df 91       	pop	r29
    2b82:	cf 91       	pop	r28
    2b84:	1f 91       	pop	r17
    2b86:	08 95       	ret
}


bool parser_add(uint8_t ch)
{
	bool cmd_dispatched = false;
    2b88:	80 e0       	ldi	r24, 0x00	; 0
    2b8a:	e8 cf       	rjmp	.-48     	; 0x2b5c <parser_add+0x86>

00002b8c <Endpoint_Write_Stream_LE>:

		if (Endpoint_IsINReady())
		{
			uint16_t BytesInEndpoint = Endpoint_BytesInEndpoint();

			while (Length && (BytesInEndpoint < USB_Device_ControlEndpointSize))
    2b8c:	cf 92       	push	r12
    2b8e:	df 92       	push	r13
    2b90:	ef 92       	push	r14
    2b92:	ff 92       	push	r15
    2b94:	0f 93       	push	r16
    2b96:	1f 93       	push	r17
    2b98:	cf 93       	push	r28
    2b9a:	df 93       	push	r29
    2b9c:	8c 01       	movw	r16, r24
    2b9e:	eb 01       	movw	r28, r22
    2ba0:	6a 01       	movw	r12, r20
    2ba2:	c4 d1       	rcall	.+904    	; 0x2f2c <Endpoint_WaitUntilReady>
    2ba4:	81 11       	cpse	r24, r1
    2ba6:	1e c0       	rjmp	.+60     	; 0x2be4 <Endpoint_Write_Stream_LE+0x58>
    2ba8:	c1 14       	cp	r12, r1
    2baa:	d1 04       	cpc	r13, r1
    2bac:	39 f0       	breq	.+14     	; 0x2bbc <Endpoint_Write_Stream_LE+0x30>
    2bae:	f6 01       	movw	r30, r12
    2bb0:	80 81       	ld	r24, Z
    2bb2:	91 81       	ldd	r25, Z+1	; 0x01
    2bb4:	c8 1b       	sub	r28, r24
    2bb6:	d9 0b       	sbc	r29, r25
    2bb8:	08 0f       	add	r16, r24
    2bba:	19 1f       	adc	r17, r25
    2bbc:	20 97       	sbiw	r28, 0x00	; 0
    2bbe:	89 f0       	breq	.+34     	; 0x2be2 <Endpoint_Write_Stream_LE+0x56>
    2bc0:	e1 2c       	mov	r14, r1
    2bc2:	f1 2c       	mov	r15, r1
    2bc4:	90 91 e8 00 	lds	r25, 0x00E8	; 0x8000e8 <__TEXT_REGION_LENGTH__+0x7e00e8>
    2bc8:	95 ff       	sbrs	r25, 5
    2bca:	15 c0       	rjmp	.+42     	; 0x2bf6 <Endpoint_Write_Stream_LE+0x6a>
    2bcc:	f8 01       	movw	r30, r16
    2bce:	81 91       	ld	r24, Z+
    2bd0:	8f 01       	movw	r16, r30
    2bd2:	80 93 f1 00 	sts	0x00F1, r24	; 0x8000f1 <__TEXT_REGION_LENGTH__+0x7e00f1>
    2bd6:	21 97       	sbiw	r28, 0x01	; 1
    2bd8:	ff ef       	ldi	r31, 0xFF	; 255
    2bda:	ef 1a       	sub	r14, r31
    2bdc:	ff 0a       	sbc	r15, r31
    2bde:	20 97       	sbiw	r28, 0x00	; 0
    2be0:	89 f7       	brne	.-30     	; 0x2bc4 <Endpoint_Write_Stream_LE+0x38>
    2be2:	80 e0       	ldi	r24, 0x00	; 0
    2be4:	df 91       	pop	r29
    2be6:	cf 91       	pop	r28
    2be8:	1f 91       	pop	r17
    2bea:	0f 91       	pop	r16
    2bec:	ff 90       	pop	r15
    2bee:	ef 90       	pop	r14
    2bf0:	df 90       	pop	r13
    2bf2:	cf 90       	pop	r12
    2bf4:	08 95       	ret
    2bf6:	80 91 e8 00 	lds	r24, 0x00E8	; 0x8000e8 <__TEXT_REGION_LENGTH__+0x7e00e8>
    2bfa:	8e 77       	andi	r24, 0x7E	; 126
    2bfc:	80 93 e8 00 	sts	0x00E8, r24	; 0x8000e8 <__TEXT_REGION_LENGTH__+0x7e00e8>
    2c00:	4a d4       	rcall	.+2196   	; 0x3496 <USB_USBTask>
    2c02:	c1 14       	cp	r12, r1
    2c04:	d1 04       	cpc	r13, r1
    2c06:	21 f4       	brne	.+8      	; 0x2c10 <Endpoint_Write_Stream_LE+0x84>
    2c08:	91 d1       	rcall	.+802    	; 0x2f2c <Endpoint_WaitUntilReady>
    2c0a:	88 23       	and	r24, r24
    2c0c:	d9 f2       	breq	.-74     	; 0x2bc4 <Endpoint_Write_Stream_LE+0x38>
    2c0e:	ea cf       	rjmp	.-44     	; 0x2be4 <Endpoint_Write_Stream_LE+0x58>
    2c10:	f6 01       	movw	r30, r12
    2c12:	80 81       	ld	r24, Z
    2c14:	91 81       	ldd	r25, Z+1	; 0x01
    2c16:	e8 0e       	add	r14, r24
    2c18:	f9 1e       	adc	r15, r25
    2c1a:	f1 82       	std	Z+1, r15	; 0x01
    2c1c:	e0 82       	st	Z, r14
    2c1e:	85 e0       	ldi	r24, 0x05	; 5
    2c20:	e1 cf       	rjmp	.-62     	; 0x2be4 <Endpoint_Write_Stream_LE+0x58>

00002c22 <Endpoint_Write_Control_Stream_LE>:
    2c22:	20 91 d6 05 	lds	r18, 0x05D6	; 0x8005d6 <USB_ControlRequest+0x6>
    2c26:	30 91 d7 05 	lds	r19, 0x05D7	; 0x8005d7 <USB_ControlRequest+0x7>
    2c2a:	26 17       	cp	r18, r22
    2c2c:	37 07       	cpc	r19, r23
    2c2e:	50 f0       	brcs	.+20     	; 0x2c44 <Endpoint_Write_Control_Stream_LE+0x22>
    2c30:	61 15       	cp	r22, r1
    2c32:	71 05       	cpc	r23, r1
    2c34:	99 f5       	brne	.+102    	; 0x2c9c <Endpoint_Write_Control_Stream_LE+0x7a>
    2c36:	20 91 e8 00 	lds	r18, 0x00E8	; 0x8000e8 <__TEXT_REGION_LENGTH__+0x7e00e8>
    2c3a:	2e 77       	andi	r18, 0x7E	; 126
    2c3c:	20 93 e8 00 	sts	0x00E8, r18	; 0x8000e8 <__TEXT_REGION_LENGTH__+0x7e00e8>
    2c40:	20 e0       	ldi	r18, 0x00	; 0
    2c42:	30 e0       	ldi	r19, 0x00	; 0
    2c44:	fc 01       	movw	r30, r24
    2c46:	40 e0       	ldi	r20, 0x00	; 0
    2c48:	0e c0       	rjmp	.+28     	; 0x2c66 <Endpoint_Write_Control_Stream_LE+0x44>
    2c4a:	85 30       	cpi	r24, 0x05	; 5
    2c4c:	49 f1       	breq	.+82     	; 0x2ca0 <Endpoint_Write_Control_Stream_LE+0x7e>
    2c4e:	80 91 e8 00 	lds	r24, 0x00E8	; 0x8000e8 <__TEXT_REGION_LENGTH__+0x7e00e8>
    2c52:	83 fd       	sbrc	r24, 3
    2c54:	27 c0       	rjmp	.+78     	; 0x2ca4 <Endpoint_Write_Control_Stream_LE+0x82>
    2c56:	80 91 e8 00 	lds	r24, 0x00E8	; 0x8000e8 <__TEXT_REGION_LENGTH__+0x7e00e8>
    2c5a:	82 fd       	sbrc	r24, 2
    2c5c:	19 c0       	rjmp	.+50     	; 0x2c90 <Endpoint_Write_Control_Stream_LE+0x6e>
    2c5e:	80 91 e8 00 	lds	r24, 0x00E8	; 0x8000e8 <__TEXT_REGION_LENGTH__+0x7e00e8>
    2c62:	80 fd       	sbrc	r24, 0
    2c64:	21 c0       	rjmp	.+66     	; 0x2ca8 <Endpoint_Write_Control_Stream_LE+0x86>
    2c66:	21 15       	cp	r18, r1
    2c68:	31 05       	cpc	r19, r1
    2c6a:	11 f4       	brne	.+4      	; 0x2c70 <Endpoint_Write_Control_Stream_LE+0x4e>
    2c6c:	44 23       	and	r20, r20
    2c6e:	81 f0       	breq	.+32     	; 0x2c90 <Endpoint_Write_Control_Stream_LE+0x6e>
    2c70:	80 91 cf 05 	lds	r24, 0x05CF	; 0x8005cf <USB_DeviceState>
    2c74:	81 11       	cpse	r24, r1
    2c76:	e9 cf       	rjmp	.-46     	; 0x2c4a <Endpoint_Write_Control_Stream_LE+0x28>
    2c78:	82 e0       	ldi	r24, 0x02	; 2
    2c7a:	08 95       	ret
    2c7c:	80 91 cf 05 	lds	r24, 0x05CF	; 0x8005cf <USB_DeviceState>
    2c80:	88 23       	and	r24, r24
    2c82:	d1 f3       	breq	.-12     	; 0x2c78 <Endpoint_Write_Control_Stream_LE+0x56>
    2c84:	85 30       	cpi	r24, 0x05	; 5
    2c86:	61 f0       	breq	.+24     	; 0x2ca0 <Endpoint_Write_Control_Stream_LE+0x7e>
    2c88:	80 91 e8 00 	lds	r24, 0x00E8	; 0x8000e8 <__TEXT_REGION_LENGTH__+0x7e00e8>
    2c8c:	83 fd       	sbrc	r24, 3
    2c8e:	0a c0       	rjmp	.+20     	; 0x2ca4 <Endpoint_Write_Control_Stream_LE+0x82>
    2c90:	80 91 e8 00 	lds	r24, 0x00E8	; 0x8000e8 <__TEXT_REGION_LENGTH__+0x7e00e8>
    2c94:	82 ff       	sbrs	r24, 2
    2c96:	f2 cf       	rjmp	.-28     	; 0x2c7c <Endpoint_Write_Control_Stream_LE+0x5a>
    2c98:	80 e0       	ldi	r24, 0x00	; 0
    2c9a:	08 95       	ret
    2c9c:	9b 01       	movw	r18, r22
    2c9e:	d2 cf       	rjmp	.-92     	; 0x2c44 <Endpoint_Write_Control_Stream_LE+0x22>
    2ca0:	83 e0       	ldi	r24, 0x03	; 3
    2ca2:	08 95       	ret
    2ca4:	81 e0       	ldi	r24, 0x01	; 1
    2ca6:	08 95       	ret
    2ca8:	40 91 f3 00 	lds	r20, 0x00F3	; 0x8000f3 <__TEXT_REGION_LENGTH__+0x7e00f3>
    2cac:	80 91 f2 00 	lds	r24, 0x00F2	; 0x8000f2 <__TEXT_REGION_LENGTH__+0x7e00f2>
    2cb0:	90 e0       	ldi	r25, 0x00	; 0
    2cb2:	94 2b       	or	r25, r20
    2cb4:	21 15       	cp	r18, r1
    2cb6:	31 05       	cpc	r19, r1
    2cb8:	19 f0       	breq	.+6      	; 0x2cc0 <Endpoint_Write_Control_Stream_LE+0x9e>
    2cba:	88 30       	cpi	r24, 0x08	; 8
    2cbc:	91 05       	cpc	r25, r1
    2cbe:	68 f0       	brcs	.+26     	; 0x2cda <Endpoint_Write_Control_Stream_LE+0xb8>
    2cc0:	41 e0       	ldi	r20, 0x01	; 1
    2cc2:	08 97       	sbiw	r24, 0x08	; 8
    2cc4:	09 f0       	breq	.+2      	; 0x2cc8 <Endpoint_Write_Control_Stream_LE+0xa6>
    2cc6:	40 e0       	ldi	r20, 0x00	; 0
    2cc8:	80 91 e8 00 	lds	r24, 0x00E8	; 0x8000e8 <__TEXT_REGION_LENGTH__+0x7e00e8>
    2ccc:	8e 77       	andi	r24, 0x7E	; 126
    2cce:	80 93 e8 00 	sts	0x00E8, r24	; 0x8000e8 <__TEXT_REGION_LENGTH__+0x7e00e8>
    2cd2:	c9 cf       	rjmp	.-110    	; 0x2c66 <Endpoint_Write_Control_Stream_LE+0x44>
    2cd4:	88 30       	cpi	r24, 0x08	; 8
    2cd6:	91 05       	cpc	r25, r1
    2cd8:	99 f3       	breq	.-26     	; 0x2cc0 <Endpoint_Write_Control_Stream_LE+0x9e>
    2cda:	41 91       	ld	r20, Z+
    2cdc:	40 93 f1 00 	sts	0x00F1, r20	; 0x8000f1 <__TEXT_REGION_LENGTH__+0x7e00f1>
    2ce0:	21 50       	subi	r18, 0x01	; 1
    2ce2:	31 09       	sbc	r19, r1
    2ce4:	01 96       	adiw	r24, 0x01	; 1
    2ce6:	21 15       	cp	r18, r1
    2ce8:	31 05       	cpc	r19, r1
    2cea:	a1 f7       	brne	.-24     	; 0x2cd4 <Endpoint_Write_Control_Stream_LE+0xb2>
    2cec:	e9 cf       	rjmp	.-46     	; 0x2cc0 <Endpoint_Write_Control_Stream_LE+0x9e>

00002cee <Endpoint_Write_Control_PStream_LE>:
    2cee:	20 91 d6 05 	lds	r18, 0x05D6	; 0x8005d6 <USB_ControlRequest+0x6>
    2cf2:	30 91 d7 05 	lds	r19, 0x05D7	; 0x8005d7 <USB_ControlRequest+0x7>
    2cf6:	26 17       	cp	r18, r22
    2cf8:	37 07       	cpc	r19, r23
    2cfa:	50 f0       	brcs	.+20     	; 0x2d10 <Endpoint_Write_Control_PStream_LE+0x22>
    2cfc:	61 15       	cp	r22, r1
    2cfe:	71 05       	cpc	r23, r1
    2d00:	99 f5       	brne	.+102    	; 0x2d68 <Endpoint_Write_Control_PStream_LE+0x7a>
    2d02:	20 91 e8 00 	lds	r18, 0x00E8	; 0x8000e8 <__TEXT_REGION_LENGTH__+0x7e00e8>
    2d06:	2e 77       	andi	r18, 0x7E	; 126
    2d08:	20 93 e8 00 	sts	0x00E8, r18	; 0x8000e8 <__TEXT_REGION_LENGTH__+0x7e00e8>
    2d0c:	20 e0       	ldi	r18, 0x00	; 0
    2d0e:	30 e0       	ldi	r19, 0x00	; 0
    2d10:	fc 01       	movw	r30, r24
    2d12:	40 e0       	ldi	r20, 0x00	; 0
    2d14:	0e c0       	rjmp	.+28     	; 0x2d32 <Endpoint_Write_Control_PStream_LE+0x44>
    2d16:	85 30       	cpi	r24, 0x05	; 5
    2d18:	49 f1       	breq	.+82     	; 0x2d6c <Endpoint_Write_Control_PStream_LE+0x7e>
    2d1a:	80 91 e8 00 	lds	r24, 0x00E8	; 0x8000e8 <__TEXT_REGION_LENGTH__+0x7e00e8>
    2d1e:	83 fd       	sbrc	r24, 3
    2d20:	27 c0       	rjmp	.+78     	; 0x2d70 <Endpoint_Write_Control_PStream_LE+0x82>
    2d22:	80 91 e8 00 	lds	r24, 0x00E8	; 0x8000e8 <__TEXT_REGION_LENGTH__+0x7e00e8>
    2d26:	82 fd       	sbrc	r24, 2
    2d28:	19 c0       	rjmp	.+50     	; 0x2d5c <Endpoint_Write_Control_PStream_LE+0x6e>
    2d2a:	80 91 e8 00 	lds	r24, 0x00E8	; 0x8000e8 <__TEXT_REGION_LENGTH__+0x7e00e8>
    2d2e:	80 fd       	sbrc	r24, 0
    2d30:	21 c0       	rjmp	.+66     	; 0x2d74 <Endpoint_Write_Control_PStream_LE+0x86>
    2d32:	21 15       	cp	r18, r1
    2d34:	31 05       	cpc	r19, r1
    2d36:	11 f4       	brne	.+4      	; 0x2d3c <Endpoint_Write_Control_PStream_LE+0x4e>
    2d38:	44 23       	and	r20, r20
    2d3a:	81 f0       	breq	.+32     	; 0x2d5c <Endpoint_Write_Control_PStream_LE+0x6e>
    2d3c:	80 91 cf 05 	lds	r24, 0x05CF	; 0x8005cf <USB_DeviceState>
    2d40:	81 11       	cpse	r24, r1
    2d42:	e9 cf       	rjmp	.-46     	; 0x2d16 <Endpoint_Write_Control_PStream_LE+0x28>
    2d44:	82 e0       	ldi	r24, 0x02	; 2
    2d46:	08 95       	ret
    2d48:	80 91 cf 05 	lds	r24, 0x05CF	; 0x8005cf <USB_DeviceState>
    2d4c:	88 23       	and	r24, r24
    2d4e:	d1 f3       	breq	.-12     	; 0x2d44 <Endpoint_Write_Control_PStream_LE+0x56>
    2d50:	85 30       	cpi	r24, 0x05	; 5
    2d52:	61 f0       	breq	.+24     	; 0x2d6c <Endpoint_Write_Control_PStream_LE+0x7e>
    2d54:	80 91 e8 00 	lds	r24, 0x00E8	; 0x8000e8 <__TEXT_REGION_LENGTH__+0x7e00e8>
    2d58:	83 fd       	sbrc	r24, 3
    2d5a:	0a c0       	rjmp	.+20     	; 0x2d70 <Endpoint_Write_Control_PStream_LE+0x82>
    2d5c:	80 91 e8 00 	lds	r24, 0x00E8	; 0x8000e8 <__TEXT_REGION_LENGTH__+0x7e00e8>
    2d60:	82 ff       	sbrs	r24, 2
    2d62:	f2 cf       	rjmp	.-28     	; 0x2d48 <Endpoint_Write_Control_PStream_LE+0x5a>
    2d64:	80 e0       	ldi	r24, 0x00	; 0
    2d66:	08 95       	ret
    2d68:	9b 01       	movw	r18, r22
    2d6a:	d2 cf       	rjmp	.-92     	; 0x2d10 <Endpoint_Write_Control_PStream_LE+0x22>
    2d6c:	83 e0       	ldi	r24, 0x03	; 3
    2d6e:	08 95       	ret
    2d70:	81 e0       	ldi	r24, 0x01	; 1
    2d72:	08 95       	ret
    2d74:	40 91 f3 00 	lds	r20, 0x00F3	; 0x8000f3 <__TEXT_REGION_LENGTH__+0x7e00f3>
    2d78:	80 91 f2 00 	lds	r24, 0x00F2	; 0x8000f2 <__TEXT_REGION_LENGTH__+0x7e00f2>
    2d7c:	90 e0       	ldi	r25, 0x00	; 0
    2d7e:	94 2b       	or	r25, r20
    2d80:	21 15       	cp	r18, r1
    2d82:	31 05       	cpc	r19, r1
    2d84:	19 f0       	breq	.+6      	; 0x2d8c <Endpoint_Write_Control_PStream_LE+0x9e>
    2d86:	88 30       	cpi	r24, 0x08	; 8
    2d88:	91 05       	cpc	r25, r1
    2d8a:	68 f0       	brcs	.+26     	; 0x2da6 <Endpoint_Write_Control_PStream_LE+0xb8>
    2d8c:	41 e0       	ldi	r20, 0x01	; 1
    2d8e:	08 97       	sbiw	r24, 0x08	; 8
    2d90:	09 f0       	breq	.+2      	; 0x2d94 <Endpoint_Write_Control_PStream_LE+0xa6>
    2d92:	40 e0       	ldi	r20, 0x00	; 0
    2d94:	80 91 e8 00 	lds	r24, 0x00E8	; 0x8000e8 <__TEXT_REGION_LENGTH__+0x7e00e8>
    2d98:	8e 77       	andi	r24, 0x7E	; 126
    2d9a:	80 93 e8 00 	sts	0x00E8, r24	; 0x8000e8 <__TEXT_REGION_LENGTH__+0x7e00e8>
    2d9e:	c9 cf       	rjmp	.-110    	; 0x2d32 <Endpoint_Write_Control_PStream_LE+0x44>
    2da0:	88 30       	cpi	r24, 0x08	; 8
    2da2:	91 05       	cpc	r25, r1
    2da4:	99 f3       	breq	.-26     	; 0x2d8c <Endpoint_Write_Control_PStream_LE+0x9e>
    2da6:	44 91       	lpm	r20, Z
    2da8:	40 93 f1 00 	sts	0x00F1, r20	; 0x8000f1 <__TEXT_REGION_LENGTH__+0x7e00f1>
    2dac:	31 96       	adiw	r30, 0x01	; 1
    2dae:	21 50       	subi	r18, 0x01	; 1
    2db0:	31 09       	sbc	r19, r1
    2db2:	01 96       	adiw	r24, 0x01	; 1
    2db4:	21 15       	cp	r18, r1
    2db6:	31 05       	cpc	r19, r1
    2db8:	99 f7       	brne	.-26     	; 0x2da0 <Endpoint_Write_Control_PStream_LE+0xb2>
    2dba:	e8 cf       	rjmp	.-48     	; 0x2d8c <Endpoint_Write_Control_PStream_LE+0x9e>

00002dbc <Endpoint_Write_Control_EStream_LE>:

#if defined(TEMPLATE_FUNC_NAME)

uint8_t TEMPLATE_FUNC_NAME (const void* const Buffer,
                            uint16_t Length)
{
    2dbc:	ef 92       	push	r14
    2dbe:	ff 92       	push	r15
    2dc0:	0f 93       	push	r16
    2dc2:	1f 93       	push	r17
    2dc4:	cf 93       	push	r28
    2dc6:	df 93       	push	r29
	uint8_t* DataStream     = ((uint8_t*)Buffer + TEMPLATE_BUFFER_OFFSET(Length));
	bool     LastPacketFull = false;

	if (Length > USB_ControlRequest.wLength)
    2dc8:	c0 91 d6 05 	lds	r28, 0x05D6	; 0x8005d6 <USB_ControlRequest+0x6>
    2dcc:	d0 91 d7 05 	lds	r29, 0x05D7	; 0x8005d7 <USB_ControlRequest+0x7>
    2dd0:	c6 17       	cp	r28, r22
    2dd2:	d7 07       	cpc	r29, r23
    2dd4:	50 f0       	brcs	.+20     	; 0x2dea <Endpoint_Write_Control_EStream_LE+0x2e>
	  Length = USB_ControlRequest.wLength;
	else if (!(Length))
    2dd6:	61 15       	cp	r22, r1
    2dd8:	71 05       	cpc	r23, r1
    2dda:	c1 f5       	brne	.+112    	; 0x2e4c <Endpoint_Write_Control_EStream_LE+0x90>
			 */
			static inline void Endpoint_ClearIN(void) ATTR_ALWAYS_INLINE;
			static inline void Endpoint_ClearIN(void)
			{
				#if !defined(CONTROL_ONLY_DEVICE)
					UEINTX &= ~((1 << TXINI) | (1 << FIFOCON));
    2ddc:	20 91 e8 00 	lds	r18, 0x00E8	; 0x8000e8 <__TEXT_REGION_LENGTH__+0x7e00e8>
    2de0:	2e 77       	andi	r18, 0x7E	; 126
    2de2:	20 93 e8 00 	sts	0x00E8, r18	; 0x8000e8 <__TEXT_REGION_LENGTH__+0x7e00e8>
    2de6:	c0 e0       	ldi	r28, 0x00	; 0
    2de8:	d0 e0       	ldi	r29, 0x00	; 0
    2dea:	8c 01       	movw	r16, r24
    2dec:	90 e0       	ldi	r25, 0x00	; 0
    2dee:	0e c0       	rjmp	.+28     	; 0x2e0c <Endpoint_Write_Control_EStream_LE+0x50>
	{
		uint8_t USB_DeviceState_LCL = USB_DeviceState;

		if (USB_DeviceState_LCL == DEVICE_STATE_Unattached)
		  return ENDPOINT_RWCSTREAM_DeviceDisconnected;
		else if (USB_DeviceState_LCL == DEVICE_STATE_Suspended)
    2df0:	85 30       	cpi	r24, 0x05	; 5
    2df2:	71 f1       	breq	.+92     	; 0x2e50 <Endpoint_Write_Control_EStream_LE+0x94>
			 *  \return Boolean \c true if the selected endpoint has received a SETUP packet, \c false otherwise.
			 */
			static inline bool Endpoint_IsSETUPReceived(void) ATTR_WARN_UNUSED_RESULT ATTR_ALWAYS_INLINE;
			static inline bool Endpoint_IsSETUPReceived(void)
			{
				return ((UEINTX & (1 << RXSTPI)) ? true : false);
    2df4:	80 91 e8 00 	lds	r24, 0x00E8	; 0x8000e8 <__TEXT_REGION_LENGTH__+0x7e00e8>
		  return ENDPOINT_RWCSTREAM_BusSuspended;
		else if (Endpoint_IsSETUPReceived())
    2df8:	83 fd       	sbrc	r24, 3
    2dfa:	32 c0       	rjmp	.+100    	; 0x2e60 <Endpoint_Write_Control_EStream_LE+0xa4>
			 *  \return Boolean \c true if current endpoint is has received an OUT packet, \c false otherwise.
			 */
			static inline bool Endpoint_IsOUTReceived(void) ATTR_WARN_UNUSED_RESULT ATTR_ALWAYS_INLINE;
			static inline bool Endpoint_IsOUTReceived(void)
			{
				return ((UEINTX & (1 << RXOUTI)) ? true : false);
    2dfc:	80 91 e8 00 	lds	r24, 0x00E8	; 0x8000e8 <__TEXT_REGION_LENGTH__+0x7e00e8>
		  return ENDPOINT_RWCSTREAM_HostAborted;
		else if (Endpoint_IsOUTReceived())
    2e00:	82 fd       	sbrc	r24, 2
    2e02:	1e c0       	rjmp	.+60     	; 0x2e40 <Endpoint_Write_Control_EStream_LE+0x84>
			 *  \return Boolean \c true if the current endpoint is ready for an IN packet, \c false otherwise.
			 */
			static inline bool Endpoint_IsINReady(void) ATTR_WARN_UNUSED_RESULT ATTR_ALWAYS_INLINE;
			static inline bool Endpoint_IsINReady(void)
			{
				return ((UEINTX & (1 << TXINI)) ? true : false);
    2e04:	80 91 e8 00 	lds	r24, 0x00E8	; 0x8000e8 <__TEXT_REGION_LENGTH__+0x7e00e8>
		  break;

		if (Endpoint_IsINReady())
    2e08:	80 fd       	sbrc	r24, 0
    2e0a:	32 c0       	rjmp	.+100    	; 0x2e70 <Endpoint_Write_Control_EStream_LE+0xb4>
	if (Length > USB_ControlRequest.wLength)
	  Length = USB_ControlRequest.wLength;
	else if (!(Length))
	  Endpoint_ClearIN();

	while (Length || LastPacketFull)
    2e0c:	20 97       	sbiw	r28, 0x00	; 0
    2e0e:	11 f4       	brne	.+4      	; 0x2e14 <Endpoint_Write_Control_EStream_LE+0x58>
    2e10:	99 23       	and	r25, r25
    2e12:	b1 f0       	breq	.+44     	; 0x2e40 <Endpoint_Write_Control_EStream_LE+0x84>
	{
		uint8_t USB_DeviceState_LCL = USB_DeviceState;
    2e14:	80 91 cf 05 	lds	r24, 0x05CF	; 0x8005cf <USB_DeviceState>

		if (USB_DeviceState_LCL == DEVICE_STATE_Unattached)
    2e18:	81 11       	cpse	r24, r1
    2e1a:	ea cf       	rjmp	.-44     	; 0x2df0 <Endpoint_Write_Control_EStream_LE+0x34>
		  return ENDPOINT_RWCSTREAM_DeviceDisconnected;
    2e1c:	82 e0       	ldi	r24, 0x02	; 2
		else if (Endpoint_IsSETUPReceived())
		  return ENDPOINT_RWCSTREAM_HostAborted;
	}

	return ENDPOINT_RWCSTREAM_NoError;
}
    2e1e:	df 91       	pop	r29
    2e20:	cf 91       	pop	r28
    2e22:	1f 91       	pop	r17
    2e24:	0f 91       	pop	r16
    2e26:	ff 90       	pop	r15
    2e28:	ef 90       	pop	r14
    2e2a:	08 95       	ret
		}
	}

	while (!(Endpoint_IsOUTReceived()))
	{
		uint8_t USB_DeviceState_LCL = USB_DeviceState;
    2e2c:	80 91 cf 05 	lds	r24, 0x05CF	; 0x8005cf <USB_DeviceState>

		if (USB_DeviceState_LCL == DEVICE_STATE_Unattached)
    2e30:	88 23       	and	r24, r24
    2e32:	a1 f3       	breq	.-24     	; 0x2e1c <Endpoint_Write_Control_EStream_LE+0x60>
		  return ENDPOINT_RWCSTREAM_DeviceDisconnected;
		else if (USB_DeviceState_LCL == DEVICE_STATE_Suspended)
    2e34:	85 30       	cpi	r24, 0x05	; 5
    2e36:	61 f0       	breq	.+24     	; 0x2e50 <Endpoint_Write_Control_EStream_LE+0x94>
			 *  \return Boolean \c true if the selected endpoint has received a SETUP packet, \c false otherwise.
			 */
			static inline bool Endpoint_IsSETUPReceived(void) ATTR_WARN_UNUSED_RESULT ATTR_ALWAYS_INLINE;
			static inline bool Endpoint_IsSETUPReceived(void)
			{
				return ((UEINTX & (1 << RXSTPI)) ? true : false);
    2e38:	80 91 e8 00 	lds	r24, 0x00E8	; 0x8000e8 <__TEXT_REGION_LENGTH__+0x7e00e8>
		  return ENDPOINT_RWCSTREAM_BusSuspended;
		else if (Endpoint_IsSETUPReceived())
    2e3c:	83 fd       	sbrc	r24, 3
    2e3e:	10 c0       	rjmp	.+32     	; 0x2e60 <Endpoint_Write_Control_EStream_LE+0xa4>
			 *  \return Boolean \c true if current endpoint is has received an OUT packet, \c false otherwise.
			 */
			static inline bool Endpoint_IsOUTReceived(void) ATTR_WARN_UNUSED_RESULT ATTR_ALWAYS_INLINE;
			static inline bool Endpoint_IsOUTReceived(void)
			{
				return ((UEINTX & (1 << RXOUTI)) ? true : false);
    2e40:	80 91 e8 00 	lds	r24, 0x00E8	; 0x8000e8 <__TEXT_REGION_LENGTH__+0x7e00e8>
			LastPacketFull = (BytesInEndpoint == USB_Device_ControlEndpointSize);
			Endpoint_ClearIN();
		}
	}

	while (!(Endpoint_IsOUTReceived()))
    2e44:	82 ff       	sbrs	r24, 2
    2e46:	f2 cf       	rjmp	.-28     	; 0x2e2c <Endpoint_Write_Control_EStream_LE+0x70>
		  return ENDPOINT_RWCSTREAM_BusSuspended;
		else if (Endpoint_IsSETUPReceived())
		  return ENDPOINT_RWCSTREAM_HostAborted;
	}

	return ENDPOINT_RWCSTREAM_NoError;
    2e48:	80 e0       	ldi	r24, 0x00	; 0
    2e4a:	e9 cf       	rjmp	.-46     	; 0x2e1e <Endpoint_Write_Control_EStream_LE+0x62>
    2e4c:	eb 01       	movw	r28, r22
    2e4e:	cd cf       	rjmp	.-102    	; 0x2dea <Endpoint_Write_Control_EStream_LE+0x2e>
		uint8_t USB_DeviceState_LCL = USB_DeviceState;

		if (USB_DeviceState_LCL == DEVICE_STATE_Unattached)
		  return ENDPOINT_RWCSTREAM_DeviceDisconnected;
		else if (USB_DeviceState_LCL == DEVICE_STATE_Suspended)
		  return ENDPOINT_RWCSTREAM_BusSuspended;
    2e50:	83 e0       	ldi	r24, 0x03	; 3
		else if (Endpoint_IsSETUPReceived())
		  return ENDPOINT_RWCSTREAM_HostAborted;
	}

	return ENDPOINT_RWCSTREAM_NoError;
}
    2e52:	df 91       	pop	r29
    2e54:	cf 91       	pop	r28
    2e56:	1f 91       	pop	r17
    2e58:	0f 91       	pop	r16
    2e5a:	ff 90       	pop	r15
    2e5c:	ef 90       	pop	r14
    2e5e:	08 95       	ret
		if (USB_DeviceState_LCL == DEVICE_STATE_Unattached)
		  return ENDPOINT_RWCSTREAM_DeviceDisconnected;
		else if (USB_DeviceState_LCL == DEVICE_STATE_Suspended)
		  return ENDPOINT_RWCSTREAM_BusSuspended;
		else if (Endpoint_IsSETUPReceived())
		  return ENDPOINT_RWCSTREAM_HostAborted;
    2e60:	81 e0       	ldi	r24, 0x01	; 1
		else if (Endpoint_IsSETUPReceived())
		  return ENDPOINT_RWCSTREAM_HostAborted;
	}

	return ENDPOINT_RWCSTREAM_NoError;
}
    2e62:	df 91       	pop	r29
    2e64:	cf 91       	pop	r28
    2e66:	1f 91       	pop	r17
    2e68:	0f 91       	pop	r16
    2e6a:	ff 90       	pop	r15
    2e6c:	ef 90       	pop	r14
    2e6e:	08 95       	ret
			static inline uint16_t Endpoint_BytesInEndpoint(void)
			{
				#if (defined(USB_SERIES_6_AVR) || defined(USB_SERIES_7_AVR))
					return UEBCX;
				#elif defined(USB_SERIES_4_AVR)
					return (((uint16_t)UEBCHX << 8) | UEBCLX);
    2e70:	80 91 f3 00 	lds	r24, 0x00F3	; 0x8000f3 <__TEXT_REGION_LENGTH__+0x7e00f3>
    2e74:	e0 90 f2 00 	lds	r14, 0x00F2	; 0x8000f2 <__TEXT_REGION_LENGTH__+0x7e00f2>
    2e78:	f1 2c       	mov	r15, r1
    2e7a:	f8 2a       	or	r15, r24

		if (Endpoint_IsINReady())
		{
			uint16_t BytesInEndpoint = Endpoint_BytesInEndpoint();

			while (Length && (BytesInEndpoint < USB_Device_ControlEndpointSize))
    2e7c:	20 97       	sbiw	r28, 0x00	; 0
    2e7e:	21 f0       	breq	.+8      	; 0x2e88 <Endpoint_Write_Control_EStream_LE+0xcc>
    2e80:	88 e0       	ldi	r24, 0x08	; 8
    2e82:	e8 16       	cp	r14, r24
    2e84:	f1 04       	cpc	r15, r1
    2e86:	80 f0       	brcs	.+32     	; 0x2ea8 <Endpoint_Write_Control_EStream_LE+0xec>
				TEMPLATE_BUFFER_MOVE(DataStream, 1);
				Length--;
				BytesInEndpoint++;
			}

			LastPacketFull = (BytesInEndpoint == USB_Device_ControlEndpointSize);
    2e88:	91 e0       	ldi	r25, 0x01	; 1
    2e8a:	88 e0       	ldi	r24, 0x08	; 8
    2e8c:	e8 16       	cp	r14, r24
    2e8e:	f1 04       	cpc	r15, r1
    2e90:	09 f0       	breq	.+2      	; 0x2e94 <Endpoint_Write_Control_EStream_LE+0xd8>
    2e92:	90 e0       	ldi	r25, 0x00	; 0
			 */
			static inline void Endpoint_ClearIN(void) ATTR_ALWAYS_INLINE;
			static inline void Endpoint_ClearIN(void)
			{
				#if !defined(CONTROL_ONLY_DEVICE)
					UEINTX &= ~((1 << TXINI) | (1 << FIFOCON));
    2e94:	80 91 e8 00 	lds	r24, 0x00E8	; 0x8000e8 <__TEXT_REGION_LENGTH__+0x7e00e8>
    2e98:	8e 77       	andi	r24, 0x7E	; 126
    2e9a:	80 93 e8 00 	sts	0x00E8, r24	; 0x8000e8 <__TEXT_REGION_LENGTH__+0x7e00e8>
    2e9e:	b6 cf       	rjmp	.-148    	; 0x2e0c <Endpoint_Write_Control_EStream_LE+0x50>

		if (Endpoint_IsINReady())
		{
			uint16_t BytesInEndpoint = Endpoint_BytesInEndpoint();

			while (Length && (BytesInEndpoint < USB_Device_ControlEndpointSize))
    2ea0:	88 e0       	ldi	r24, 0x08	; 8
    2ea2:	e8 16       	cp	r14, r24
    2ea4:	f1 04       	cpc	r15, r1
    2ea6:	81 f3       	breq	.-32     	; 0x2e88 <Endpoint_Write_Control_EStream_LE+0xcc>
			{
				TEMPLATE_TRANSFER_BYTE(DataStream);
    2ea8:	c8 01       	movw	r24, r16
    2eaa:	21 d3       	rcall	.+1602   	; 0x34ee <eeprom_read_byte>
			 *  \param[in] Data  Data to write into the the currently selected endpoint's FIFO buffer.
			 */
			static inline void Endpoint_Write_8(const uint8_t Data) ATTR_ALWAYS_INLINE;
			static inline void Endpoint_Write_8(const uint8_t Data)
			{
				UEDATX = Data;
    2eac:	80 93 f1 00 	sts	0x00F1, r24	; 0x8000f1 <__TEXT_REGION_LENGTH__+0x7e00f1>
				TEMPLATE_BUFFER_MOVE(DataStream, 1);
    2eb0:	0f 5f       	subi	r16, 0xFF	; 255
    2eb2:	1f 4f       	sbci	r17, 0xFF	; 255
				Length--;
    2eb4:	21 97       	sbiw	r28, 0x01	; 1
				BytesInEndpoint++;
    2eb6:	8f ef       	ldi	r24, 0xFF	; 255
    2eb8:	e8 1a       	sub	r14, r24
    2eba:	f8 0a       	sbc	r15, r24

		if (Endpoint_IsINReady())
		{
			uint16_t BytesInEndpoint = Endpoint_BytesInEndpoint();

			while (Length && (BytesInEndpoint < USB_Device_ControlEndpointSize))
    2ebc:	20 97       	sbiw	r28, 0x00	; 0
    2ebe:	81 f7       	brne	.-32     	; 0x2ea0 <Endpoint_Write_Control_EStream_LE+0xe4>
    2ec0:	e3 cf       	rjmp	.-58     	; 0x2e88 <Endpoint_Write_Control_EStream_LE+0xcc>

00002ec2 <Endpoint_ConfigureEndpoint_Prv>:
		UEIENX  = 0;
		UEINTX  = 0;
		UECFG1X = 0;
		Endpoint_DisableEndpoint();
	}
}
    2ec2:	8f 70       	andi	r24, 0x0F	; 15
    2ec4:	80 93 e9 00 	sts	0x00E9, r24	; 0x8000e9 <__TEXT_REGION_LENGTH__+0x7e00e9>
    2ec8:	eb ee       	ldi	r30, 0xEB	; 235
    2eca:	f0 e0       	ldi	r31, 0x00	; 0
    2ecc:	80 81       	ld	r24, Z
    2ece:	81 60       	ori	r24, 0x01	; 1
    2ed0:	80 83       	st	Z, r24
    2ed2:	ed ee       	ldi	r30, 0xED	; 237
    2ed4:	f0 e0       	ldi	r31, 0x00	; 0
    2ed6:	10 82       	st	Z, r1
    2ed8:	60 93 ec 00 	sts	0x00EC, r22	; 0x8000ec <__TEXT_REGION_LENGTH__+0x7e00ec>
    2edc:	40 83       	st	Z, r20
    2ede:	80 91 ee 00 	lds	r24, 0x00EE	; 0x8000ee <__TEXT_REGION_LENGTH__+0x7e00ee>
    2ee2:	88 1f       	adc	r24, r24
    2ee4:	88 27       	eor	r24, r24
    2ee6:	88 1f       	adc	r24, r24
    2ee8:	08 95       	ret

00002eea <Endpoint_ClearStatusStage>:

void Endpoint_ClearStatusStage(void)
{
	if (USB_ControlRequest.bmRequestType & REQDIR_DEVICETOHOST)
    2eea:	80 91 d0 05 	lds	r24, 0x05D0	; 0x8005d0 <USB_ControlRequest>
    2eee:	87 ff       	sbrs	r24, 7
    2ef0:	05 c0       	rjmp	.+10     	; 0x2efc <Endpoint_ClearStatusStage+0x12>
    2ef2:	12 c0       	rjmp	.+36     	; 0x2f18 <Endpoint_ClearStatusStage+0x2e>
	}
	else
	{
		while (!(Endpoint_IsINReady()))
		{
			if (USB_DeviceState == DEVICE_STATE_Unattached)
    2ef4:	80 91 cf 05 	lds	r24, 0x05CF	; 0x8005cf <USB_DeviceState>
    2ef8:	88 23       	and	r24, r24
    2efa:	49 f0       	breq	.+18     	; 0x2f0e <Endpoint_ClearStatusStage+0x24>
			 *  \return Boolean \c true if the current endpoint is ready for an IN packet, \c false otherwise.
			 */
			static inline bool Endpoint_IsINReady(void) ATTR_WARN_UNUSED_RESULT ATTR_ALWAYS_INLINE;
			static inline bool Endpoint_IsINReady(void)
			{
				return ((UEINTX & (1 << TXINI)) ? true : false);
    2efc:	80 91 e8 00 	lds	r24, 0x00E8	; 0x8000e8 <__TEXT_REGION_LENGTH__+0x7e00e8>

		Endpoint_ClearOUT();
	}
	else
	{
		while (!(Endpoint_IsINReady()))
    2f00:	80 ff       	sbrs	r24, 0
    2f02:	f8 cf       	rjmp	.-16     	; 0x2ef4 <Endpoint_ClearStatusStage+0xa>
			 */
			static inline void Endpoint_ClearIN(void) ATTR_ALWAYS_INLINE;
			static inline void Endpoint_ClearIN(void)
			{
				#if !defined(CONTROL_ONLY_DEVICE)
					UEINTX &= ~((1 << TXINI) | (1 << FIFOCON));
    2f04:	80 91 e8 00 	lds	r24, 0x00E8	; 0x8000e8 <__TEXT_REGION_LENGTH__+0x7e00e8>
    2f08:	8e 77       	andi	r24, 0x7E	; 126
    2f0a:	80 93 e8 00 	sts	0x00E8, r24	; 0x8000e8 <__TEXT_REGION_LENGTH__+0x7e00e8>
    2f0e:	08 95       	ret
{
	if (USB_ControlRequest.bmRequestType & REQDIR_DEVICETOHOST)
	{
		while (!(Endpoint_IsOUTReceived()))
		{
			if (USB_DeviceState == DEVICE_STATE_Unattached)
    2f10:	80 91 cf 05 	lds	r24, 0x05CF	; 0x8005cf <USB_DeviceState>
    2f14:	88 23       	and	r24, r24
    2f16:	d9 f3       	breq	.-10     	; 0x2f0e <Endpoint_ClearStatusStage+0x24>
			 *  \return Boolean \c true if current endpoint is has received an OUT packet, \c false otherwise.
			 */
			static inline bool Endpoint_IsOUTReceived(void) ATTR_WARN_UNUSED_RESULT ATTR_ALWAYS_INLINE;
			static inline bool Endpoint_IsOUTReceived(void)
			{
				return ((UEINTX & (1 << RXOUTI)) ? true : false);
    2f18:	80 91 e8 00 	lds	r24, 0x00E8	; 0x8000e8 <__TEXT_REGION_LENGTH__+0x7e00e8>

void Endpoint_ClearStatusStage(void)
{
	if (USB_ControlRequest.bmRequestType & REQDIR_DEVICETOHOST)
	{
		while (!(Endpoint_IsOUTReceived()))
    2f1c:	82 ff       	sbrs	r24, 2
    2f1e:	f8 cf       	rjmp	.-16     	; 0x2f10 <Endpoint_ClearStatusStage+0x26>
			 */
			static inline void Endpoint_ClearOUT(void) ATTR_ALWAYS_INLINE;
			static inline void Endpoint_ClearOUT(void)
			{
				#if !defined(CONTROL_ONLY_DEVICE)
					UEINTX &= ~((1 << RXOUTI) | (1 << FIFOCON));
    2f20:	80 91 e8 00 	lds	r24, 0x00E8	; 0x8000e8 <__TEXT_REGION_LENGTH__+0x7e00e8>
    2f24:	8b 77       	andi	r24, 0x7B	; 123
    2f26:	80 93 e8 00 	sts	0x00E8, r24	; 0x8000e8 <__TEXT_REGION_LENGTH__+0x7e00e8>
    2f2a:	08 95       	ret

00002f2c <Endpoint_WaitUntilReady>:
			 *  \return Current USB frame number from the USB controller.
			 */
			static inline uint16_t USB_Device_GetFrameNumber(void) ATTR_ALWAYS_INLINE ATTR_WARN_UNUSED_RESULT;
			static inline uint16_t USB_Device_GetFrameNumber(void)
			{
				return UDFNUM;
    2f2c:	40 91 e4 00 	lds	r20, 0x00E4	; 0x8000e4 <__TEXT_REGION_LENGTH__+0x7e00e4>
    2f30:	50 91 e5 00 	lds	r21, 0x00E5	; 0x8000e5 <__TEXT_REGION_LENGTH__+0x7e00e5>
    2f34:	25 e6       	ldi	r18, 0x65	; 101
			 *  \return The currently selected endpoint's direction, as a \c ENDPOINT_DIR_* mask.
			 */
			static inline uint8_t Endpoint_GetEndpointDirection(void) ATTR_WARN_UNUSED_RESULT ATTR_ALWAYS_INLINE;
			static inline uint8_t Endpoint_GetEndpointDirection(void)
			{
				return (UECFG0X & (1 << EPDIR)) ? ENDPOINT_DIR_IN : ENDPOINT_DIR_OUT;
    2f36:	90 91 ec 00 	lds	r25, 0x00EC	; 0x8000ec <__TEXT_REGION_LENGTH__+0x7e00ec>
    2f3a:	89 2f       	mov	r24, r25
    2f3c:	81 70       	andi	r24, 0x01	; 1
    2f3e:	90 ff       	sbrs	r25, 0
    2f40:	1e c0       	rjmp	.+60     	; 0x2f7e <Endpoint_WaitUntilReady+0x52>
			 *  \return Boolean \c true if the current endpoint is ready for an IN packet, \c false otherwise.
			 */
			static inline bool Endpoint_IsINReady(void) ATTR_WARN_UNUSED_RESULT ATTR_ALWAYS_INLINE;
			static inline bool Endpoint_IsINReady(void)
			{
				return ((UEINTX & (1 << TXINI)) ? true : false);
    2f42:	80 91 e8 00 	lds	r24, 0x00E8	; 0x8000e8 <__TEXT_REGION_LENGTH__+0x7e00e8>

	for (;;)
	{
		if (Endpoint_GetEndpointDirection() == ENDPOINT_DIR_IN)
		{
			if (Endpoint_IsINReady())
    2f46:	80 fd       	sbrc	r24, 0
    2f48:	27 c0       	rjmp	.+78     	; 0x2f98 <Endpoint_WaitUntilReady+0x6c>
		{
			if (Endpoint_IsOUTReceived())
			  return ENDPOINT_READYWAIT_NoError;
		}

		uint8_t USB_DeviceState_LCL = USB_DeviceState;
    2f4a:	80 91 cf 05 	lds	r24, 0x05CF	; 0x8005cf <USB_DeviceState>

		if (USB_DeviceState_LCL == DEVICE_STATE_Unattached)
    2f4e:	88 23       	and	r24, r24
    2f50:	d9 f0       	breq	.+54     	; 0x2f88 <Endpoint_WaitUntilReady+0x5c>
		  return ENDPOINT_READYWAIT_DeviceDisconnected;
		else if (USB_DeviceState_LCL == DEVICE_STATE_Suspended)
    2f52:	85 30       	cpi	r24, 0x05	; 5
    2f54:	d9 f0       	breq	.+54     	; 0x2f8c <Endpoint_WaitUntilReady+0x60>
			 *  \return Boolean \c true if the currently selected endpoint is stalled, \c false otherwise.
			 */
			static inline bool Endpoint_IsStalled(void) ATTR_WARN_UNUSED_RESULT ATTR_ALWAYS_INLINE;
			static inline bool Endpoint_IsStalled(void)
			{
				return ((UECONX & (1 << STALLRQ)) ? true : false);
    2f56:	80 91 eb 00 	lds	r24, 0x00EB	; 0x8000eb <__TEXT_REGION_LENGTH__+0x7e00eb>
		  return ENDPOINT_READYWAIT_BusSuspended;
		else if (Endpoint_IsStalled())
    2f5a:	85 fd       	sbrc	r24, 5
    2f5c:	19 c0       	rjmp	.+50     	; 0x2f90 <Endpoint_WaitUntilReady+0x64>
    2f5e:	80 91 e4 00 	lds	r24, 0x00E4	; 0x8000e4 <__TEXT_REGION_LENGTH__+0x7e00e4>
    2f62:	90 91 e5 00 	lds	r25, 0x00E5	; 0x8000e5 <__TEXT_REGION_LENGTH__+0x7e00e5>
		  return ENDPOINT_READYWAIT_EndpointStalled;

		uint16_t CurrentFrameNumber = USB_Device_GetFrameNumber();

		if (CurrentFrameNumber != PreviousFrameNumber)
    2f66:	48 17       	cp	r20, r24
    2f68:	59 07       	cpc	r21, r25
    2f6a:	29 f3       	breq	.-54     	; 0x2f36 <Endpoint_WaitUntilReady+0xa>
    2f6c:	21 50       	subi	r18, 0x01	; 1
		{
			PreviousFrameNumber = CurrentFrameNumber;

			if (!(TimeoutMSRem--))
    2f6e:	91 f0       	breq	.+36     	; 0x2f94 <Endpoint_WaitUntilReady+0x68>
    2f70:	ac 01       	movw	r20, r24
			 *  \return The currently selected endpoint's direction, as a \c ENDPOINT_DIR_* mask.
			 */
			static inline uint8_t Endpoint_GetEndpointDirection(void) ATTR_WARN_UNUSED_RESULT ATTR_ALWAYS_INLINE;
			static inline uint8_t Endpoint_GetEndpointDirection(void)
			{
				return (UECFG0X & (1 << EPDIR)) ? ENDPOINT_DIR_IN : ENDPOINT_DIR_OUT;
    2f72:	90 91 ec 00 	lds	r25, 0x00EC	; 0x8000ec <__TEXT_REGION_LENGTH__+0x7e00ec>
    2f76:	89 2f       	mov	r24, r25
    2f78:	81 70       	andi	r24, 0x01	; 1
    2f7a:	90 fd       	sbrc	r25, 0
    2f7c:	e2 cf       	rjmp	.-60     	; 0x2f42 <Endpoint_WaitUntilReady+0x16>
			 *  \return Boolean \c true if current endpoint is has received an OUT packet, \c false otherwise.
			 */
			static inline bool Endpoint_IsOUTReceived(void) ATTR_WARN_UNUSED_RESULT ATTR_ALWAYS_INLINE;
			static inline bool Endpoint_IsOUTReceived(void)
			{
				return ((UEINTX & (1 << RXOUTI)) ? true : false);
    2f7e:	90 91 e8 00 	lds	r25, 0x00E8	; 0x8000e8 <__TEXT_REGION_LENGTH__+0x7e00e8>
			if (Endpoint_IsINReady())
			  return ENDPOINT_READYWAIT_NoError;
		}
		else
		{
			if (Endpoint_IsOUTReceived())
    2f82:	92 ff       	sbrs	r25, 2
    2f84:	e2 cf       	rjmp	.-60     	; 0x2f4a <Endpoint_WaitUntilReady+0x1e>

			if (!(TimeoutMSRem--))
			  return ENDPOINT_READYWAIT_Timeout;
		}
	}
}
    2f86:	08 95       	ret
		}

		uint8_t USB_DeviceState_LCL = USB_DeviceState;

		if (USB_DeviceState_LCL == DEVICE_STATE_Unattached)
		  return ENDPOINT_READYWAIT_DeviceDisconnected;
    2f88:	82 e0       	ldi	r24, 0x02	; 2
    2f8a:	08 95       	ret
		else if (USB_DeviceState_LCL == DEVICE_STATE_Suspended)
		  return ENDPOINT_READYWAIT_BusSuspended;
    2f8c:	83 e0       	ldi	r24, 0x03	; 3
    2f8e:	08 95       	ret
		else if (Endpoint_IsStalled())
		  return ENDPOINT_READYWAIT_EndpointStalled;
    2f90:	81 e0       	ldi	r24, 0x01	; 1
    2f92:	08 95       	ret
		if (CurrentFrameNumber != PreviousFrameNumber)
		{
			PreviousFrameNumber = CurrentFrameNumber;

			if (!(TimeoutMSRem--))
			  return ENDPOINT_READYWAIT_Timeout;
    2f94:	84 e0       	ldi	r24, 0x04	; 4
    2f96:	08 95       	ret
	for (;;)
	{
		if (Endpoint_GetEndpointDirection() == ENDPOINT_DIR_IN)
		{
			if (Endpoint_IsINReady())
			  return ENDPOINT_READYWAIT_NoError;
    2f98:	80 e0       	ldi	r24, 0x00	; 0
    2f9a:	08 95       	ret

00002f9c <USB_Disable>:
	USB_ResetInterface();
}

void USB_Disable(void)
{
	USB_INT_DisableAllInterrupts();
    2f9c:	67 d0       	rcall	.+206    	; 0x306c <USB_INT_DisableAllInterrupts>
	USB_INT_ClearAllInterrupts();
    2f9e:	6e d0       	rcall	.+220    	; 0x307c <USB_INT_ClearAllInterrupts>
    2fa0:	e0 ee       	ldi	r30, 0xE0	; 224
			 *  enumerating the device once attached until \ref USB_Attach() is called.
			 */
			static inline void USB_Detach(void) ATTR_ALWAYS_INLINE;
			static inline void USB_Detach(void)
			{
				UDCON  |=  (1 << DETACH);
    2fa2:	f0 e0       	ldi	r31, 0x00	; 0
    2fa4:	80 81       	ld	r24, Z
    2fa6:	81 60       	ori	r24, 0x01	; 1
    2fa8:	80 83       	st	Z, r24
    2faa:	e8 ed       	ldi	r30, 0xD8	; 216
			}

			static inline void USB_Controller_Disable(void) ATTR_ALWAYS_INLINE;
			static inline void USB_Controller_Disable(void)
			{
				USBCON &= ~(1 << USBE);
    2fac:	f0 e0       	ldi	r31, 0x00	; 0
    2fae:	80 81       	ld	r24, Z
    2fb0:	8f 77       	andi	r24, 0x7F	; 127
    2fb2:	80 83       	st	Z, r24
    2fb4:	19 bc       	out	0x29, r1	; 41
			}

			static inline void USB_PLL_Off(void) ATTR_ALWAYS_INLINE;
			static inline void USB_PLL_Off(void)
			{
				PLLCSR = 0;
    2fb6:	a7 ed       	ldi	r26, 0xD7	; 215

			static inline void USB_REG_Off(void) ATTR_ALWAYS_INLINE;
			static inline void USB_REG_Off(void)
			{
			#if defined(USB_SERIES_4_AVR) || defined(USB_SERIES_6_AVR) || defined(USB_SERIES_7_AVR)
				UHWCON &= ~(1 << UVREGE);
    2fb8:	b0 e0       	ldi	r27, 0x00	; 0
    2fba:	8c 91       	ld	r24, X
    2fbc:	8e 7f       	andi	r24, 0xFE	; 254
    2fbe:	8c 93       	st	X, r24
    2fc0:	80 81       	ld	r24, Z
			}

			static inline void USB_OTGPAD_Off(void) ATTR_ALWAYS_INLINE;
			static inline void USB_OTGPAD_Off(void)
			{
				USBCON &= ~(1 << OTGPADE);
    2fc2:	8f 7e       	andi	r24, 0xEF	; 239
    2fc4:	80 83       	st	Z, r24
    2fc6:	10 92 ce 05 	sts	0x05CE, r1	; 0x8005ce <USB_IsInitialized>

	#if defined(USB_CAN_BE_BOTH)
	USB_CurrentMode = USB_MODE_None;
	#endif

	USB_IsInitialized = false;
    2fca:	08 95       	ret

00002fcc <USB_ResetInterface>:
    2fcc:	0f 93       	push	r16
}

void USB_ResetInterface(void)
{
    2fce:	1f 93       	push	r17
    2fd0:	cf 93       	push	r28
    2fd2:	df 93       	push	r29
	#if defined(USB_CAN_BE_BOTH)
	bool UIDModeSelectEnabled = ((UHWCON & (1 << UIDE)) != 0);
	#endif

	USB_INT_DisableAllInterrupts();
    2fd4:	4b d0       	rcall	.+150    	; 0x306c <USB_INT_DisableAllInterrupts>
	USB_INT_ClearAllInterrupts();
    2fd6:	52 d0       	rcall	.+164    	; 0x307c <USB_INT_ClearAllInterrupts>
    2fd8:	c8 ed       	ldi	r28, 0xD8	; 216
			}

			static inline void USB_Controller_Reset(void) ATTR_ALWAYS_INLINE;
			static inline void USB_Controller_Reset(void)
			{
				USBCON &= ~(1 << USBE);
    2fda:	d0 e0       	ldi	r29, 0x00	; 0
    2fdc:	88 81       	ld	r24, Y
    2fde:	8f 77       	andi	r24, 0x7F	; 127
    2fe0:	88 83       	st	Y, r24
    2fe2:	88 81       	ld	r24, Y
				USBCON |=  (1 << USBE);
    2fe4:	80 68       	ori	r24, 0x80	; 128
    2fe6:	88 83       	st	Y, r24
    2fe8:	88 81       	ld	r24, Y
			}

			static inline void USB_CLK_Unfreeze(void) ATTR_ALWAYS_INLINE;
			static inline void USB_CLK_Unfreeze(void)
			{
				USBCON &= ~(1 << FRZCLK);
    2fea:	8f 7d       	andi	r24, 0xDF	; 223
    2fec:	88 83       	st	Y, r24
    2fee:	19 bc       	out	0x29, r1	; 41
			}

			static inline void USB_PLL_Off(void) ATTR_ALWAYS_INLINE;
			static inline void USB_PLL_Off(void)
			{
				PLLCSR = 0;
    2ff0:	10 92 cf 05 	sts	0x05CF, r1	; 0x8005cf <USB_DeviceState>
}

#if defined(USB_CAN_BE_DEVICE)
static void USB_Init_Device(void)
{
	USB_DeviceState                 = DEVICE_STATE_Unattached;
    2ff4:	10 92 cb 05 	sts	0x05CB, r1	; 0x8005cb <USB_Device_ConfigurationNumber>
	USB_Device_ConfigurationNumber  = 0;
    2ff8:	10 92 cd 05 	sts	0x05CD, r1	; 0x8005cd <USB_Device_RemoteWakeupEnabled>

	#if !defined(NO_DEVICE_REMOTE_WAKEUP)
	USB_Device_RemoteWakeupEnabled  = false;
    2ffc:	10 92 cc 05 	sts	0x05CC, r1	; 0x8005cc <USB_Device_CurrentlySelfPowered>
	#endif

	#if !defined(NO_DEVICE_SELF_POWER)
	USB_Device_CurrentlySelfPowered = false;
    3000:	00 ee       	ldi	r16, 0xE0	; 224
			}

			static inline void USB_Device_SetFullSpeed(void) ATTR_ALWAYS_INLINE;
			static inline void USB_Device_SetFullSpeed(void)
			{
				UDCON &= ~(1 << LSM);
    3002:	10 e0       	ldi	r17, 0x00	; 0
    3004:	f8 01       	movw	r30, r16
    3006:	80 81       	ld	r24, Z
    3008:	8b 7f       	andi	r24, 0xFB	; 251
    300a:	80 83       	st	Z, r24
    300c:	88 81       	ld	r24, Y
			{
				switch (Interrupt)
				{
					#if (defined(USB_SERIES_4_AVR) || defined(USB_SERIES_6_AVR) || defined(USB_SERIES_7_AVR))
					case USB_INT_VBUSTI:
						USBCON |= (1 << VBUSTE);
    300e:	81 60       	ori	r24, 0x01	; 1
    3010:	88 83       	st	Y, r24
    3012:	42 e0       	ldi	r20, 0x02	; 2
				uint8_t Number = (Address & ENDPOINT_EPNUM_MASK);

				if (Number >= ENDPOINT_TOTAL_ENDPOINTS)
				  return false;

				return Endpoint_ConfigureEndpoint_Prv(Number,
    3014:	60 e0       	ldi	r22, 0x00	; 0
    3016:	80 e0       	ldi	r24, 0x00	; 0
    3018:	54 df       	rcall	.-344    	; 0x2ec2 <Endpoint_ConfigureEndpoint_Prv>
    301a:	e1 ee       	ldi	r30, 0xE1	; 225
					#if defined(USB_CAN_BE_DEVICE)
					case USB_INT_WAKEUPI:
						UDINT  &= ~(1 << WAKEUPI);
						break;
					case USB_INT_SUSPI:
						UDINT  &= ~(1 << SUSPI);
    301c:	f0 e0       	ldi	r31, 0x00	; 0
    301e:	80 81       	ld	r24, Z
    3020:	8e 7f       	andi	r24, 0xFE	; 254
    3022:	80 83       	st	Z, r24
    3024:	e2 ee       	ldi	r30, 0xE2	; 226
					#if defined(USB_CAN_BE_DEVICE)
					case USB_INT_WAKEUPI:
						UDIEN  |= (1 << WAKEUPE);
						break;
					case USB_INT_SUSPI:
						UDIEN  |= (1 << SUSPE);
    3026:	f0 e0       	ldi	r31, 0x00	; 0
    3028:	80 81       	ld	r24, Z
    302a:	81 60       	ori	r24, 0x01	; 1
    302c:	80 83       	st	Z, r24
    302e:	80 81       	ld	r24, Z
						break;
					case USB_INT_EORSTI:
						UDIEN  |= (1 << EORSTE);
    3030:	88 60       	ori	r24, 0x08	; 8
    3032:	80 83       	st	Z, r24
    3034:	f8 01       	movw	r30, r16
			 *  register and despite the datasheet making no mention of its requirement in host mode.
			 */
			static inline void USB_Attach(void) ATTR_ALWAYS_INLINE;
			static inline void USB_Attach(void)
			{
				UDCON  &= ~(1 << DETACH);
    3036:	80 81       	ld	r24, Z
    3038:	8e 7f       	andi	r24, 0xFE	; 254
    303a:	80 83       	st	Z, r24
    303c:	88 81       	ld	r24, Y

			#if defined(USB_SERIES_4_AVR) || defined(USB_SERIES_6_AVR) || defined(USB_SERIES_7_AVR)
			static inline void USB_OTGPAD_On(void) ATTR_ALWAYS_INLINE;
			static inline void USB_OTGPAD_On(void)
			{
				USBCON |=  (1 << OTGPADE);
    303e:	80 61       	ori	r24, 0x10	; 16
    3040:	88 83       	st	Y, r24
    3042:	df 91       	pop	r29
	}

	#if (defined(USB_SERIES_4_AVR) || defined(USB_SERIES_6_AVR) || defined(USB_SERIES_7_AVR))
	USB_OTGPAD_On();
	#endif
}
    3044:	cf 91       	pop	r28
    3046:	1f 91       	pop	r17
    3048:	0f 91       	pop	r16
    304a:	08 95       	ret

0000304c <USB_Init>:
    304c:	e8 ed       	ldi	r30, 0xD8	; 216
			}

			static inline void USB_OTGPAD_Off(void) ATTR_ALWAYS_INLINE;
			static inline void USB_OTGPAD_Off(void)
			{
				USBCON &= ~(1 << OTGPADE);
    304e:	f0 e0       	ldi	r31, 0x00	; 0
    3050:	80 81       	ld	r24, Z
    3052:	8f 7e       	andi	r24, 0xEF	; 239
    3054:	80 83       	st	Z, r24

			static inline void USB_REG_On(void) ATTR_ALWAYS_INLINE;
			static inline void USB_REG_On(void)
			{
			#if defined(USB_SERIES_4_AVR) || defined(USB_SERIES_6_AVR) || defined(USB_SERIES_7_AVR)
				UHWCON |=  (1 << UVREGE);
    3056:	e7 ed       	ldi	r30, 0xD7	; 215
    3058:	f0 e0       	ldi	r31, 0x00	; 0
    305a:	80 81       	ld	r24, Z
    305c:	81 60       	ori	r24, 0x01	; 1
    305e:	80 83       	st	Z, r24
	  USB_REG_Off();

	if (!(USB_Options & USB_OPT_MANUAL_PLL))
	{
		#if defined(USB_SERIES_4_AVR)
		PLLFRQ = (1 << PDIV2);
    3060:	84 e0       	ldi	r24, 0x04	; 4
    3062:	82 bf       	out	0x32, r24	; 50
		UHWCON &= ~(1 << UIDE);
		USB_CurrentMode = Mode;
	}
	#endif

	USB_IsInitialized = true;
    3064:	81 e0       	ldi	r24, 0x01	; 1
    3066:	80 93 ce 05 	sts	0x05CE, r24	; 0x8005ce <USB_IsInitialized>

	USB_ResetInterface();
    306a:	b0 cf       	rjmp	.-160    	; 0x2fcc <USB_ResetInterface>

0000306c <USB_INT_DisableAllInterrupts>:
void USB_INT_DisableAllInterrupts(void)
{
	#if defined(USB_SERIES_6_AVR) || defined(USB_SERIES_7_AVR)
	USBCON &= ~((1 << VBUSTE) | (1 << IDTE));
	#elif defined(USB_SERIES_4_AVR)
	USBCON &= ~(1 << VBUSTE);
    306c:	e8 ed       	ldi	r30, 0xD8	; 216
    306e:	f0 e0       	ldi	r31, 0x00	; 0
    3070:	80 81       	ld	r24, Z
    3072:	8e 7f       	andi	r24, 0xFE	; 254
    3074:	80 83       	st	Z, r24
	#if defined(USB_CAN_BE_HOST)
	UHIEN   = 0;
	#endif

	#if defined(USB_CAN_BE_DEVICE)
	UDIEN   = 0;
    3076:	10 92 e2 00 	sts	0x00E2, r1	; 0x8000e2 <__TEXT_REGION_LENGTH__+0x7e00e2>
    307a:	08 95       	ret

0000307c <USB_INT_ClearAllInterrupts>:
}

void USB_INT_ClearAllInterrupts(void)
{
	#if defined(USB_SERIES_4_AVR) || defined(USB_SERIES_6_AVR) || defined(USB_SERIES_7_AVR)
	USBINT = 0;
    307c:	10 92 da 00 	sts	0x00DA, r1	; 0x8000da <__TEXT_REGION_LENGTH__+0x7e00da>
	#if defined(USB_CAN_BE_HOST)
	UHINT  = 0;
	#endif

	#if defined(USB_CAN_BE_DEVICE)
	UDINT  = 0;
    3080:	10 92 e1 00 	sts	0x00E1, r1	; 0x8000e1 <__TEXT_REGION_LENGTH__+0x7e00e1>
    3084:	08 95       	ret

00003086 <__vector_10>:
	#endif
}

ISR(USB_GEN_vect, ISR_BLOCK)
{
    3086:	1f 92       	push	r1
    3088:	0f 92       	push	r0
    308a:	0f b6       	in	r0, 0x3f	; 63
    308c:	0f 92       	push	r0
    308e:	11 24       	eor	r1, r1
    3090:	2f 93       	push	r18
    3092:	3f 93       	push	r19
    3094:	4f 93       	push	r20
    3096:	5f 93       	push	r21
    3098:	6f 93       	push	r22
    309a:	7f 93       	push	r23
    309c:	8f 93       	push	r24
    309e:	9f 93       	push	r25
    30a0:	af 93       	push	r26
    30a2:	bf 93       	push	r27
    30a4:	ef 93       	push	r30
    30a6:	ff 93       	push	r31
			{
				switch (Interrupt)
				{
					#if (defined(USB_SERIES_4_AVR) || defined(USB_SERIES_6_AVR) || defined(USB_SERIES_7_AVR))
					case USB_INT_VBUSTI:
						return (USBINT & (1 << VBUSTI));
    30a8:	80 91 da 00 	lds	r24, 0x00DA	; 0x8000da <__TEXT_REGION_LENGTH__+0x7e00da>
		EVENT_USB_Device_StartOfFrame();
	}
	#endif

	#if defined(USB_SERIES_4_AVR) || defined(USB_SERIES_6_AVR) || defined(USB_SERIES_7_AVR)
	if (USB_INT_HasOccurred(USB_INT_VBUSTI) && USB_INT_IsEnabled(USB_INT_VBUSTI))
    30ac:	80 ff       	sbrs	r24, 0
    30ae:	04 c0       	rjmp	.+8      	; 0x30b8 <__vector_10+0x32>
			{
				switch (Interrupt)
				{
					#if (defined(USB_SERIES_4_AVR) || defined(USB_SERIES_6_AVR) || defined(USB_SERIES_7_AVR))
					case USB_INT_VBUSTI:
						return (USBCON & (1 << VBUSTE));
    30b0:	80 91 d8 00 	lds	r24, 0x00D8	; 0x8000d8 <__TEXT_REGION_LENGTH__+0x7e00d8>
    30b4:	80 fd       	sbrc	r24, 0
    30b6:	50 c0       	rjmp	.+160    	; 0x3158 <__vector_10+0xd2>
					#endif
					#if defined(USB_CAN_BE_DEVICE)
					case USB_INT_WAKEUPI:
						return (UDINT  & (1 << WAKEUPI));
					case USB_INT_SUSPI:
						return (UDINT  & (1 << SUSPI));
    30b8:	80 91 e1 00 	lds	r24, 0x00E1	; 0x8000e1 <__TEXT_REGION_LENGTH__+0x7e00e1>
			EVENT_USB_Device_Disconnect();
		}
	}
	#endif

	if (USB_INT_HasOccurred(USB_INT_SUSPI) && USB_INT_IsEnabled(USB_INT_SUSPI))
    30bc:	80 ff       	sbrs	r24, 0
    30be:	04 c0       	rjmp	.+8      	; 0x30c8 <__vector_10+0x42>
					#endif
					#if defined(USB_CAN_BE_DEVICE)
					case USB_INT_WAKEUPI:
						return (UDIEN  & (1 << WAKEUPE));
					case USB_INT_SUSPI:
						return (UDIEN  & (1 << SUSPE));
    30c0:	80 91 e2 00 	lds	r24, 0x00E2	; 0x8000e2 <__TEXT_REGION_LENGTH__+0x7e00e2>
    30c4:	80 fd       	sbrc	r24, 0
    30c6:	7d c0       	rjmp	.+250    	; 0x31c2 <__vector_10+0x13c>
					case USB_INT_IDTI:
						return (USBINT & (1 << IDTI));
					#endif
					#if defined(USB_CAN_BE_DEVICE)
					case USB_INT_WAKEUPI:
						return (UDINT  & (1 << WAKEUPI));
    30c8:	80 91 e1 00 	lds	r24, 0x00E1	; 0x8000e1 <__TEXT_REGION_LENGTH__+0x7e00e1>
		USB_DeviceState = DEVICE_STATE_Suspended;
		EVENT_USB_Device_Suspend();
		#endif
	}

	if (USB_INT_HasOccurred(USB_INT_WAKEUPI) && USB_INT_IsEnabled(USB_INT_WAKEUPI))
    30cc:	84 ff       	sbrs	r24, 4
    30ce:	2b c0       	rjmp	.+86     	; 0x3126 <__vector_10+0xa0>
					case USB_INT_IDTI:
						return (USBCON & (1 << IDTE));
					#endif
					#if defined(USB_CAN_BE_DEVICE)
					case USB_INT_WAKEUPI:
						return (UDIEN  & (1 << WAKEUPE));
    30d0:	80 91 e2 00 	lds	r24, 0x00E2	; 0x8000e2 <__TEXT_REGION_LENGTH__+0x7e00e2>
    30d4:	84 ff       	sbrs	r24, 4
    30d6:	27 c0       	rjmp	.+78     	; 0x3126 <__vector_10+0xa0>

		/* Inline Functions: */
			static inline void USB_PLL_On(void) ATTR_ALWAYS_INLINE;
			static inline void USB_PLL_On(void)
			{
				PLLCSR = USB_PLL_PSC;
    30d8:	80 e1       	ldi	r24, 0x10	; 16
    30da:	89 bd       	out	0x29, r24	; 41
				PLLCSR = (USB_PLL_PSC | (1 << PLLE));
    30dc:	82 e1       	ldi	r24, 0x12	; 18
    30de:	89 bd       	out	0x29, r24	; 41
	{
		if (!(USB_Options & USB_OPT_MANUAL_PLL))
		{
			USB_PLL_On();
			while (!(USB_PLL_IsReady()));
    30e0:	09 b4       	in	r0, 0x29	; 41
    30e2:	00 fe       	sbrs	r0, 0
    30e4:	fd cf       	rjmp	.-6      	; 0x30e0 <__vector_10+0x5a>
			}

			static inline void USB_CLK_Unfreeze(void) ATTR_ALWAYS_INLINE;
			static inline void USB_CLK_Unfreeze(void)
			{
				USBCON &= ~(1 << FRZCLK);
    30e6:	80 91 d8 00 	lds	r24, 0x00D8	; 0x8000d8 <__TEXT_REGION_LENGTH__+0x7e00d8>
    30ea:	8f 7d       	andi	r24, 0xDF	; 223
    30ec:	80 93 d8 00 	sts	0x00D8, r24	; 0x8000d8 <__TEXT_REGION_LENGTH__+0x7e00d8>
						USBINT &= ~(1 << IDTI);
						break;
					#endif
					#if defined(USB_CAN_BE_DEVICE)
					case USB_INT_WAKEUPI:
						UDINT  &= ~(1 << WAKEUPI);
    30f0:	80 91 e1 00 	lds	r24, 0x00E1	; 0x8000e1 <__TEXT_REGION_LENGTH__+0x7e00e1>
    30f4:	8f 7e       	andi	r24, 0xEF	; 239
    30f6:	80 93 e1 00 	sts	0x00E1, r24	; 0x8000e1 <__TEXT_REGION_LENGTH__+0x7e00e1>
						USBCON &= ~(1 << IDTE);
						break;
					#endif
					#if defined(USB_CAN_BE_DEVICE)
					case USB_INT_WAKEUPI:
						UDIEN  &= ~(1 << WAKEUPE);
    30fa:	80 91 e2 00 	lds	r24, 0x00E2	; 0x8000e2 <__TEXT_REGION_LENGTH__+0x7e00e2>
    30fe:	8f 7e       	andi	r24, 0xEF	; 239
    3100:	80 93 e2 00 	sts	0x00E2, r24	; 0x8000e2 <__TEXT_REGION_LENGTH__+0x7e00e2>
					#if defined(USB_CAN_BE_DEVICE)
					case USB_INT_WAKEUPI:
						UDIEN  |= (1 << WAKEUPE);
						break;
					case USB_INT_SUSPI:
						UDIEN  |= (1 << SUSPE);
    3104:	80 91 e2 00 	lds	r24, 0x00E2	; 0x8000e2 <__TEXT_REGION_LENGTH__+0x7e00e2>
    3108:	81 60       	ori	r24, 0x01	; 1
    310a:	80 93 e2 00 	sts	0x00E2, r24	; 0x8000e2 <__TEXT_REGION_LENGTH__+0x7e00e2>
		USB_INT_Clear(USB_INT_WAKEUPI);

		USB_INT_Disable(USB_INT_WAKEUPI);
		USB_INT_Enable(USB_INT_SUSPI);

		if (USB_Device_ConfigurationNumber)
    310e:	80 91 cb 05 	lds	r24, 0x05CB	; 0x8005cb <USB_Device_ConfigurationNumber>
    3112:	81 11       	cpse	r24, r1
    3114:	6b c0       	rjmp	.+214    	; 0x31ec <__vector_10+0x166>
			}

			static inline bool USB_Device_IsAddressSet(void) ATTR_ALWAYS_INLINE ATTR_WARN_UNUSED_RESULT;
			static inline bool USB_Device_IsAddressSet(void)
			{
				return (UDADDR & (1 << ADDEN));
    3116:	80 91 e3 00 	lds	r24, 0x00E3	; 0x8000e3 <__TEXT_REGION_LENGTH__+0x7e00e3>
		  USB_DeviceState = DEVICE_STATE_Configured;
		else
		  USB_DeviceState = (USB_Device_IsAddressSet()) ? DEVICE_STATE_Addressed : DEVICE_STATE_Powered;
    311a:	87 fd       	sbrc	r24, 7
    311c:	71 c0       	rjmp	.+226    	; 0x3200 <__vector_10+0x17a>
    311e:	81 e0       	ldi	r24, 0x01	; 1
    3120:	80 93 cf 05 	sts	0x05CF, r24	; 0x8005cf <USB_DeviceState>

		#if defined(USB_SERIES_2_AVR) && !defined(NO_LIMITED_CONTROLLER_CONNECT)
		EVENT_USB_Device_Connect();
		#else
		EVENT_USB_Device_WakeUp();
    3124:	b7 d1       	rcall	.+878    	; 0x3494 <USB_Event_Stub>
					case USB_INT_WAKEUPI:
						return (UDINT  & (1 << WAKEUPI));
					case USB_INT_SUSPI:
						return (UDINT  & (1 << SUSPI));
					case USB_INT_EORSTI:
						return (UDINT  & (1 << EORSTI));
    3126:	80 91 e1 00 	lds	r24, 0x00E1	; 0x8000e1 <__TEXT_REGION_LENGTH__+0x7e00e1>
		#endif
	}

	if (USB_INT_HasOccurred(USB_INT_EORSTI) && USB_INT_IsEnabled(USB_INT_EORSTI))
    312a:	83 ff       	sbrs	r24, 3
    312c:	04 c0       	rjmp	.+8      	; 0x3136 <__vector_10+0xb0>
					case USB_INT_WAKEUPI:
						return (UDIEN  & (1 << WAKEUPE));
					case USB_INT_SUSPI:
						return (UDIEN  & (1 << SUSPE));
					case USB_INT_EORSTI:
						return (UDIEN  & (1 << EORSTE));
    312e:	80 91 e2 00 	lds	r24, 0x00E2	; 0x8000e2 <__TEXT_REGION_LENGTH__+0x7e00e2>
    3132:	83 fd       	sbrc	r24, 3
    3134:	27 c0       	rjmp	.+78     	; 0x3184 <__vector_10+0xfe>
		USB_ResetInterface();

		EVENT_USB_UIDChange();
	}
	#endif
}
    3136:	ff 91       	pop	r31
    3138:	ef 91       	pop	r30
    313a:	bf 91       	pop	r27
    313c:	af 91       	pop	r26
    313e:	9f 91       	pop	r25
    3140:	8f 91       	pop	r24
    3142:	7f 91       	pop	r23
    3144:	6f 91       	pop	r22
    3146:	5f 91       	pop	r21
    3148:	4f 91       	pop	r20
    314a:	3f 91       	pop	r19
    314c:	2f 91       	pop	r18
    314e:	0f 90       	pop	r0
    3150:	0f be       	out	0x3f, r0	; 63
    3152:	0f 90       	pop	r0
    3154:	1f 90       	pop	r1
    3156:	18 95       	reti
			{
				switch (Interrupt)
				{
					#if (defined(USB_SERIES_4_AVR) || defined(USB_SERIES_6_AVR) || defined(USB_SERIES_7_AVR))
					case USB_INT_VBUSTI:
						USBINT &= ~(1 << VBUSTI);
    3158:	80 91 da 00 	lds	r24, 0x00DA	; 0x8000da <__TEXT_REGION_LENGTH__+0x7e00da>
    315c:	8e 7f       	andi	r24, 0xFE	; 254
    315e:	80 93 da 00 	sts	0x00DA, r24	; 0x8000da <__TEXT_REGION_LENGTH__+0x7e00da>
				 *  \return Boolean \c true if the VBUS line is currently detecting power from a host, \c false otherwise.
				 */
				static inline bool USB_VBUS_GetStatus(void) ATTR_WARN_UNUSED_RESULT ATTR_ALWAYS_INLINE;
				static inline bool USB_VBUS_GetStatus(void)
				{
					return ((USBSTA & (1 << VBUS)) ? true : false);
    3162:	80 91 d9 00 	lds	r24, 0x00D9	; 0x8000d9 <__TEXT_REGION_LENGTH__+0x7e00d9>
	#if defined(USB_SERIES_4_AVR) || defined(USB_SERIES_6_AVR) || defined(USB_SERIES_7_AVR)
	if (USB_INT_HasOccurred(USB_INT_VBUSTI) && USB_INT_IsEnabled(USB_INT_VBUSTI))
	{
		USB_INT_Clear(USB_INT_VBUSTI);

		if (USB_VBUS_GetStatus())
    3166:	80 ff       	sbrs	r24, 0
    3168:	45 c0       	rjmp	.+138    	; 0x31f4 <__vector_10+0x16e>

		/* Inline Functions: */
			static inline void USB_PLL_On(void) ATTR_ALWAYS_INLINE;
			static inline void USB_PLL_On(void)
			{
				PLLCSR = USB_PLL_PSC;
    316a:	80 e1       	ldi	r24, 0x10	; 16
    316c:	89 bd       	out	0x29, r24	; 41
				PLLCSR = (USB_PLL_PSC | (1 << PLLE));
    316e:	82 e1       	ldi	r24, 0x12	; 18
    3170:	89 bd       	out	0x29, r24	; 41
		{
			if (!(USB_Options & USB_OPT_MANUAL_PLL))
			{
				USB_PLL_On();
				while (!(USB_PLL_IsReady()));
    3172:	09 b4       	in	r0, 0x29	; 41
    3174:	00 fe       	sbrs	r0, 0
    3176:	fd cf       	rjmp	.-6      	; 0x3172 <__vector_10+0xec>
			}

			USB_DeviceState = DEVICE_STATE_Powered;
    3178:	81 e0       	ldi	r24, 0x01	; 1
    317a:	80 93 cf 05 	sts	0x05CF, r24	; 0x8005cf <USB_DeviceState>
			EVENT_USB_Device_Connect();
    317e:	0e 94 0a 05 	call	0xa14	; 0xa14 <EVENT_USB_Device_Connect>
    3182:	9a cf       	rjmp	.-204    	; 0x30b8 <__vector_10+0x32>
						break;
					case USB_INT_SUSPI:
						UDINT  &= ~(1 << SUSPI);
						break;
					case USB_INT_EORSTI:
						UDINT  &= ~(1 << EORSTI);
    3184:	80 91 e1 00 	lds	r24, 0x00E1	; 0x8000e1 <__TEXT_REGION_LENGTH__+0x7e00e1>
    3188:	87 7f       	andi	r24, 0xF7	; 247
    318a:	80 93 e1 00 	sts	0x00E1, r24	; 0x8000e1 <__TEXT_REGION_LENGTH__+0x7e00e1>

	if (USB_INT_HasOccurred(USB_INT_EORSTI) && USB_INT_IsEnabled(USB_INT_EORSTI))
	{
		USB_INT_Clear(USB_INT_EORSTI);

		USB_DeviceState                = DEVICE_STATE_Default;
    318e:	82 e0       	ldi	r24, 0x02	; 2
    3190:	80 93 cf 05 	sts	0x05CF, r24	; 0x8005cf <USB_DeviceState>
		USB_Device_ConfigurationNumber = 0;
    3194:	10 92 cb 05 	sts	0x05CB, r1	; 0x8005cb <USB_Device_ConfigurationNumber>
					#if defined(USB_CAN_BE_DEVICE)
					case USB_INT_WAKEUPI:
						UDINT  &= ~(1 << WAKEUPI);
						break;
					case USB_INT_SUSPI:
						UDINT  &= ~(1 << SUSPI);
    3198:	80 91 e1 00 	lds	r24, 0x00E1	; 0x8000e1 <__TEXT_REGION_LENGTH__+0x7e00e1>
    319c:	8e 7f       	andi	r24, 0xFE	; 254
    319e:	80 93 e1 00 	sts	0x00E1, r24	; 0x8000e1 <__TEXT_REGION_LENGTH__+0x7e00e1>
					#if defined(USB_CAN_BE_DEVICE)
					case USB_INT_WAKEUPI:
						UDIEN  &= ~(1 << WAKEUPE);
						break;
					case USB_INT_SUSPI:
						UDIEN  &= ~(1 << SUSPE);
    31a2:	80 91 e2 00 	lds	r24, 0x00E2	; 0x8000e2 <__TEXT_REGION_LENGTH__+0x7e00e2>
    31a6:	8e 7f       	andi	r24, 0xFE	; 254
    31a8:	80 93 e2 00 	sts	0x00E2, r24	; 0x8000e2 <__TEXT_REGION_LENGTH__+0x7e00e2>
						USBCON |= (1 << IDTE);
						break;
					#endif
					#if defined(USB_CAN_BE_DEVICE)
					case USB_INT_WAKEUPI:
						UDIEN  |= (1 << WAKEUPE);
    31ac:	80 91 e2 00 	lds	r24, 0x00E2	; 0x8000e2 <__TEXT_REGION_LENGTH__+0x7e00e2>
    31b0:	80 61       	ori	r24, 0x10	; 16
    31b2:	80 93 e2 00 	sts	0x00E2, r24	; 0x8000e2 <__TEXT_REGION_LENGTH__+0x7e00e2>
				uint8_t Number = (Address & ENDPOINT_EPNUM_MASK);

				if (Number >= ENDPOINT_TOTAL_ENDPOINTS)
				  return false;

				return Endpoint_ConfigureEndpoint_Prv(Number,
    31b6:	42 e0       	ldi	r20, 0x02	; 2
    31b8:	60 e0       	ldi	r22, 0x00	; 0
    31ba:	80 e0       	ldi	r24, 0x00	; 0

		#if defined(INTERRUPT_CONTROL_ENDPOINT)
		USB_INT_Enable(USB_INT_RXSTPI);
		#endif

		EVENT_USB_Device_Reset();
    31bc:	82 de       	rcall	.-764    	; 0x2ec2 <Endpoint_ConfigureEndpoint_Prv>
    31be:	6a d1       	rcall	.+724    	; 0x3494 <USB_Event_Stub>
		USB_ResetInterface();

		EVENT_USB_UIDChange();
	}
	#endif
}
    31c0:	ba cf       	rjmp	.-140    	; 0x3136 <__vector_10+0xb0>
					#if defined(USB_CAN_BE_DEVICE)
					case USB_INT_WAKEUPI:
						UDIEN  &= ~(1 << WAKEUPE);
						break;
					case USB_INT_SUSPI:
						UDIEN  &= ~(1 << SUSPE);
    31c2:	80 91 e2 00 	lds	r24, 0x00E2	; 0x8000e2 <__TEXT_REGION_LENGTH__+0x7e00e2>
    31c6:	8e 7f       	andi	r24, 0xFE	; 254
    31c8:	80 93 e2 00 	sts	0x00E2, r24	; 0x8000e2 <__TEXT_REGION_LENGTH__+0x7e00e2>
						USBCON |= (1 << IDTE);
						break;
					#endif
					#if defined(USB_CAN_BE_DEVICE)
					case USB_INT_WAKEUPI:
						UDIEN  |= (1 << WAKEUPE);
    31cc:	80 91 e2 00 	lds	r24, 0x00E2	; 0x8000e2 <__TEXT_REGION_LENGTH__+0x7e00e2>
    31d0:	80 61       	ori	r24, 0x10	; 16
    31d2:	80 93 e2 00 	sts	0x00E2, r24	; 0x8000e2 <__TEXT_REGION_LENGTH__+0x7e00e2>
			#endif

			static inline void USB_CLK_Freeze(void) ATTR_ALWAYS_INLINE;
			static inline void USB_CLK_Freeze(void)
			{
				USBCON |=  (1 << FRZCLK);
    31d6:	80 91 d8 00 	lds	r24, 0x00D8	; 0x8000d8 <__TEXT_REGION_LENGTH__+0x7e00d8>
    31da:	80 62       	ori	r24, 0x20	; 32
    31dc:	80 93 d8 00 	sts	0x00D8, r24	; 0x8000d8 <__TEXT_REGION_LENGTH__+0x7e00d8>
			}

			static inline void USB_PLL_Off(void) ATTR_ALWAYS_INLINE;
			static inline void USB_PLL_Off(void)
			{
				PLLCSR = 0;
    31e0:	19 bc       	out	0x29, r1	; 41

		#if defined(USB_SERIES_2_AVR) && !defined(NO_LIMITED_CONTROLLER_CONNECT)
		USB_DeviceState = DEVICE_STATE_Unattached;
		EVENT_USB_Device_Disconnect();
		#else
		USB_DeviceState = DEVICE_STATE_Suspended;
    31e2:	85 e0       	ldi	r24, 0x05	; 5
    31e4:	80 93 cf 05 	sts	0x05CF, r24	; 0x8005cf <USB_DeviceState>
		EVENT_USB_Device_Suspend();
    31e8:	55 d1       	rcall	.+682    	; 0x3494 <USB_Event_Stub>
    31ea:	6e cf       	rjmp	.-292    	; 0x30c8 <__vector_10+0x42>

		USB_INT_Disable(USB_INT_WAKEUPI);
		USB_INT_Enable(USB_INT_SUSPI);

		if (USB_Device_ConfigurationNumber)
		  USB_DeviceState = DEVICE_STATE_Configured;
    31ec:	84 e0       	ldi	r24, 0x04	; 4
    31ee:	80 93 cf 05 	sts	0x05CF, r24	; 0x8005cf <USB_DeviceState>
    31f2:	98 cf       	rjmp	.-208    	; 0x3124 <__vector_10+0x9e>
    31f4:	19 bc       	out	0x29, r1	; 41
		else
		{
			if (!(USB_Options & USB_OPT_MANUAL_PLL))
			  USB_PLL_Off();

			USB_DeviceState = DEVICE_STATE_Unattached;
    31f6:	10 92 cf 05 	sts	0x05CF, r1	; 0x8005cf <USB_DeviceState>
			EVENT_USB_Device_Disconnect();
    31fa:	0e 94 0b 05 	call	0xa16	; 0xa16 <EVENT_USB_Device_Disconnect>
    31fe:	5c cf       	rjmp	.-328    	; 0x30b8 <__vector_10+0x32>
		USB_INT_Enable(USB_INT_SUSPI);

		if (USB_Device_ConfigurationNumber)
		  USB_DeviceState = DEVICE_STATE_Configured;
		else
		  USB_DeviceState = (USB_Device_IsAddressSet()) ? DEVICE_STATE_Addressed : DEVICE_STATE_Powered;
    3200:	83 e0       	ldi	r24, 0x03	; 3
    3202:	8e cf       	rjmp	.-228    	; 0x3120 <__vector_10+0x9a>

00003204 <USB_Device_ProcessControlRequest>:
#if !defined(NO_DEVICE_REMOTE_WAKEUP)
bool    USB_Device_RemoteWakeupEnabled;
#endif

void USB_Device_ProcessControlRequest(void)
{
    3204:	1f 93       	push	r17
    3206:	cf 93       	push	r28
    3208:	df 93       	push	r29
    320a:	00 d0       	rcall	.+0      	; 0x320c <USB_Device_ProcessControlRequest+0x8>
    320c:	1f 92       	push	r1
    320e:	cd b7       	in	r28, 0x3d	; 61
    3210:	de b7       	in	r29, 0x3e	; 62
    3212:	e0 ed       	ldi	r30, 0xD0	; 208
    3214:	f5 e0       	ldi	r31, 0x05	; 5
    3216:	28 ed       	ldi	r18, 0xD8	; 216
    3218:	35 e0       	ldi	r19, 0x05	; 5
			 *  \return Next byte in the currently selected endpoint's FIFO buffer.
			 */
			static inline uint8_t Endpoint_Read_8(void) ATTR_WARN_UNUSED_RESULT ATTR_ALWAYS_INLINE;
			static inline uint8_t Endpoint_Read_8(void)
			{
				return UEDATX;
    321a:	80 91 f1 00 	lds	r24, 0x00F1	; 0x8000f1 <__TEXT_REGION_LENGTH__+0x7e00f1>
	USB_ControlRequest.wLength       = Endpoint_Read_16_LE();
	#else
	uint8_t* RequestHeader = (uint8_t*)&USB_ControlRequest;

	for (uint8_t RequestHeaderByte = 0; RequestHeaderByte < sizeof(USB_Request_Header_t); RequestHeaderByte++)
	  *(RequestHeader++) = Endpoint_Read_8();
    321e:	81 93       	st	Z+, r24
	USB_ControlRequest.wIndex        = Endpoint_Read_16_LE();
	USB_ControlRequest.wLength       = Endpoint_Read_16_LE();
	#else
	uint8_t* RequestHeader = (uint8_t*)&USB_ControlRequest;

	for (uint8_t RequestHeaderByte = 0; RequestHeaderByte < sizeof(USB_Request_Header_t); RequestHeaderByte++)
    3220:	2e 17       	cp	r18, r30
    3222:	3f 07       	cpc	r19, r31
    3224:	d1 f7       	brne	.-12     	; 0x321a <USB_Device_ProcessControlRequest+0x16>
	  *(RequestHeader++) = Endpoint_Read_8();
	#endif

	EVENT_USB_Device_ControlRequest();
    3226:	0e 94 5b 05 	call	0xab6	; 0xab6 <EVENT_USB_Device_ControlRequest>
			 *  \return Boolean \c true if the selected endpoint has received a SETUP packet, \c false otherwise.
			 */
			static inline bool Endpoint_IsSETUPReceived(void) ATTR_WARN_UNUSED_RESULT ATTR_ALWAYS_INLINE;
			static inline bool Endpoint_IsSETUPReceived(void)
			{
				return ((UEINTX & (1 << RXSTPI)) ? true : false);
    322a:	80 91 e8 00 	lds	r24, 0x00E8	; 0x8000e8 <__TEXT_REGION_LENGTH__+0x7e00e8>

	if (Endpoint_IsSETUPReceived())
    322e:	83 ff       	sbrs	r24, 3
    3230:	10 c0       	rjmp	.+32     	; 0x3252 <USB_Device_ProcessControlRequest+0x4e>
	{
		uint8_t bmRequestType = USB_ControlRequest.bmRequestType;
    3232:	90 91 d0 05 	lds	r25, 0x05D0	; 0x8005d0 <USB_ControlRequest>

		switch (USB_ControlRequest.bRequest)
    3236:	80 91 d1 05 	lds	r24, 0x05D1	; 0x8005d1 <USB_ControlRequest+0x1>
    323a:	85 30       	cpi	r24, 0x05	; 5
    323c:	89 f1       	breq	.+98     	; 0x32a0 <USB_Device_ProcessControlRequest+0x9c>
    323e:	08 f4       	brcc	.+2      	; 0x3242 <USB_Device_ProcessControlRequest+0x3e>
    3240:	7c c0       	rjmp	.+248    	; 0x333a <USB_Device_ProcessControlRequest+0x136>
    3242:	88 30       	cpi	r24, 0x08	; 8
    3244:	d9 f0       	breq	.+54     	; 0x327c <USB_Device_ProcessControlRequest+0x78>
    3246:	89 30       	cpi	r24, 0x09	; 9
    3248:	09 f4       	brne	.+2      	; 0x324c <USB_Device_ProcessControlRequest+0x48>
    324a:	b8 c0       	rjmp	.+368    	; 0x33bc <USB_Device_ProcessControlRequest+0x1b8>
    324c:	86 30       	cpi	r24, 0x06	; 6
    324e:	09 f4       	brne	.+2      	; 0x3252 <USB_Device_ProcessControlRequest+0x4e>
    3250:	47 c0       	rjmp	.+142    	; 0x32e0 <USB_Device_ProcessControlRequest+0xdc>
    3252:	80 91 e8 00 	lds	r24, 0x00E8	; 0x8000e8 <__TEXT_REGION_LENGTH__+0x7e00e8>
			default:
				break;
		}
	}

	if (Endpoint_IsSETUPReceived())
    3256:	83 ff       	sbrs	r24, 3
    3258:	0a c0       	rjmp	.+20     	; 0x326e <USB_Device_ProcessControlRequest+0x6a>
			 *  \note This is not applicable for non CONTROL type endpoints.
			 */
			static inline void Endpoint_ClearSETUP(void) ATTR_ALWAYS_INLINE;
			static inline void Endpoint_ClearSETUP(void)
			{
				UEINTX &= ~(1 << RXSTPI);
    325a:	80 91 e8 00 	lds	r24, 0x00E8	; 0x8000e8 <__TEXT_REGION_LENGTH__+0x7e00e8>
    325e:	87 7f       	andi	r24, 0xF7	; 247
    3260:	80 93 e8 00 	sts	0x00E8, r24	; 0x8000e8 <__TEXT_REGION_LENGTH__+0x7e00e8>
			 *  \ingroup Group_EndpointPacketManagement_AVR8
			 */
			static inline void Endpoint_StallTransaction(void) ATTR_ALWAYS_INLINE;
			static inline void Endpoint_StallTransaction(void)
			{
				UECONX |= (1 << STALLRQ);
    3264:	80 91 eb 00 	lds	r24, 0x00EB	; 0x8000eb <__TEXT_REGION_LENGTH__+0x7e00eb>
    3268:	80 62       	ori	r24, 0x20	; 32
    326a:	80 93 eb 00 	sts	0x00EB, r24	; 0x8000eb <__TEXT_REGION_LENGTH__+0x7e00eb>
	{
		Endpoint_ClearSETUP();
		Endpoint_StallTransaction();
	}
}
    326e:	0f 90       	pop	r0
    3270:	0f 90       	pop	r0
    3272:	0f 90       	pop	r0
    3274:	df 91       	pop	r29
    3276:	cf 91       	pop	r28
    3278:	1f 91       	pop	r17
    327a:	08 95       	ret
					USB_Device_GetDescriptor();
				}

				break;
			case REQ_GetConfiguration:
				if (bmRequestType == (REQDIR_DEVICETOHOST | REQTYPE_STANDARD | REQREC_DEVICE))
    327c:	90 38       	cpi	r25, 0x80	; 128
    327e:	49 f7       	brne	.-46     	; 0x3252 <USB_Device_ProcessControlRequest+0x4e>
			 *  \note This is not applicable for non CONTROL type endpoints.
			 */
			static inline void Endpoint_ClearSETUP(void) ATTR_ALWAYS_INLINE;
			static inline void Endpoint_ClearSETUP(void)
			{
				UEINTX &= ~(1 << RXSTPI);
    3280:	80 91 e8 00 	lds	r24, 0x00E8	; 0x8000e8 <__TEXT_REGION_LENGTH__+0x7e00e8>
    3284:	87 7f       	andi	r24, 0xF7	; 247
    3286:	80 93 e8 00 	sts	0x00E8, r24	; 0x8000e8 <__TEXT_REGION_LENGTH__+0x7e00e8>

static void USB_Device_GetConfiguration(void)
{
	Endpoint_ClearSETUP();

	Endpoint_Write_8(USB_Device_ConfigurationNumber);
    328a:	80 91 cb 05 	lds	r24, 0x05CB	; 0x8005cb <USB_Device_ConfigurationNumber>
			 *  \param[in] Data  Data to write into the the currently selected endpoint's FIFO buffer.
			 */
			static inline void Endpoint_Write_8(const uint8_t Data) ATTR_ALWAYS_INLINE;
			static inline void Endpoint_Write_8(const uint8_t Data)
			{
				UEDATX = Data;
    328e:	80 93 f1 00 	sts	0x00F1, r24	; 0x8000f1 <__TEXT_REGION_LENGTH__+0x7e00f1>
			 */
			static inline void Endpoint_ClearIN(void) ATTR_ALWAYS_INLINE;
			static inline void Endpoint_ClearIN(void)
			{
				#if !defined(CONTROL_ONLY_DEVICE)
					UEINTX &= ~((1 << TXINI) | (1 << FIFOCON));
    3292:	80 91 e8 00 	lds	r24, 0x00E8	; 0x8000e8 <__TEXT_REGION_LENGTH__+0x7e00e8>
    3296:	8e 77       	andi	r24, 0x7E	; 126
    3298:	80 93 e8 00 	sts	0x00E8, r24	; 0x8000e8 <__TEXT_REGION_LENGTH__+0x7e00e8>
	Endpoint_ClearIN();

	Endpoint_ClearStatusStage();
    329c:	26 de       	rcall	.-948    	; 0x2eea <Endpoint_ClearStatusStage>
    329e:	d9 cf       	rjmp	.-78     	; 0x3252 <USB_Device_ProcessControlRequest+0x4e>
					USB_Device_ClearSetFeature();
				}

				break;
			case REQ_SetAddress:
				if (bmRequestType == (REQDIR_HOSTTODEVICE | REQTYPE_STANDARD | REQREC_DEVICE))
    32a0:	91 11       	cpse	r25, r1
    32a2:	d7 cf       	rjmp	.-82     	; 0x3252 <USB_Device_ProcessControlRequest+0x4e>
	}
}

static void USB_Device_SetAddress(void)
{
	uint8_t DeviceAddress = (USB_ControlRequest.wValue & 0x7F);
    32a4:	10 91 d2 05 	lds	r17, 0x05D2	; 0x8005d2 <USB_ControlRequest+0x2>
    32a8:	1f 77       	andi	r17, 0x7F	; 127
			#endif

			static inline void USB_Device_SetDeviceAddress(const uint8_t Address) ATTR_ALWAYS_INLINE;
			static inline void USB_Device_SetDeviceAddress(const uint8_t Address)
			{
				UDADDR = (UDADDR & (1 << ADDEN)) | (Address & 0x7F);
    32aa:	80 91 e3 00 	lds	r24, 0x00E3	; 0x8000e3 <__TEXT_REGION_LENGTH__+0x7e00e3>
    32ae:	80 78       	andi	r24, 0x80	; 128
    32b0:	81 2b       	or	r24, r17
    32b2:	80 93 e3 00 	sts	0x00E3, r24	; 0x8000e3 <__TEXT_REGION_LENGTH__+0x7e00e3>
			 *  \note This is not applicable for non CONTROL type endpoints.
			 */
			static inline void Endpoint_ClearSETUP(void) ATTR_ALWAYS_INLINE;
			static inline void Endpoint_ClearSETUP(void)
			{
				UEINTX &= ~(1 << RXSTPI);
    32b6:	80 91 e8 00 	lds	r24, 0x00E8	; 0x8000e8 <__TEXT_REGION_LENGTH__+0x7e00e8>
    32ba:	87 7f       	andi	r24, 0xF7	; 247
    32bc:	80 93 e8 00 	sts	0x00E8, r24	; 0x8000e8 <__TEXT_REGION_LENGTH__+0x7e00e8>

	USB_Device_SetDeviceAddress(DeviceAddress);

	Endpoint_ClearSETUP();

	Endpoint_ClearStatusStage();
    32c0:	14 de       	rcall	.-984    	; 0x2eea <Endpoint_ClearStatusStage>
			 *  \return Boolean \c true if the current endpoint is ready for an IN packet, \c false otherwise.
			 */
			static inline bool Endpoint_IsINReady(void) ATTR_WARN_UNUSED_RESULT ATTR_ALWAYS_INLINE;
			static inline bool Endpoint_IsINReady(void)
			{
				return ((UEINTX & (1 << TXINI)) ? true : false);
    32c2:	80 91 e8 00 	lds	r24, 0x00E8	; 0x8000e8 <__TEXT_REGION_LENGTH__+0x7e00e8>

	while (!(Endpoint_IsINReady()));
    32c6:	80 ff       	sbrs	r24, 0
    32c8:	fc cf       	rjmp	.-8      	; 0x32c2 <USB_Device_ProcessControlRequest+0xbe>
			static inline void USB_Device_EnableDeviceAddress(const uint8_t Address) ATTR_ALWAYS_INLINE;
			static inline void USB_Device_EnableDeviceAddress(const uint8_t Address)
			{
				(void)Address;

				UDADDR |= (1 << ADDEN);
    32ca:	80 91 e3 00 	lds	r24, 0x00E3	; 0x8000e3 <__TEXT_REGION_LENGTH__+0x7e00e3>
    32ce:	80 68       	ori	r24, 0x80	; 128
    32d0:	80 93 e3 00 	sts	0x00E3, r24	; 0x8000e3 <__TEXT_REGION_LENGTH__+0x7e00e3>

	USB_Device_EnableDeviceAddress(DeviceAddress);

	USB_DeviceState = (DeviceAddress) ? DEVICE_STATE_Addressed : DEVICE_STATE_Default;
    32d4:	11 11       	cpse	r17, r1
    32d6:	cc c0       	rjmp	.+408    	; 0x3470 <USB_Device_ProcessControlRequest+0x26c>
    32d8:	82 e0       	ldi	r24, 0x02	; 2
    32da:	80 93 cf 05 	sts	0x05CF, r24	; 0x8005cf <USB_DeviceState>
    32de:	b9 cf       	rjmp	.-142    	; 0x3252 <USB_Device_ProcessControlRequest+0x4e>
				if (bmRequestType == (REQDIR_HOSTTODEVICE | REQTYPE_STANDARD | REQREC_DEVICE))
				  USB_Device_SetAddress();

				break;
			case REQ_GetDescriptor:
				if ((bmRequestType == (REQDIR_DEVICETOHOST | REQTYPE_STANDARD | REQREC_DEVICE)) ||
    32e0:	90 58       	subi	r25, 0x80	; 128
    32e2:	92 30       	cpi	r25, 0x02	; 2
    32e4:	08 f0       	brcs	.+2      	; 0x32e8 <USB_Device_ProcessControlRequest+0xe4>
    32e6:	b5 cf       	rjmp	.-150    	; 0x3252 <USB_Device_ProcessControlRequest+0x4e>
		USB_Device_GetInternalSerialDescriptor();
		return;
	}
	#endif

	if ((DescriptorSize = CALLBACK_USB_GetDescriptor(USB_ControlRequest.wValue, USB_ControlRequest.wIndex,
    32e8:	60 91 d4 05 	lds	r22, 0x05D4	; 0x8005d4 <USB_ControlRequest+0x4>
    32ec:	70 91 d5 05 	lds	r23, 0x05D5	; 0x8005d5 <USB_ControlRequest+0x5>
    32f0:	9e 01       	movw	r18, r28
    32f2:	2d 5f       	subi	r18, 0xFD	; 253
    32f4:	3f 4f       	sbci	r19, 0xFF	; 255
    32f6:	ae 01       	movw	r20, r28
    32f8:	4f 5f       	subi	r20, 0xFF	; 255
    32fa:	5f 4f       	sbci	r21, 0xFF	; 255
    32fc:	80 91 d2 05 	lds	r24, 0x05D2	; 0x8005d2 <USB_ControlRequest+0x2>
    3300:	90 91 d3 05 	lds	r25, 0x05D3	; 0x8005d3 <USB_ControlRequest+0x3>
    3304:	0e 94 0a 0d 	call	0x1a14	; 0x1a14 <CALLBACK_USB_GetDescriptor>
    3308:	bc 01       	movw	r22, r24
    330a:	89 2b       	or	r24, r25
    330c:	09 f4       	brne	.+2      	; 0x3310 <USB_Device_ProcessControlRequest+0x10c>
    330e:	a1 cf       	rjmp	.-190    	; 0x3252 <USB_Device_ProcessControlRequest+0x4e>
			 *  \note This is not applicable for non CONTROL type endpoints.
			 */
			static inline void Endpoint_ClearSETUP(void) ATTR_ALWAYS_INLINE;
			static inline void Endpoint_ClearSETUP(void)
			{
				UEINTX &= ~(1 << RXSTPI);
    3310:	80 91 e8 00 	lds	r24, 0x00E8	; 0x8000e8 <__TEXT_REGION_LENGTH__+0x7e00e8>
    3314:	87 7f       	andi	r24, 0xF7	; 247
    3316:	80 93 e8 00 	sts	0x00E8, r24	; 0x8000e8 <__TEXT_REGION_LENGTH__+0x7e00e8>
	#elif defined(USE_EEPROM_DESCRIPTORS)
	Endpoint_Write_Control_EStream_LE(DescriptorPointer, DescriptorSize);
	#elif defined(USE_FLASH_DESCRIPTORS)
	Endpoint_Write_Control_PStream_LE(DescriptorPointer, DescriptorSize);
	#else
	if (DescriptorAddressSpace == MEMSPACE_FLASH)
    331a:	8b 81       	ldd	r24, Y+3	; 0x03
    331c:	88 23       	and	r24, r24
    331e:	09 f4       	brne	.+2      	; 0x3322 <USB_Device_ProcessControlRequest+0x11e>
    3320:	ab c0       	rjmp	.+342    	; 0x3478 <USB_Device_ProcessControlRequest+0x274>
	  Endpoint_Write_Control_PStream_LE(DescriptorPointer, DescriptorSize);
	else if (DescriptorAddressSpace == MEMSPACE_EEPROM)
    3322:	81 30       	cpi	r24, 0x01	; 1
    3324:	09 f4       	brne	.+2      	; 0x3328 <USB_Device_ProcessControlRequest+0x124>
    3326:	b2 c0       	rjmp	.+356    	; 0x348c <USB_Device_ProcessControlRequest+0x288>
	  Endpoint_Write_Control_EStream_LE(DescriptorPointer, DescriptorSize);
	else
	  Endpoint_Write_Control_Stream_LE(DescriptorPointer, DescriptorSize);
    3328:	89 81       	ldd	r24, Y+1	; 0x01
    332a:	9a 81       	ldd	r25, Y+2	; 0x02
    332c:	7a dc       	rcall	.-1804   	; 0x2c22 <Endpoint_Write_Control_Stream_LE>
			 */
			static inline void Endpoint_ClearOUT(void) ATTR_ALWAYS_INLINE;
			static inline void Endpoint_ClearOUT(void)
			{
				#if !defined(CONTROL_ONLY_DEVICE)
					UEINTX &= ~((1 << RXOUTI) | (1 << FIFOCON));
    332e:	80 91 e8 00 	lds	r24, 0x00E8	; 0x8000e8 <__TEXT_REGION_LENGTH__+0x7e00e8>
    3332:	8b 77       	andi	r24, 0x7B	; 123
    3334:	80 93 e8 00 	sts	0x00E8, r24	; 0x8000e8 <__TEXT_REGION_LENGTH__+0x7e00e8>
    3338:	8c cf       	rjmp	.-232    	; 0x3252 <USB_Device_ProcessControlRequest+0x4e>

	if (Endpoint_IsSETUPReceived())
	{
		uint8_t bmRequestType = USB_ControlRequest.bmRequestType;

		switch (USB_ControlRequest.bRequest)
    333a:	81 30       	cpi	r24, 0x01	; 1
    333c:	29 f0       	breq	.+10     	; 0x3348 <USB_Device_ProcessControlRequest+0x144>
    333e:	08 f4       	brcc	.+2      	; 0x3342 <USB_Device_ProcessControlRequest+0x13e>
    3340:	5f c0       	rjmp	.+190    	; 0x3400 <USB_Device_ProcessControlRequest+0x1fc>
    3342:	83 30       	cpi	r24, 0x03	; 3
    3344:	09 f0       	breq	.+2      	; 0x3348 <USB_Device_ProcessControlRequest+0x144>
    3346:	85 cf       	rjmp	.-246    	; 0x3252 <USB_Device_ProcessControlRequest+0x4e>
				}

				break;
			case REQ_ClearFeature:
			case REQ_SetFeature:
				if ((bmRequestType == (REQDIR_HOSTTODEVICE | REQTYPE_STANDARD | REQREC_DEVICE)) ||
    3348:	99 23       	and	r25, r25
    334a:	09 f4       	brne	.+2      	; 0x334e <USB_Device_ProcessControlRequest+0x14a>
    334c:	7d c0       	rjmp	.+250    	; 0x3448 <USB_Device_ProcessControlRequest+0x244>
    334e:	92 30       	cpi	r25, 0x02	; 2
    3350:	09 f0       	breq	.+2      	; 0x3354 <USB_Device_ProcessControlRequest+0x150>
    3352:	7f cf       	rjmp	.-258    	; 0x3252 <USB_Device_ProcessControlRequest+0x4e>
		}
		#endif
		#if !defined(CONTROL_ONLY_DEVICE)
		case REQREC_ENDPOINT:
		{
			if ((uint8_t)USB_ControlRequest.wValue == FEATURE_SEL_EndpointHalt)
    3354:	90 91 d2 05 	lds	r25, 0x05D2	; 0x8005d2 <USB_ControlRequest+0x2>
    3358:	91 11       	cpse	r25, r1
    335a:	27 c0       	rjmp	.+78     	; 0x33aa <USB_Device_ProcessControlRequest+0x1a6>
			{
				uint8_t EndpointIndex = ((uint8_t)USB_ControlRequest.wIndex & ENDPOINT_EPNUM_MASK);
    335c:	90 91 d4 05 	lds	r25, 0x05D4	; 0x8005d4 <USB_ControlRequest+0x4>
    3360:	9f 70       	andi	r25, 0x0F	; 15

				if (EndpointIndex == ENDPOINT_CONTROLEP || EndpointIndex >= ENDPOINT_TOTAL_ENDPOINTS)
    3362:	2f ef       	ldi	r18, 0xFF	; 255
    3364:	29 0f       	add	r18, r25
    3366:	26 30       	cpi	r18, 0x06	; 6
    3368:	08 f0       	brcs	.+2      	; 0x336c <USB_Device_ProcessControlRequest+0x168>
    336a:	73 cf       	rjmp	.-282    	; 0x3252 <USB_Device_ProcessControlRequest+0x4e>
			 */
			static inline void Endpoint_SelectEndpoint(const uint8_t Address) ATTR_ALWAYS_INLINE;
			static inline void Endpoint_SelectEndpoint(const uint8_t Address)
			{
				#if !defined(CONTROL_ONLY_DEVICE)
					UENUM = (Address & ENDPOINT_EPNUM_MASK);
    336c:	90 93 e9 00 	sts	0x00E9, r25	; 0x8000e9 <__TEXT_REGION_LENGTH__+0x7e00e9>
			 * \return Boolean \c true if the currently selected endpoint is enabled, \c false otherwise.
			 */
			static inline bool Endpoint_IsEnabled(void) ATTR_WARN_UNUSED_RESULT ATTR_ALWAYS_INLINE;
			static inline bool Endpoint_IsEnabled(void)
			{
				return ((UECONX & (1 << EPEN)) ? true : false);
    3370:	20 91 eb 00 	lds	r18, 0x00EB	; 0x8000eb <__TEXT_REGION_LENGTH__+0x7e00eb>
				  return;

				Endpoint_SelectEndpoint(EndpointIndex);

				if (Endpoint_IsEnabled())
    3374:	20 ff       	sbrs	r18, 0
    3376:	19 c0       	rjmp	.+50     	; 0x33aa <USB_Device_ProcessControlRequest+0x1a6>
				{
					if (USB_ControlRequest.bRequest == REQ_SetFeature)
    3378:	83 30       	cpi	r24, 0x03	; 3
    337a:	09 f4       	brne	.+2      	; 0x337e <USB_Device_ProcessControlRequest+0x17a>
    337c:	81 c0       	rjmp	.+258    	; 0x3480 <USB_Device_ProcessControlRequest+0x27c>
			 *  \ingroup Group_EndpointPacketManagement_AVR8
			 */
			static inline void Endpoint_ClearStall(void) ATTR_ALWAYS_INLINE;
			static inline void Endpoint_ClearStall(void)
			{
				UECONX |= (1 << STALLRQC);
    337e:	80 91 eb 00 	lds	r24, 0x00EB	; 0x8000eb <__TEXT_REGION_LENGTH__+0x7e00eb>
    3382:	80 61       	ori	r24, 0x10	; 16
    3384:	80 93 eb 00 	sts	0x00EB, r24	; 0x8000eb <__TEXT_REGION_LENGTH__+0x7e00eb>
			 *  \param[in] Address  Endpoint address whose FIFO buffers are to be reset.
			 */
			static inline void Endpoint_ResetEndpoint(const uint8_t Address) ATTR_ALWAYS_INLINE;
			static inline void Endpoint_ResetEndpoint(const uint8_t Address)
			{
				UERST = (1 << (Address & ENDPOINT_EPNUM_MASK));
    3388:	21 e0       	ldi	r18, 0x01	; 1
    338a:	30 e0       	ldi	r19, 0x00	; 0
    338c:	a9 01       	movw	r20, r18
    338e:	02 c0       	rjmp	.+4      	; 0x3394 <USB_Device_ProcessControlRequest+0x190>
    3390:	44 0f       	add	r20, r20
    3392:	55 1f       	adc	r21, r21
    3394:	9a 95       	dec	r25
    3396:	e2 f7       	brpl	.-8      	; 0x3390 <USB_Device_ProcessControlRequest+0x18c>
    3398:	40 93 ea 00 	sts	0x00EA, r20	; 0x8000ea <__TEXT_REGION_LENGTH__+0x7e00ea>
				UERST = 0;
    339c:	10 92 ea 00 	sts	0x00EA, r1	; 0x8000ea <__TEXT_REGION_LENGTH__+0x7e00ea>

			/** Resets the data toggle of the currently selected endpoint. */
			static inline void Endpoint_ResetDataToggle(void) ATTR_ALWAYS_INLINE;
			static inline void Endpoint_ResetDataToggle(void)
			{
				UECONX |= (1 << RSTDT);
    33a0:	80 91 eb 00 	lds	r24, 0x00EB	; 0x8000eb <__TEXT_REGION_LENGTH__+0x7e00eb>
    33a4:	88 60       	ori	r24, 0x08	; 8
    33a6:	80 93 eb 00 	sts	0x00EB, r24	; 0x8000eb <__TEXT_REGION_LENGTH__+0x7e00eb>
			 */
			static inline void Endpoint_SelectEndpoint(const uint8_t Address) ATTR_ALWAYS_INLINE;
			static inline void Endpoint_SelectEndpoint(const uint8_t Address)
			{
				#if !defined(CONTROL_ONLY_DEVICE)
					UENUM = (Address & ENDPOINT_EPNUM_MASK);
    33aa:	10 92 e9 00 	sts	0x00E9, r1	; 0x8000e9 <__TEXT_REGION_LENGTH__+0x7e00e9>
			 *  \note This is not applicable for non CONTROL type endpoints.
			 */
			static inline void Endpoint_ClearSETUP(void) ATTR_ALWAYS_INLINE;
			static inline void Endpoint_ClearSETUP(void)
			{
				UEINTX &= ~(1 << RXSTPI);
    33ae:	80 91 e8 00 	lds	r24, 0x00E8	; 0x8000e8 <__TEXT_REGION_LENGTH__+0x7e00e8>
    33b2:	87 7f       	andi	r24, 0xF7	; 247
    33b4:	80 93 e8 00 	sts	0x00E8, r24	; 0x8000e8 <__TEXT_REGION_LENGTH__+0x7e00e8>

	Endpoint_SelectEndpoint(ENDPOINT_CONTROLEP);

	Endpoint_ClearSETUP();

	Endpoint_ClearStatusStage();
    33b8:	98 dd       	rcall	.-1232   	; 0x2eea <Endpoint_ClearStatusStage>
    33ba:	4b cf       	rjmp	.-362    	; 0x3252 <USB_Device_ProcessControlRequest+0x4e>
				if (bmRequestType == (REQDIR_DEVICETOHOST | REQTYPE_STANDARD | REQREC_DEVICE))
				  USB_Device_GetConfiguration();

				break;
			case REQ_SetConfiguration:
				if (bmRequestType == (REQDIR_HOSTTODEVICE | REQTYPE_STANDARD | REQREC_DEVICE))
    33bc:	91 11       	cpse	r25, r1
    33be:	49 cf       	rjmp	.-366    	; 0x3252 <USB_Device_ProcessControlRequest+0x4e>
}

static void USB_Device_SetConfiguration(void)
{
	#if defined(FIXED_NUM_CONFIGURATIONS)
	if ((uint8_t)USB_ControlRequest.wValue > FIXED_NUM_CONFIGURATIONS)
    33c0:	80 91 d2 05 	lds	r24, 0x05D2	; 0x8005d2 <USB_ControlRequest+0x2>
    33c4:	90 91 d3 05 	lds	r25, 0x05D3	; 0x8005d3 <USB_ControlRequest+0x3>
    33c8:	99 27       	eor	r25, r25
    33ca:	02 97       	sbiw	r24, 0x02	; 2
    33cc:	0c f0       	brlt	.+2      	; 0x33d0 <USB_Device_ProcessControlRequest+0x1cc>
    33ce:	41 cf       	rjmp	.-382    	; 0x3252 <USB_Device_ProcessControlRequest+0x4e>
    33d0:	80 91 e8 00 	lds	r24, 0x00E8	; 0x8000e8 <__TEXT_REGION_LENGTH__+0x7e00e8>
    33d4:	87 7f       	andi	r24, 0xF7	; 247
    33d6:	80 93 e8 00 	sts	0x00E8, r24	; 0x8000e8 <__TEXT_REGION_LENGTH__+0x7e00e8>
	#endif
	#endif

	Endpoint_ClearSETUP();

	USB_Device_ConfigurationNumber = (uint8_t)USB_ControlRequest.wValue;
    33da:	80 91 d2 05 	lds	r24, 0x05D2	; 0x8005d2 <USB_ControlRequest+0x2>
    33de:	80 93 cb 05 	sts	0x05CB, r24	; 0x8005cb <USB_Device_ConfigurationNumber>

	Endpoint_ClearStatusStage();
    33e2:	83 dd       	rcall	.-1274   	; 0x2eea <Endpoint_ClearStatusStage>

	if (USB_Device_ConfigurationNumber)
    33e4:	80 91 cb 05 	lds	r24, 0x05CB	; 0x8005cb <USB_Device_ConfigurationNumber>
    33e8:	81 11       	cpse	r24, r1
    33ea:	44 c0       	rjmp	.+136    	; 0x3474 <USB_Device_ProcessControlRequest+0x270>
			}

			static inline bool USB_Device_IsAddressSet(void) ATTR_ALWAYS_INLINE ATTR_WARN_UNUSED_RESULT;
			static inline bool USB_Device_IsAddressSet(void)
			{
				return (UDADDR & (1 << ADDEN));
    33ec:	80 91 e3 00 	lds	r24, 0x00E3	; 0x8000e3 <__TEXT_REGION_LENGTH__+0x7e00e3>
	  USB_DeviceState = DEVICE_STATE_Configured;
	else
	  USB_DeviceState = (USB_Device_IsAddressSet()) ? DEVICE_STATE_Configured : DEVICE_STATE_Powered;
    33f0:	87 fd       	sbrc	r24, 7
    33f2:	40 c0       	rjmp	.+128    	; 0x3474 <USB_Device_ProcessControlRequest+0x270>
    33f4:	81 e0       	ldi	r24, 0x01	; 1
    33f6:	80 93 cf 05 	sts	0x05CF, r24	; 0x8005cf <USB_DeviceState>

	EVENT_USB_Device_ConfigurationChanged();
    33fa:	0e 94 0c 05 	call	0xa18	; 0xa18 <EVENT_USB_Device_ConfigurationChanged>
    33fe:	29 cf       	rjmp	.-430    	; 0x3252 <USB_Device_ProcessControlRequest+0x4e>
		uint8_t bmRequestType = USB_ControlRequest.bmRequestType;

		switch (USB_ControlRequest.bRequest)
		{
			case REQ_GetStatus:
				if ((bmRequestType == (REQDIR_DEVICETOHOST | REQTYPE_STANDARD | REQREC_DEVICE)) ||
    3400:	90 38       	cpi	r25, 0x80	; 128
    3402:	71 f1       	breq	.+92     	; 0x3460 <USB_Device_ProcessControlRequest+0x25c>
    3404:	92 38       	cpi	r25, 0x82	; 130
    3406:	09 f0       	breq	.+2      	; 0x340a <USB_Device_ProcessControlRequest+0x206>
    3408:	24 cf       	rjmp	.-440    	; 0x3252 <USB_Device_ProcessControlRequest+0x4e>
			break;
		}
		case (REQDIR_DEVICETOHOST | REQTYPE_STANDARD | REQREC_ENDPOINT):
		{
			#if !defined(CONTROL_ONLY_DEVICE)
			uint8_t EndpointIndex = ((uint8_t)USB_ControlRequest.wIndex & ENDPOINT_EPNUM_MASK);
    340a:	80 91 d4 05 	lds	r24, 0x05D4	; 0x8005d4 <USB_ControlRequest+0x4>
    340e:	8f 70       	andi	r24, 0x0F	; 15

			if (EndpointIndex >= ENDPOINT_TOTAL_ENDPOINTS)
    3410:	87 30       	cpi	r24, 0x07	; 7
    3412:	08 f0       	brcs	.+2      	; 0x3416 <USB_Device_ProcessControlRequest+0x212>
    3414:	1e cf       	rjmp	.-452    	; 0x3252 <USB_Device_ProcessControlRequest+0x4e>
			 */
			static inline void Endpoint_SelectEndpoint(const uint8_t Address) ATTR_ALWAYS_INLINE;
			static inline void Endpoint_SelectEndpoint(const uint8_t Address)
			{
				#if !defined(CONTROL_ONLY_DEVICE)
					UENUM = (Address & ENDPOINT_EPNUM_MASK);
    3416:	80 93 e9 00 	sts	0x00E9, r24	; 0x8000e9 <__TEXT_REGION_LENGTH__+0x7e00e9>
			 *  \return Boolean \c true if the currently selected endpoint is stalled, \c false otherwise.
			 */
			static inline bool Endpoint_IsStalled(void) ATTR_WARN_UNUSED_RESULT ATTR_ALWAYS_INLINE;
			static inline bool Endpoint_IsStalled(void)
			{
				return ((UECONX & (1 << STALLRQ)) ? true : false);
    341a:	80 91 eb 00 	lds	r24, 0x00EB	; 0x8000eb <__TEXT_REGION_LENGTH__+0x7e00eb>
				return;

			Endpoint_SelectEndpoint(EndpointIndex);

			CurrentStatus = Endpoint_IsStalled();
    341e:	85 fb       	bst	r24, 5
    3420:	88 27       	eor	r24, r24
    3422:	80 f9       	bld	r24, 0
			 */
			static inline void Endpoint_SelectEndpoint(const uint8_t Address) ATTR_ALWAYS_INLINE;
			static inline void Endpoint_SelectEndpoint(const uint8_t Address)
			{
				#if !defined(CONTROL_ONLY_DEVICE)
					UENUM = (Address & ENDPOINT_EPNUM_MASK);
    3424:	10 92 e9 00 	sts	0x00E9, r1	; 0x8000e9 <__TEXT_REGION_LENGTH__+0x7e00e9>
			 *  \note This is not applicable for non CONTROL type endpoints.
			 */
			static inline void Endpoint_ClearSETUP(void) ATTR_ALWAYS_INLINE;
			static inline void Endpoint_ClearSETUP(void)
			{
				UEINTX &= ~(1 << RXSTPI);
    3428:	90 91 e8 00 	lds	r25, 0x00E8	; 0x8000e8 <__TEXT_REGION_LENGTH__+0x7e00e8>
    342c:	97 7f       	andi	r25, 0xF7	; 247
    342e:	90 93 e8 00 	sts	0x00E8, r25	; 0x8000e8 <__TEXT_REGION_LENGTH__+0x7e00e8>
			 *  \param[in] Data  Data to write to the currently selected endpoint's FIFO buffer.
			 */
			static inline void Endpoint_Write_16_LE(const uint16_t Data) ATTR_ALWAYS_INLINE;
			static inline void Endpoint_Write_16_LE(const uint16_t Data)
			{
				UEDATX = (Data & 0xFF);
    3432:	80 93 f1 00 	sts	0x00F1, r24	; 0x8000f1 <__TEXT_REGION_LENGTH__+0x7e00f1>
				UEDATX = (Data >> 8);
    3436:	10 92 f1 00 	sts	0x00F1, r1	; 0x8000f1 <__TEXT_REGION_LENGTH__+0x7e00f1>
			 */
			static inline void Endpoint_ClearIN(void) ATTR_ALWAYS_INLINE;
			static inline void Endpoint_ClearIN(void)
			{
				#if !defined(CONTROL_ONLY_DEVICE)
					UEINTX &= ~((1 << TXINI) | (1 << FIFOCON));
    343a:	80 91 e8 00 	lds	r24, 0x00E8	; 0x8000e8 <__TEXT_REGION_LENGTH__+0x7e00e8>
    343e:	8e 77       	andi	r24, 0x7E	; 126
    3440:	80 93 e8 00 	sts	0x00E8, r24	; 0x8000e8 <__TEXT_REGION_LENGTH__+0x7e00e8>
	Endpoint_ClearSETUP();

	Endpoint_Write_16_LE(CurrentStatus);
	Endpoint_ClearIN();

	Endpoint_ClearStatusStage();
    3444:	52 dd       	rcall	.-1372   	; 0x2eea <Endpoint_ClearStatusStage>
    3446:	05 cf       	rjmp	.-502    	; 0x3252 <USB_Device_ProcessControlRequest+0x4e>
	switch (USB_ControlRequest.bmRequestType & CONTROL_REQTYPE_RECIPIENT)
	{
		#if !defined(NO_DEVICE_REMOTE_WAKEUP)
		case REQREC_DEVICE:
		{
			if ((uint8_t)USB_ControlRequest.wValue == FEATURE_SEL_DeviceRemoteWakeup)
    3448:	90 91 d2 05 	lds	r25, 0x05D2	; 0x8005d2 <USB_ControlRequest+0x2>
    344c:	91 30       	cpi	r25, 0x01	; 1
    344e:	09 f0       	breq	.+2      	; 0x3452 <USB_Device_ProcessControlRequest+0x24e>
    3450:	00 cf       	rjmp	.-512    	; 0x3252 <USB_Device_ProcessControlRequest+0x4e>
			  USB_Device_RemoteWakeupEnabled = (USB_ControlRequest.bRequest == REQ_SetFeature);
    3452:	91 e0       	ldi	r25, 0x01	; 1
    3454:	83 30       	cpi	r24, 0x03	; 3
    3456:	09 f0       	breq	.+2      	; 0x345a <USB_Device_ProcessControlRequest+0x256>
    3458:	90 e0       	ldi	r25, 0x00	; 0
    345a:	90 93 cd 05 	sts	0x05CD, r25	; 0x8005cd <USB_Device_RemoteWakeupEnabled>
    345e:	a5 cf       	rjmp	.-182    	; 0x33aa <USB_Device_ProcessControlRequest+0x1a6>
	Endpoint_ClearOUT();
}

static void USB_Device_GetStatus(void)
{
	uint8_t CurrentStatus = 0;
    3460:	80 91 cc 05 	lds	r24, 0x05CC	; 0x8005cc <USB_Device_CurrentlySelfPowered>
			if (USB_Device_CurrentlySelfPowered)
			  CurrentStatus |= FEATURE_SELFPOWERED_ENABLED;
			#endif

			#if !defined(NO_DEVICE_REMOTE_WAKEUP)
			if (USB_Device_RemoteWakeupEnabled)
    3464:	90 91 cd 05 	lds	r25, 0x05CD	; 0x8005cd <USB_Device_RemoteWakeupEnabled>
    3468:	99 23       	and	r25, r25
    346a:	f1 f2       	breq	.-68     	; 0x3428 <USB_Device_ProcessControlRequest+0x224>
			  CurrentStatus |= FEATURE_REMOTE_WAKEUP_ENABLED;
    346c:	82 60       	ori	r24, 0x02	; 2
    346e:	dc cf       	rjmp	.-72     	; 0x3428 <USB_Device_ProcessControlRequest+0x224>

	while (!(Endpoint_IsINReady()));

	USB_Device_EnableDeviceAddress(DeviceAddress);

	USB_DeviceState = (DeviceAddress) ? DEVICE_STATE_Addressed : DEVICE_STATE_Default;
    3470:	83 e0       	ldi	r24, 0x03	; 3
	Endpoint_ClearStatusStage();

	if (USB_Device_ConfigurationNumber)
	  USB_DeviceState = DEVICE_STATE_Configured;
	else
	  USB_DeviceState = (USB_Device_IsAddressSet()) ? DEVICE_STATE_Configured : DEVICE_STATE_Powered;
    3472:	33 cf       	rjmp	.-410    	; 0x32da <USB_Device_ProcessControlRequest+0xd6>
    3474:	84 e0       	ldi	r24, 0x04	; 4
	Endpoint_Write_Control_EStream_LE(DescriptorPointer, DescriptorSize);
	#elif defined(USE_FLASH_DESCRIPTORS)
	Endpoint_Write_Control_PStream_LE(DescriptorPointer, DescriptorSize);
	#else
	if (DescriptorAddressSpace == MEMSPACE_FLASH)
	  Endpoint_Write_Control_PStream_LE(DescriptorPointer, DescriptorSize);
    3476:	bf cf       	rjmp	.-130    	; 0x33f6 <USB_Device_ProcessControlRequest+0x1f2>
    3478:	89 81       	ldd	r24, Y+1	; 0x01
    347a:	9a 81       	ldd	r25, Y+2	; 0x02
    347c:	38 dc       	rcall	.-1936   	; 0x2cee <Endpoint_Write_Control_PStream_LE>
    347e:	57 cf       	rjmp	.-338    	; 0x332e <USB_Device_ProcessControlRequest+0x12a>
			 *  \ingroup Group_EndpointPacketManagement_AVR8
			 */
			static inline void Endpoint_StallTransaction(void) ATTR_ALWAYS_INLINE;
			static inline void Endpoint_StallTransaction(void)
			{
				UECONX |= (1 << STALLRQ);
    3480:	80 91 eb 00 	lds	r24, 0x00EB	; 0x8000eb <__TEXT_REGION_LENGTH__+0x7e00eb>
    3484:	80 62       	ori	r24, 0x20	; 32
    3486:	80 93 eb 00 	sts	0x00EB, r24	; 0x8000eb <__TEXT_REGION_LENGTH__+0x7e00eb>
	else if (DescriptorAddressSpace == MEMSPACE_EEPROM)
	  Endpoint_Write_Control_EStream_LE(DescriptorPointer, DescriptorSize);
    348a:	8f cf       	rjmp	.-226    	; 0x33aa <USB_Device_ProcessControlRequest+0x1a6>
    348c:	89 81       	ldd	r24, Y+1	; 0x01
    348e:	9a 81       	ldd	r25, Y+2	; 0x02
    3490:	95 dc       	rcall	.-1750   	; 0x2dbc <Endpoint_Write_Control_EStream_LE>
    3492:	4d cf       	rjmp	.-358    	; 0x332e <USB_Device_ProcessControlRequest+0x12a>

00003494 <USB_Event_Stub>:
#define  __INCLUDE_FROM_EVENTS_C
#define  __INCLUDE_FROM_USB_DRIVER
#include "Events.h"

void USB_Event_Stub(void)
{
    3494:	08 95       	ret

00003496 <USB_USBTask>:
#if defined(USB_CAN_BE_DEVICE) && !defined(DEVICE_STATE_AS_GPIOR)
volatile uint8_t     USB_DeviceState;
#endif

void USB_USBTask(void)
{
    3496:	cf 93       	push	r28
}

#if defined(USB_CAN_BE_DEVICE)
static void USB_DeviceTask(void)
{
	if (USB_DeviceState == DEVICE_STATE_Unattached)
    3498:	80 91 cf 05 	lds	r24, 0x05CF	; 0x8005cf <USB_DeviceState>
    349c:	88 23       	and	r24, r24
    349e:	91 f0       	breq	.+36     	; 0x34c4 <USB_USBTask+0x2e>
			 */
			static inline uint8_t Endpoint_GetCurrentEndpoint(void) ATTR_WARN_UNUSED_RESULT ATTR_ALWAYS_INLINE;
			static inline uint8_t Endpoint_GetCurrentEndpoint(void)
			{
				#if !defined(CONTROL_ONLY_DEVICE)
					return ((UENUM & ENDPOINT_EPNUM_MASK) | Endpoint_GetEndpointDirection());
    34a0:	c0 91 e9 00 	lds	r28, 0x00E9	; 0x8000e9 <__TEXT_REGION_LENGTH__+0x7e00e9>
    34a4:	cf 70       	andi	r28, 0x0F	; 15
			 *  \return The currently selected endpoint's direction, as a \c ENDPOINT_DIR_* mask.
			 */
			static inline uint8_t Endpoint_GetEndpointDirection(void) ATTR_WARN_UNUSED_RESULT ATTR_ALWAYS_INLINE;
			static inline uint8_t Endpoint_GetEndpointDirection(void)
			{
				return (UECFG0X & (1 << EPDIR)) ? ENDPOINT_DIR_IN : ENDPOINT_DIR_OUT;
    34a6:	80 91 ec 00 	lds	r24, 0x00EC	; 0x8000ec <__TEXT_REGION_LENGTH__+0x7e00ec>
    34aa:	80 fd       	sbrc	r24, 0
    34ac:	0d c0       	rjmp	.+26     	; 0x34c8 <USB_USBTask+0x32>
    34ae:	80 e0       	ldi	r24, 0x00	; 0
			 */
			static inline uint8_t Endpoint_GetCurrentEndpoint(void) ATTR_WARN_UNUSED_RESULT ATTR_ALWAYS_INLINE;
			static inline uint8_t Endpoint_GetCurrentEndpoint(void)
			{
				#if !defined(CONTROL_ONLY_DEVICE)
					return ((UENUM & ENDPOINT_EPNUM_MASK) | Endpoint_GetEndpointDirection());
    34b0:	c8 2b       	or	r28, r24
			 */
			static inline void Endpoint_SelectEndpoint(const uint8_t Address) ATTR_ALWAYS_INLINE;
			static inline void Endpoint_SelectEndpoint(const uint8_t Address)
			{
				#if !defined(CONTROL_ONLY_DEVICE)
					UENUM = (Address & ENDPOINT_EPNUM_MASK);
    34b2:	10 92 e9 00 	sts	0x00E9, r1	; 0x8000e9 <__TEXT_REGION_LENGTH__+0x7e00e9>
			 *  \return Boolean \c true if the selected endpoint has received a SETUP packet, \c false otherwise.
			 */
			static inline bool Endpoint_IsSETUPReceived(void) ATTR_WARN_UNUSED_RESULT ATTR_ALWAYS_INLINE;
			static inline bool Endpoint_IsSETUPReceived(void)
			{
				return ((UEINTX & (1 << RXSTPI)) ? true : false);
    34b6:	80 91 e8 00 	lds	r24, 0x00E8	; 0x8000e8 <__TEXT_REGION_LENGTH__+0x7e00e8>

	uint8_t PrevEndpoint = Endpoint_GetCurrentEndpoint();

	Endpoint_SelectEndpoint(ENDPOINT_CONTROLEP);

	if (Endpoint_IsSETUPReceived())
    34ba:	83 fd       	sbrc	r24, 3
    34bc:	0d c0       	rjmp	.+26     	; 0x34d8 <USB_USBTask+0x42>
			 */
			static inline void Endpoint_SelectEndpoint(const uint8_t Address) ATTR_ALWAYS_INLINE;
			static inline void Endpoint_SelectEndpoint(const uint8_t Address)
			{
				#if !defined(CONTROL_ONLY_DEVICE)
					UENUM = (Address & ENDPOINT_EPNUM_MASK);
    34be:	cf 70       	andi	r28, 0x0F	; 15
    34c0:	c0 93 e9 00 	sts	0x00E9, r28	; 0x8000e9 <__TEXT_REGION_LENGTH__+0x7e00e9>
	#elif defined(USB_CAN_BE_HOST)
		USB_HostTask();
	#elif defined(USB_CAN_BE_DEVICE)
		USB_DeviceTask();
	#endif
}
    34c4:	cf 91       	pop	r28
    34c6:	08 95       	ret
			 *  \return The currently selected endpoint's direction, as a \c ENDPOINT_DIR_* mask.
			 */
			static inline uint8_t Endpoint_GetEndpointDirection(void) ATTR_WARN_UNUSED_RESULT ATTR_ALWAYS_INLINE;
			static inline uint8_t Endpoint_GetEndpointDirection(void)
			{
				return (UECFG0X & (1 << EPDIR)) ? ENDPOINT_DIR_IN : ENDPOINT_DIR_OUT;
    34c8:	80 e8       	ldi	r24, 0x80	; 128
			 */
			static inline uint8_t Endpoint_GetCurrentEndpoint(void) ATTR_WARN_UNUSED_RESULT ATTR_ALWAYS_INLINE;
			static inline uint8_t Endpoint_GetCurrentEndpoint(void)
			{
				#if !defined(CONTROL_ONLY_DEVICE)
					return ((UENUM & ENDPOINT_EPNUM_MASK) | Endpoint_GetEndpointDirection());
    34ca:	c8 2b       	or	r28, r24
			 */
			static inline void Endpoint_SelectEndpoint(const uint8_t Address) ATTR_ALWAYS_INLINE;
			static inline void Endpoint_SelectEndpoint(const uint8_t Address)
			{
				#if !defined(CONTROL_ONLY_DEVICE)
					UENUM = (Address & ENDPOINT_EPNUM_MASK);
    34cc:	10 92 e9 00 	sts	0x00E9, r1	; 0x8000e9 <__TEXT_REGION_LENGTH__+0x7e00e9>
			 *  \return Boolean \c true if the selected endpoint has received a SETUP packet, \c false otherwise.
			 */
			static inline bool Endpoint_IsSETUPReceived(void) ATTR_WARN_UNUSED_RESULT ATTR_ALWAYS_INLINE;
			static inline bool Endpoint_IsSETUPReceived(void)
			{
				return ((UEINTX & (1 << RXSTPI)) ? true : false);
    34d0:	80 91 e8 00 	lds	r24, 0x00E8	; 0x8000e8 <__TEXT_REGION_LENGTH__+0x7e00e8>

	uint8_t PrevEndpoint = Endpoint_GetCurrentEndpoint();

	Endpoint_SelectEndpoint(ENDPOINT_CONTROLEP);

	if (Endpoint_IsSETUPReceived())
    34d4:	83 ff       	sbrs	r24, 3
    34d6:	f3 cf       	rjmp	.-26     	; 0x34be <USB_USBTask+0x28>
	  USB_Device_ProcessControlRequest();
    34d8:	95 de       	rcall	.-726    	; 0x3204 <USB_Device_ProcessControlRequest>
    34da:	f1 cf       	rjmp	.-30     	; 0x34be <USB_USBTask+0x28>

000034dc <memcpy>:
    34dc:	fb 01       	movw	r30, r22
    34de:	dc 01       	movw	r26, r24
    34e0:	02 c0       	rjmp	.+4      	; 0x34e6 <memcpy+0xa>
    34e2:	01 90       	ld	r0, Z+
    34e4:	0d 92       	st	X+, r0
    34e6:	41 50       	subi	r20, 0x01	; 1
    34e8:	50 40       	sbci	r21, 0x00	; 0
    34ea:	d8 f7       	brcc	.-10     	; 0x34e2 <memcpy+0x6>
    34ec:	08 95       	ret

000034ee <eeprom_read_byte>:
    34ee:	f9 99       	sbic	0x1f, 1	; 31
    34f0:	fe cf       	rjmp	.-4      	; 0x34ee <eeprom_read_byte>
    34f2:	92 bd       	out	0x22, r25	; 34
    34f4:	81 bd       	out	0x21, r24	; 33
    34f6:	f8 9a       	sbi	0x1f, 0	; 31
    34f8:	99 27       	eor	r25, r25
    34fa:	80 b5       	in	r24, 0x20	; 32
    34fc:	08 95       	ret

000034fe <eeprom_write_byte>:
    34fe:	26 2f       	mov	r18, r22

00003500 <eeprom_write_r18>:
    3500:	f9 99       	sbic	0x1f, 1	; 31
    3502:	fe cf       	rjmp	.-4      	; 0x3500 <eeprom_write_r18>
    3504:	1f ba       	out	0x1f, r1	; 31
    3506:	92 bd       	out	0x22, r25	; 34
    3508:	81 bd       	out	0x21, r24	; 33
    350a:	20 bd       	out	0x20, r18	; 32
    350c:	0f b6       	in	r0, 0x3f	; 63
    350e:	f8 94       	cli
    3510:	fa 9a       	sbi	0x1f, 2	; 31
    3512:	f9 9a       	sbi	0x1f, 1	; 31
    3514:	0f be       	out	0x3f, r0	; 63
    3516:	01 96       	adiw	r24, 0x01	; 1
    3518:	08 95       	ret

0000351a <_exit>:
    351a:	f8 94       	cli

0000351c <__stop_program>:
    351c:	ff cf       	rjmp	.-2      	; 0x351c <__stop_program>
