
TestAndMeasurement.elf:     file format elf32-avr

Sections:
Idx Name          Size      VMA       LMA       File off  Algn
  0 .data         0000001c  00800100  000022f6  0000238a  2**0
                  CONTENTS, ALLOC, LOAD, DATA
  1 .text         000022f6  00000000  00000000  00000094  2**1
                  CONTENTS, ALLOC, LOAD, READONLY, CODE
  2 .bss          000000d1  0080011c  0080011c  000023a6  2**0
                  ALLOC
  3 .comment      00000030  00000000  00000000  000023a6  2**0
                  CONTENTS, READONLY
  4 .note.gnu.avr.deviceinfo 00000040  00000000  00000000  000023d8  2**2
                  CONTENTS, READONLY
  5 .debug_aranges 00000390  00000000  00000000  00002418  2**0
                  CONTENTS, READONLY, DEBUGGING
  6 .debug_info   000079ef  00000000  00000000  000027a8  2**0
                  CONTENTS, READONLY, DEBUGGING
  7 .debug_abbrev 00001f65  00000000  00000000  0000a197  2**0
                  CONTENTS, READONLY, DEBUGGING
  8 .debug_line   000044ce  00000000  00000000  0000c0fc  2**0
                  CONTENTS, READONLY, DEBUGGING
  9 .debug_frame  00000b64  00000000  00000000  000105cc  2**2
                  CONTENTS, READONLY, DEBUGGING
 10 .debug_str    00002604  00000000  00000000  00011130  2**0
                  CONTENTS, READONLY, DEBUGGING
 11 .debug_loc    00005032  00000000  00000000  00013734  2**0
                  CONTENTS, READONLY, DEBUGGING
 12 .debug_ranges 00000490  00000000  00000000  00018766  2**0
                  CONTENTS, READONLY, DEBUGGING

Disassembly of section .text:

00000000 <__vectors>:
       0:	89 c0       	rjmp	.+274    	; 0x114 <__ctors_end>
       2:	00 00       	nop
       4:	a4 c0       	rjmp	.+328    	; 0x14e <__bad_interrupt>
       6:	00 00       	nop
       8:	a2 c0       	rjmp	.+324    	; 0x14e <__bad_interrupt>
       a:	00 00       	nop
       c:	a0 c0       	rjmp	.+320    	; 0x14e <__bad_interrupt>
       e:	00 00       	nop
      10:	9e c0       	rjmp	.+316    	; 0x14e <__bad_interrupt>
      12:	00 00       	nop
      14:	9c c0       	rjmp	.+312    	; 0x14e <__bad_interrupt>
      16:	00 00       	nop
      18:	9a c0       	rjmp	.+308    	; 0x14e <__bad_interrupt>
      1a:	00 00       	nop
      1c:	98 c0       	rjmp	.+304    	; 0x14e <__bad_interrupt>
      1e:	00 00       	nop
      20:	96 c0       	rjmp	.+300    	; 0x14e <__bad_interrupt>
      22:	00 00       	nop
      24:	94 c0       	rjmp	.+296    	; 0x14e <__bad_interrupt>
      26:	00 00       	nop
      28:	0c 94 ec 0e 	jmp	0x1dd8	; 0x1dd8 <__vector_10>
      2c:	0c 94 b9 0f 	jmp	0x1f72	; 0x1f72 <__vector_11>
      30:	8e c0       	rjmp	.+284    	; 0x14e <__bad_interrupt>
      32:	00 00       	nop
      34:	8c c0       	rjmp	.+280    	; 0x14e <__bad_interrupt>
      36:	00 00       	nop
      38:	8a c0       	rjmp	.+276    	; 0x14e <__bad_interrupt>
      3a:	00 00       	nop
      3c:	88 c0       	rjmp	.+272    	; 0x14e <__bad_interrupt>
      3e:	00 00       	nop
      40:	86 c0       	rjmp	.+268    	; 0x14e <__bad_interrupt>
      42:	00 00       	nop
      44:	84 c0       	rjmp	.+264    	; 0x14e <__bad_interrupt>
      46:	00 00       	nop
      48:	82 c0       	rjmp	.+260    	; 0x14e <__bad_interrupt>
      4a:	00 00       	nop
      4c:	80 c0       	rjmp	.+256    	; 0x14e <__bad_interrupt>
      4e:	00 00       	nop
      50:	7e c0       	rjmp	.+252    	; 0x14e <__bad_interrupt>
      52:	00 00       	nop
      54:	7c c0       	rjmp	.+248    	; 0x14e <__bad_interrupt>
      56:	00 00       	nop
      58:	7a c0       	rjmp	.+244    	; 0x14e <__bad_interrupt>
      5a:	00 00       	nop
      5c:	0c 94 cd 09 	jmp	0x139a	; 0x139a <__vector_23>
      60:	76 c0       	rjmp	.+236    	; 0x14e <__bad_interrupt>
      62:	00 00       	nop
      64:	74 c0       	rjmp	.+232    	; 0x14e <__bad_interrupt>
      66:	00 00       	nop
      68:	72 c0       	rjmp	.+228    	; 0x14e <__bad_interrupt>
      6a:	00 00       	nop
      6c:	70 c0       	rjmp	.+224    	; 0x14e <__bad_interrupt>
      6e:	00 00       	nop
      70:	6e c0       	rjmp	.+220    	; 0x14e <__bad_interrupt>
      72:	00 00       	nop
      74:	6c c0       	rjmp	.+216    	; 0x14e <__bad_interrupt>
      76:	00 00       	nop
      78:	6a c0       	rjmp	.+212    	; 0x14e <__bad_interrupt>
      7a:	00 00       	nop
      7c:	68 c0       	rjmp	.+208    	; 0x14e <__bad_interrupt>
      7e:	00 00       	nop
      80:	66 c0       	rjmp	.+204    	; 0x14e <__bad_interrupt>
      82:	00 00       	nop
      84:	64 c0       	rjmp	.+200    	; 0x14e <__bad_interrupt>
      86:	00 00       	nop
      88:	62 c0       	rjmp	.+196    	; 0x14e <__bad_interrupt>
      8a:	00 00       	nop
      8c:	60 c0       	rjmp	.+192    	; 0x14e <__bad_interrupt>
      8e:	00 00       	nop
      90:	5e c0       	rjmp	.+188    	; 0x14e <__bad_interrupt>
      92:	00 00       	nop
      94:	5c c0       	rjmp	.+184    	; 0x14e <__bad_interrupt>
      96:	00 00       	nop
      98:	5a c0       	rjmp	.+180    	; 0x14e <__bad_interrupt>
      9a:	00 00       	nop
      9c:	58 c0       	rjmp	.+176    	; 0x14e <__bad_interrupt>
      9e:	00 00       	nop
      a0:	56 c0       	rjmp	.+172    	; 0x14e <__bad_interrupt>
      a2:	00 00       	nop
      a4:	54 c0       	rjmp	.+168    	; 0x14e <__bad_interrupt>
      a6:	00 00       	nop
      a8:	52 c0       	rjmp	.+164    	; 0x14e <__bad_interrupt>
      aa:	00 00       	nop

000000ac <ProductString>:
      ac:	10 03 47 00 70 00 69 00 62 00 55 00 73 00 62 00     ..G.p.i.b.U.s.b.
      bc:	00 00                                               ..

000000be <ManufacturerString>:
      be:	16 03 58 00 79 00 70 00 68 00 72 00 6f 00 4c 00     ..X.y.p.h.r.o.L.
      ce:	61 00 62 00 73 00 00 00                             a.b.s...

000000d6 <LanguageString>:
      d6:	04 03 09 04                                         ....

000000da <ConfigurationDescriptor>:
      da:	09 02 27 00 01 01 00 c0 32 09 04 00 00 02 fe 03     ..'.....2.......
      ea:	01 00 07 05 03 02 40 00 05 07 05 82 02 40 00 05     ......@......@..
      fa:	00 00 00 00 00 00 00                                .......

00000101 <DeviceDescriptor>:
     101:	12 01 10 01 00 00 00 08 eb 03 65 20 01 00 01 02     ..........e ....
     111:	03 01 00                                            ...

00000114 <__ctors_end>:
     114:	11 24       	eor	r1, r1
     116:	1f be       	out	0x3f, r1	; 63
     118:	cf ef       	ldi	r28, 0xFF	; 255
     11a:	da e0       	ldi	r29, 0x0A	; 10
     11c:	de bf       	out	0x3e, r29	; 62
     11e:	cd bf       	out	0x3d, r28	; 61

00000120 <__do_copy_data>:
     120:	11 e0       	ldi	r17, 0x01	; 1
     122:	a0 e0       	ldi	r26, 0x00	; 0
     124:	b1 e0       	ldi	r27, 0x01	; 1
     126:	e6 ef       	ldi	r30, 0xF6	; 246
     128:	f2 e2       	ldi	r31, 0x22	; 34
     12a:	02 c0       	rjmp	.+4      	; 0x130 <__do_copy_data+0x10>
     12c:	05 90       	lpm	r0, Z+
     12e:	0d 92       	st	X+, r0
     130:	ac 31       	cpi	r26, 0x1C	; 28
     132:	b1 07       	cpc	r27, r17
     134:	d9 f7       	brne	.-10     	; 0x12c <__do_copy_data+0xc>

00000136 <__do_clear_bss>:
     136:	21 e0       	ldi	r18, 0x01	; 1
     138:	ac e1       	ldi	r26, 0x1C	; 28
     13a:	b1 e0       	ldi	r27, 0x01	; 1
     13c:	01 c0       	rjmp	.+2      	; 0x140 <.do_clear_bss_start>

0000013e <.do_clear_bss_loop>:
     13e:	1d 92       	st	X+, r1

00000140 <.do_clear_bss_start>:
     140:	ad 3e       	cpi	r26, 0xED	; 237
     142:	b2 07       	cpc	r27, r18
     144:	e1 f7       	brne	.-8      	; 0x13e <.do_clear_bss_loop>
     146:	0e 94 ac 08 	call	0x1158	; 0x1158 <main>
     14a:	0c 94 79 11 	jmp	0x22f2	; 0x22f2 <_exit>

0000014e <__bad_interrupt>:
     14e:	58 cf       	rjmp	.-336    	; 0x0 <__vectors>

00000150 <TMC_SetInternalSerial>:

uint32_t timeout_val;

void timeout_start(uint32_t timeout)
{
	timeout_val = timeout;
     150:	4f e5       	ldi	r20, 0x5F	; 95
     152:	50 e0       	ldi	r21, 0x00	; 0
     154:	af b7       	in	r26, 0x3f	; 63
     156:	f8 94       	cli
     158:	93 e0       	ldi	r25, 0x03	; 3
     15a:	90 93 7b 01 	sts	0x017B, r25	; 0x80017b <tmc_serial_string+0x1>
     15e:	88 23       	and	r24, r24
     160:	b1 f1       	breq	.+108    	; 0x1ce <TMC_SetInternalSerial+0x7e>
     162:	87 e4       	ldi	r24, 0x47	; 71
     164:	90 e0       	ldi	r25, 0x00	; 0
     166:	90 93 7d 01 	sts	0x017D, r25	; 0x80017d <tmc_serial_string+0x3>
     16a:	80 93 7c 01 	sts	0x017C, r24	; 0x80017c <tmc_serial_string+0x2>
     16e:	80 e5       	ldi	r24, 0x50	; 80
     170:	90 e0       	ldi	r25, 0x00	; 0
     172:	90 93 7f 01 	sts	0x017F, r25	; 0x80017f <tmc_serial_string+0x5>
     176:	80 93 7e 01 	sts	0x017E, r24	; 0x80017e <tmc_serial_string+0x4>
     17a:	89 e4       	ldi	r24, 0x49	; 73
     17c:	90 e0       	ldi	r25, 0x00	; 0
     17e:	90 93 81 01 	sts	0x0181, r25	; 0x800181 <tmc_serial_string+0x7>
     182:	80 93 80 01 	sts	0x0180, r24	; 0x800180 <tmc_serial_string+0x6>
     186:	82 e4       	ldi	r24, 0x42	; 66
     188:	90 e0       	ldi	r25, 0x00	; 0
     18a:	90 93 83 01 	sts	0x0183, r25	; 0x800183 <tmc_serial_string+0x9>
     18e:	80 93 82 01 	sts	0x0182, r24	; 0x800182 <tmc_serial_string+0x8>
     192:	50 93 85 01 	sts	0x0185, r21	; 0x800185 <tmc_serial_string+0xb>
     196:	40 93 84 01 	sts	0x0184, r20	; 0x800184 <tmc_serial_string+0xa>
     19a:	80 91 02 01 	lds	r24, 0x0102	; 0x800102 <gpib_addr>
     19e:	6a e0       	ldi	r22, 0x0A	; 10
     1a0:	0e 94 4e 11 	call	0x229c	; 0x229c <__udivmodqi4>
     1a4:	28 2f       	mov	r18, r24
     1a6:	30 e0       	ldi	r19, 0x00	; 0
     1a8:	20 5d       	subi	r18, 0xD0	; 208
     1aa:	3f 4f       	sbci	r19, 0xFF	; 255
     1ac:	30 93 87 01 	sts	0x0187, r19	; 0x800187 <tmc_serial_string+0xd>
     1b0:	20 93 86 01 	sts	0x0186, r18	; 0x800186 <tmc_serial_string+0xc>
     1b4:	89 2f       	mov	r24, r25
     1b6:	90 e0       	ldi	r25, 0x00	; 0
     1b8:	c0 96       	adiw	r24, 0x30	; 48
     1ba:	90 93 89 01 	sts	0x0189, r25	; 0x800189 <tmc_serial_string+0xf>
     1be:	80 93 88 01 	sts	0x0188, r24	; 0x800188 <tmc_serial_string+0xe>
     1c2:	50 93 8b 01 	sts	0x018B, r21	; 0x80018b <tmc_serial_string+0x11>
     1c6:	40 93 8a 01 	sts	0x018A, r20	; 0x80018a <tmc_serial_string+0x10>
     1ca:	88 e0       	ldi	r24, 0x08	; 8
     1cc:	01 c0       	rjmp	.+2      	; 0x1d0 <TMC_SetInternalSerial+0x80>
     1ce:	80 e0       	ldi	r24, 0x00	; 0
     1d0:	90 e0       	ldi	r25, 0x00	; 0
     1d2:	6e e0       	ldi	r22, 0x0E	; 14
     1d4:	71 e2       	ldi	r23, 0x21	; 33
     1d6:	28 2f       	mov	r18, r24
     1d8:	29 0f       	add	r18, r25
     1da:	e6 2f       	mov	r30, r22
     1dc:	f0 e0       	ldi	r31, 0x00	; 0
     1de:	70 93 57 00 	sts	0x0057, r23	; 0x800057 <__TEXT_REGION_LENGTH__+0x7e0057>
     1e2:	e4 91       	lpm	r30, Z
     1e4:	90 ff       	sbrs	r25, 0
     1e6:	03 c0       	rjmp	.+6      	; 0x1ee <TMC_SetInternalSerial+0x9e>
     1e8:	e2 95       	swap	r30
     1ea:	ef 70       	andi	r30, 0x0F	; 15
     1ec:	6f 5f       	subi	r22, 0xFF	; 255
     1ee:	ef 70       	andi	r30, 0x0F	; 15
     1f0:	30 e0       	ldi	r19, 0x00	; 0
     1f2:	4e 2f       	mov	r20, r30
     1f4:	50 e0       	ldi	r21, 0x00	; 0
     1f6:	ea 30       	cpi	r30, 0x0A	; 10
     1f8:	18 f0       	brcs	.+6      	; 0x200 <TMC_SetInternalSerial+0xb0>
     1fa:	49 5c       	subi	r20, 0xC9	; 201
     1fc:	5f 4f       	sbci	r21, 0xFF	; 255
     1fe:	02 c0       	rjmp	.+4      	; 0x204 <TMC_SetInternalSerial+0xb4>
     200:	40 5d       	subi	r20, 0xD0	; 208
     202:	5f 4f       	sbci	r21, 0xFF	; 255
     204:	f9 01       	movw	r30, r18
     206:	ee 0f       	add	r30, r30
     208:	ff 1f       	adc	r31, r31
     20a:	e4 58       	subi	r30, 0x84	; 132
     20c:	fe 4f       	sbci	r31, 0xFE	; 254
     20e:	51 83       	std	Z+1, r21	; 0x01
     210:	40 83       	st	Z, r20
     212:	9f 5f       	subi	r25, 0xFF	; 255
     214:	94 31       	cpi	r25, 0x14	; 20
     216:	f9 f6       	brne	.-66     	; 0x1d6 <TMC_SetInternalSerial+0x86>
     218:	8b 5e       	subi	r24, 0xEB	; 235
     21a:	88 0f       	add	r24, r24
     21c:	80 93 7a 01 	sts	0x017A, r24	; 0x80017a <tmc_serial_string>
     220:	af bf       	out	0x3f, r26	; 63
     222:	08 95       	ret

00000224 <charToval>:
     224:	98 2f       	mov	r25, r24
     226:	80 ed       	ldi	r24, 0xD0	; 208
     228:	89 0f       	add	r24, r25
     22a:	8a 30       	cpi	r24, 0x0A	; 10
     22c:	08 f0       	brcs	.+2      	; 0x230 <charToval+0xc>
     22e:	80 e0       	ldi	r24, 0x00	; 0
     230:	2f e9       	ldi	r18, 0x9F	; 159
     232:	29 0f       	add	r18, r25
     234:	26 30       	cpi	r18, 0x06	; 6
     236:	10 f4       	brcc	.+4      	; 0x23c <charToval+0x18>
     238:	89 ea       	ldi	r24, 0xA9	; 169
     23a:	89 0f       	add	r24, r25
     23c:	2f eb       	ldi	r18, 0xBF	; 191
     23e:	29 0f       	add	r18, r25
     240:	26 30       	cpi	r18, 0x06	; 6
     242:	10 f4       	brcc	.+4      	; 0x248 <charToval+0x24>
     244:	89 ec       	ldi	r24, 0xC9	; 201
     246:	89 0f       	add	r24, r25
     248:	08 95       	ret

0000024a <is_timedout>:
     24a:	85 e3       	ldi	r24, 0x35	; 53
     24c:	8a 95       	dec	r24
     24e:	f1 f7       	brne	.-4      	; 0x24c <is_timedout+0x2>
     250:	00 00       	nop
     252:	80 91 75 01 	lds	r24, 0x0175	; 0x800175 <timeout_val>
     256:	90 91 76 01 	lds	r25, 0x0176	; 0x800176 <timeout_val+0x1>
     25a:	a0 91 77 01 	lds	r26, 0x0177	; 0x800177 <timeout_val+0x2>
     25e:	b0 91 78 01 	lds	r27, 0x0178	; 0x800178 <timeout_val+0x3>
     262:	00 97       	sbiw	r24, 0x00	; 0
     264:	a1 05       	cpc	r26, r1
     266:	b1 05       	cpc	r27, r1
     268:	69 f0       	breq	.+26     	; 0x284 <is_timedout+0x3a>
     26a:	01 97       	sbiw	r24, 0x01	; 1
     26c:	a1 09       	sbc	r26, r1
     26e:	b1 09       	sbc	r27, r1
     270:	80 93 75 01 	sts	0x0175, r24	; 0x800175 <timeout_val>
     274:	90 93 76 01 	sts	0x0176, r25	; 0x800176 <timeout_val+0x1>
     278:	a0 93 77 01 	sts	0x0177, r26	; 0x800177 <timeout_val+0x2>
     27c:	b0 93 78 01 	sts	0x0178, r27	; 0x800178 <timeout_val+0x3>
     280:	80 e0       	ldi	r24, 0x00	; 0
     282:	08 95       	ret
     284:	81 e0       	ldi	r24, 0x01	; 1
     286:	08 95       	ret

00000288 <tmc_gpib_write_timedout>:
     288:	0e 94 34 11 	call	0x2268	; 0x2268 <USB_USBTask>
     28c:	90 91 6a 01 	lds	r25, 0x016A	; 0x80016a <IsTMCBulkOUTReset>
     290:	80 91 6b 01 	lds	r24, 0x016B	; 0x80016b <IsTMCBulkINReset>
     294:	89 2b       	or	r24, r25
     296:	08 95       	ret

00000298 <tmc_gpib_read_timedout>:
     298:	0e 94 34 11 	call	0x2268	; 0x2268 <USB_USBTask>
     29c:	90 91 6b 01 	lds	r25, 0x016B	; 0x80016b <IsTMCBulkINReset>
     2a0:	80 91 6a 01 	lds	r24, 0x016A	; 0x80016a <IsTMCBulkOUTReset>
     2a4:	89 2b       	or	r24, r25
     2a6:	08 95       	ret

000002a8 <Jump_To_Bootloader>:
     2a8:	0e 94 77 0e 	call	0x1cee	; 0x1cee <USB_Disable>
     2ac:	f8 94       	cli
     2ae:	2f ef       	ldi	r18, 0xFF	; 255
     2b0:	87 ea       	ldi	r24, 0xA7	; 167
     2b2:	91 e6       	ldi	r25, 0x61	; 97
     2b4:	21 50       	subi	r18, 0x01	; 1
     2b6:	80 40       	sbci	r24, 0x00	; 0
     2b8:	90 40       	sbci	r25, 0x00	; 0
     2ba:	e1 f7       	brne	.-8      	; 0x2b4 <Jump_To_Bootloader+0xc>
     2bc:	00 c0       	rjmp	.+0      	; 0x2be <Jump_To_Bootloader+0x16>
     2be:	00 00       	nop
     2c0:	9c e0       	ldi	r25, 0x0C	; 12
     2c2:	88 e1       	ldi	r24, 0x18	; 24
     2c4:	0f b6       	in	r0, 0x3f	; 63
     2c6:	f8 94       	cli
     2c8:	a8 95       	wdr
     2ca:	80 93 60 00 	sts	0x0060, r24	; 0x800060 <__TEXT_REGION_LENGTH__+0x7e0060>
     2ce:	0f be       	out	0x3f, r0	; 63
     2d0:	90 93 60 00 	sts	0x0060, r25	; 0x800060 <__TEXT_REGION_LENGTH__+0x7e0060>
     2d4:	ef ef       	ldi	r30, 0xFF	; 255
     2d6:	f9 e6       	ldi	r31, 0x69	; 105
     2d8:	28 e1       	ldi	r18, 0x18	; 24
     2da:	e1 50       	subi	r30, 0x01	; 1
     2dc:	f0 40       	sbci	r31, 0x00	; 0
     2de:	20 40       	sbci	r18, 0x00	; 0
     2e0:	e1 f7       	brne	.-8      	; 0x2da <Jump_To_Bootloader+0x32>
     2e2:	00 c0       	rjmp	.+0      	; 0x2e4 <Jump_To_Bootloader+0x3c>
     2e4:	00 00       	nop
     2e6:	e0 e0       	ldi	r30, 0x00	; 0
     2e8:	f0 e7       	ldi	r31, 0x70	; 112
     2ea:	09 95       	icall
     2ec:	ff cf       	rjmp	.-2      	; 0x2ec <Jump_To_Bootloader+0x44>

000002ee <findGpibdevice>:
	bool devicepresent;
	
	//gpib_interface_clear();
	
	devicepresent = false;
	addr = gpib_search();
     2ee:	0e 94 c3 0b 	call	0x1786	; 0x1786 <gpib_search>
	devicepresent = (addr < 255);
     2f2:	91 e0       	ldi	r25, 0x01	; 1
     2f4:	8f 3f       	cpi	r24, 0xFF	; 255
     2f6:	11 f4       	brne	.+4      	; 0x2fc <findGpibdevice+0xe>
     2f8:	90 e0       	ldi	r25, 0x00	; 0
	if (addr >= 255)	/* fallback to GPIB address 1, if no device was found */
		addr = 1;
     2fa:	81 e0       	ldi	r24, 0x01	; 1
	gpib_addr = addr; /* set global GPIB address to found address*/
     2fc:	80 93 02 01 	sts	0x0102, r24	; 0x800102 <gpib_addr>
	
	return devicepresent;
}
     300:	89 2f       	mov	r24, r25
     302:	08 95       	ret

00000304 <identifyGpibDevice>:

/* returns TRUE, if a string was received over GPIB */
bool identifyGpibDevice(void)
{
     304:	ff 92       	push	r15
     306:	0f 93       	push	r16
     308:	1f 93       	push	r17
     30a:	cf 93       	push	r28
     30c:	df 93       	push	r29
     30e:	00 d0       	rcall	.+0      	; 0x310 <identifyGpibDevice+0xc>
     310:	cd b7       	in	r28, 0x3d	; 61
     312:	de b7       	in	r29, 0x3e	; 62
	
	gotStringViaGPIB = true;
	
	hascomma = false; /* does the response contain a , character? */

	tmc_serial_string.Header.Size = 0;
     314:	10 92 7a 01 	sts	0x017A, r1	; 0x80017a <tmc_serial_string>

uint32_t timeout_val;

void timeout_start(uint32_t timeout)
{
	timeout_val = timeout;
     318:	80 ea       	ldi	r24, 0xA0	; 160
     31a:	96 e8       	ldi	r25, 0x86	; 134
     31c:	a1 e0       	ldi	r26, 0x01	; 1
     31e:	b0 e0       	ldi	r27, 0x00	; 0
     320:	80 93 75 01 	sts	0x0175, r24	; 0x800175 <timeout_val>
     324:	90 93 76 01 	sts	0x0176, r25	; 0x800176 <timeout_val+0x1>
     328:	a0 93 77 01 	sts	0x0177, r26	; 0x800177 <timeout_val+0x2>
     32c:	b0 93 78 01 	sts	0x0178, r27	; 0x800178 <timeout_val+0x3>
	hascomma = false; /* does the response contain a , character? */

	tmc_serial_string.Header.Size = 0;

	timeout_start(100000); /* 1s timeout*/
	gpib_make_listener(gpib_addr, is_timedout);
     330:	65 e2       	ldi	r22, 0x25	; 37
     332:	71 e0       	ldi	r23, 0x01	; 1
     334:	80 91 02 01 	lds	r24, 0x0102	; 0x800102 <gpib_addr>
     338:	0e 94 93 0b 	call	0x1726	; 0x1726 <gpib_make_listener>
	if (timeout_val != 0) gpib_writedat('*', false, is_timedout);
     33c:	80 91 75 01 	lds	r24, 0x0175	; 0x800175 <timeout_val>
     340:	90 91 76 01 	lds	r25, 0x0176	; 0x800176 <timeout_val+0x1>
     344:	a0 91 77 01 	lds	r26, 0x0177	; 0x800177 <timeout_val+0x2>
     348:	b0 91 78 01 	lds	r27, 0x0178	; 0x800178 <timeout_val+0x3>
     34c:	89 2b       	or	r24, r25
     34e:	8a 2b       	or	r24, r26
     350:	8b 2b       	or	r24, r27
     352:	31 f0       	breq	.+12     	; 0x360 <identifyGpibDevice+0x5c>
     354:	45 e2       	ldi	r20, 0x25	; 37
     356:	51 e0       	ldi	r21, 0x01	; 1
     358:	60 e0       	ldi	r22, 0x00	; 0
     35a:	8a e2       	ldi	r24, 0x2A	; 42
     35c:	0e 94 b3 0b 	call	0x1766	; 0x1766 <gpib_writedat>
	if (timeout_val != 0) gpib_writedat('I', false, is_timedout);
     360:	80 91 75 01 	lds	r24, 0x0175	; 0x800175 <timeout_val>
     364:	90 91 76 01 	lds	r25, 0x0176	; 0x800176 <timeout_val+0x1>
     368:	a0 91 77 01 	lds	r26, 0x0177	; 0x800177 <timeout_val+0x2>
     36c:	b0 91 78 01 	lds	r27, 0x0178	; 0x800178 <timeout_val+0x3>
     370:	89 2b       	or	r24, r25
     372:	8a 2b       	or	r24, r26
     374:	8b 2b       	or	r24, r27
     376:	31 f0       	breq	.+12     	; 0x384 <identifyGpibDevice+0x80>
     378:	45 e2       	ldi	r20, 0x25	; 37
     37a:	51 e0       	ldi	r21, 0x01	; 1
     37c:	60 e0       	ldi	r22, 0x00	; 0
     37e:	89 e4       	ldi	r24, 0x49	; 73
     380:	0e 94 b3 0b 	call	0x1766	; 0x1766 <gpib_writedat>
	if (timeout_val != 0) gpib_writedat('D', false, is_timedout);
     384:	80 91 75 01 	lds	r24, 0x0175	; 0x800175 <timeout_val>
     388:	90 91 76 01 	lds	r25, 0x0176	; 0x800176 <timeout_val+0x1>
     38c:	a0 91 77 01 	lds	r26, 0x0177	; 0x800177 <timeout_val+0x2>
     390:	b0 91 78 01 	lds	r27, 0x0178	; 0x800178 <timeout_val+0x3>
     394:	89 2b       	or	r24, r25
     396:	8a 2b       	or	r24, r26
     398:	8b 2b       	or	r24, r27
     39a:	31 f0       	breq	.+12     	; 0x3a8 <identifyGpibDevice+0xa4>
     39c:	45 e2       	ldi	r20, 0x25	; 37
     39e:	51 e0       	ldi	r21, 0x01	; 1
     3a0:	60 e0       	ldi	r22, 0x00	; 0
     3a2:	84 e4       	ldi	r24, 0x44	; 68
     3a4:	0e 94 b3 0b 	call	0x1766	; 0x1766 <gpib_writedat>
	if (timeout_val != 0) gpib_writedat('N', false, is_timedout);
     3a8:	80 91 75 01 	lds	r24, 0x0175	; 0x800175 <timeout_val>
     3ac:	90 91 76 01 	lds	r25, 0x0176	; 0x800176 <timeout_val+0x1>
     3b0:	a0 91 77 01 	lds	r26, 0x0177	; 0x800177 <timeout_val+0x2>
     3b4:	b0 91 78 01 	lds	r27, 0x0178	; 0x800178 <timeout_val+0x3>
     3b8:	89 2b       	or	r24, r25
     3ba:	8a 2b       	or	r24, r26
     3bc:	8b 2b       	or	r24, r27
     3be:	31 f0       	breq	.+12     	; 0x3cc <identifyGpibDevice+0xc8>
     3c0:	45 e2       	ldi	r20, 0x25	; 37
     3c2:	51 e0       	ldi	r21, 0x01	; 1
     3c4:	60 e0       	ldi	r22, 0x00	; 0
     3c6:	8e e4       	ldi	r24, 0x4E	; 78
     3c8:	0e 94 b3 0b 	call	0x1766	; 0x1766 <gpib_writedat>
	if (timeout_val != 0) gpib_writedat('?', false, is_timedout);
     3cc:	80 91 75 01 	lds	r24, 0x0175	; 0x800175 <timeout_val>
     3d0:	90 91 76 01 	lds	r25, 0x0176	; 0x800176 <timeout_val+0x1>
     3d4:	a0 91 77 01 	lds	r26, 0x0177	; 0x800177 <timeout_val+0x2>
     3d8:	b0 91 78 01 	lds	r27, 0x0178	; 0x800178 <timeout_val+0x3>
     3dc:	89 2b       	or	r24, r25
     3de:	8a 2b       	or	r24, r26
     3e0:	8b 2b       	or	r24, r27
     3e2:	31 f0       	breq	.+12     	; 0x3f0 <identifyGpibDevice+0xec>
     3e4:	45 e2       	ldi	r20, 0x25	; 37
     3e6:	51 e0       	ldi	r21, 0x01	; 1
     3e8:	60 e0       	ldi	r22, 0x00	; 0
     3ea:	8f e3       	ldi	r24, 0x3F	; 63
     3ec:	0e 94 b3 0b 	call	0x1766	; 0x1766 <gpib_writedat>
	if (timeout_val != 0) gpib_writedat('\n', true, is_timedout);
     3f0:	80 91 75 01 	lds	r24, 0x0175	; 0x800175 <timeout_val>
     3f4:	90 91 76 01 	lds	r25, 0x0176	; 0x800176 <timeout_val+0x1>
     3f8:	a0 91 77 01 	lds	r26, 0x0177	; 0x800177 <timeout_val+0x2>
     3fc:	b0 91 78 01 	lds	r27, 0x0178	; 0x800178 <timeout_val+0x3>
     400:	89 2b       	or	r24, r25
     402:	8a 2b       	or	r24, r26
     404:	8b 2b       	or	r24, r27
     406:	31 f0       	breq	.+12     	; 0x414 <__LOCK_REGION_LENGTH__+0x14>
     408:	45 e2       	ldi	r20, 0x25	; 37
     40a:	51 e0       	ldi	r21, 0x01	; 1
     40c:	61 e0       	ldi	r22, 0x01	; 1
     40e:	8a e0       	ldi	r24, 0x0A	; 10
     410:	0e 94 b3 0b 	call	0x1766	; 0x1766 <gpib_writedat>
	gpib_untalk_unlisten(is_timedout);
     414:	85 e2       	ldi	r24, 0x25	; 37
     416:	91 e0       	ldi	r25, 0x01	; 1
     418:	0e 94 63 0b 	call	0x16c6	; 0x16c6 <gpib_untalk_unlisten>
	
	if (timeout_val != 0) 
     41c:	80 91 75 01 	lds	r24, 0x0175	; 0x800175 <timeout_val>
     420:	90 91 76 01 	lds	r25, 0x0176	; 0x800176 <timeout_val+0x1>
     424:	a0 91 77 01 	lds	r26, 0x0177	; 0x800177 <timeout_val+0x2>
     428:	b0 91 78 01 	lds	r27, 0x0178	; 0x800178 <timeout_val+0x3>
     42c:	89 2b       	or	r24, r25
     42e:	8a 2b       	or	r24, r26
     430:	8b 2b       	or	r24, r27
     432:	09 f4       	brne	.+2      	; 0x436 <__LOCK_REGION_LENGTH__+0x36>
     434:	71 c1       	rjmp	.+738    	; 0x718 <__LOCK_REGION_LENGTH__+0x318>

uint32_t timeout_val;

void timeout_start(uint32_t timeout)
{
	timeout_val = timeout;
     436:	80 ea       	ldi	r24, 0xA0	; 160
     438:	96 e8       	ldi	r25, 0x86	; 134
     43a:	a1 e0       	ldi	r26, 0x01	; 1
     43c:	b0 e0       	ldi	r27, 0x00	; 0
     43e:	80 93 75 01 	sts	0x0175, r24	; 0x800175 <timeout_val>
     442:	90 93 76 01 	sts	0x0176, r25	; 0x800176 <timeout_val+0x1>
     446:	a0 93 77 01 	sts	0x0177, r26	; 0x800177 <timeout_val+0x2>
     44a:	b0 93 78 01 	sts	0x0178, r27	; 0x800178 <timeout_val+0x3>
	gpib_untalk_unlisten(is_timedout);
	
	if (timeout_val != 0) 
	{
		timeout_start(100000); /* 1s timeout*/
		gpib_make_talker(gpib_addr, is_timedout);
     44e:	65 e2       	ldi	r22, 0x25	; 37
     450:	71 e0       	ldi	r23, 0x01	; 1
     452:	80 91 02 01 	lds	r24, 0x0102	; 0x800102 <gpib_addr>
     456:	0e 94 77 0b 	call	0x16ee	; 0x16ee <gpib_make_talker>
	bool    eoi, timedout;
	bool    gotStringViaGPIB;
	
	gotStringViaGPIB = true;
	
	hascomma = false; /* does the response contain a , character? */
     45a:	f1 2c       	mov	r15, r1
	
	if (timeout_val != 0) 
	{
		timeout_start(100000); /* 1s timeout*/
		gpib_make_talker(gpib_addr, is_timedout);
		len = 0;
     45c:	10 e0       	ldi	r17, 0x00	; 0
		do
		{
			c = gpib_readdat(&eoi, &timedout, is_timedout);
     45e:	45 e2       	ldi	r20, 0x25	; 37
     460:	51 e0       	ldi	r21, 0x01	; 1
     462:	be 01       	movw	r22, r28
     464:	6f 5f       	subi	r22, 0xFF	; 255
     466:	7f 4f       	sbci	r23, 0xFF	; 255
     468:	ce 01       	movw	r24, r28
     46a:	02 96       	adiw	r24, 0x02	; 2
     46c:	0e 94 d8 0a 	call	0x15b0	; 0x15b0 <gpib_readdat>
			hascomma = hascomma || (c == ',');
     470:	01 e0       	ldi	r16, 0x01	; 1
     472:	f1 10       	cpse	r15, r1
     474:	03 c0       	rjmp	.+6      	; 0x47c <__LOCK_REGION_LENGTH__+0x7c>
     476:	8c 32       	cpi	r24, 0x2C	; 44
     478:	09 f0       	breq	.+2      	; 0x47c <__LOCK_REGION_LENGTH__+0x7c>
     47a:	00 e0       	ldi	r16, 0x00	; 0
     47c:	f0 2e       	mov	r15, r16
			if ( (c=='\"') || (c=='*') || (c=='/') || (c=='\\') || (c==':') || (c=='?') || (c==' ') || (c==',') || (c=='&') ) /* YEP, a comma and amphersand is allowed in USBTMC spec, but R&S SW does not like this... */
     47e:	98 2f       	mov	r25, r24
     480:	9f 7e       	andi	r25, 0xEF	; 239
     482:	9a 32       	cpi	r25, 0x2A	; 42
     484:	61 f0       	breq	.+24     	; 0x49e <__LOCK_REGION_LENGTH__+0x9e>
     486:	9f 32       	cpi	r25, 0x2F	; 47
     488:	51 f0       	breq	.+20     	; 0x49e <__LOCK_REGION_LENGTH__+0x9e>
     48a:	8c 35       	cpi	r24, 0x5C	; 92
     48c:	41 f0       	breq	.+16     	; 0x49e <__LOCK_REGION_LENGTH__+0x9e>
     48e:	98 2f       	mov	r25, r24
     490:	9d 7f       	andi	r25, 0xFD	; 253
     492:	90 32       	cpi	r25, 0x20	; 32
     494:	21 f0       	breq	.+8      	; 0x49e <__LOCK_REGION_LENGTH__+0x9e>
     496:	8c 32       	cpi	r24, 0x2C	; 44
     498:	11 f0       	breq	.+4      	; 0x49e <__LOCK_REGION_LENGTH__+0x9e>
     49a:	86 32       	cpi	r24, 0x26	; 38
     49c:	09 f4       	brne	.+2      	; 0x4a0 <__LOCK_REGION_LENGTH__+0xa0>
				c='_';
     49e:	8f e5       	ldi	r24, 0x5F	; 95
			if ( (c >=32) && (c <=126))
     4a0:	90 ee       	ldi	r25, 0xE0	; 224
     4a2:	98 0f       	add	r25, r24
     4a4:	9f 35       	cpi	r25, 0x5F	; 95
     4a6:	50 f4       	brcc	.+20     	; 0x4bc <__LOCK_REGION_LENGTH__+0xbc>
				tmc_serial_string.UnicodeString[len++] = cpu_to_le16(c);
     4a8:	e1 2f       	mov	r30, r17
     4aa:	f0 e0       	ldi	r31, 0x00	; 0
     4ac:	ee 0f       	add	r30, r30
     4ae:	ff 1f       	adc	r31, r31
     4b0:	e4 58       	subi	r30, 0x84	; 132
     4b2:	fe 4f       	sbci	r31, 0xFE	; 254
     4b4:	90 e0       	ldi	r25, 0x00	; 0
     4b6:	91 83       	std	Z+1, r25	; 0x01
     4b8:	80 83       	st	Z, r24
     4ba:	1f 5f       	subi	r17, 0xFF	; 255
		}
		while ((len < TMC_MAX_SERIAL_STRING_LENGTH) && (!timedout) && (!eoi));
     4bc:	12 33       	cpi	r17, 0x32	; 50
     4be:	50 f4       	brcc	.+20     	; 0x4d4 <__LOCK_REGION_LENGTH__+0xd4>
     4c0:	89 81       	ldd	r24, Y+1	; 0x01
     4c2:	81 11       	cpse	r24, r1
     4c4:	07 c0       	rjmp	.+14     	; 0x4d4 <__LOCK_REGION_LENGTH__+0xd4>
     4c6:	8a 81       	ldd	r24, Y+2	; 0x02
     4c8:	88 23       	and	r24, r24
     4ca:	49 f2       	breq	.-110    	; 0x45e <__LOCK_REGION_LENGTH__+0x5e>
     4cc:	03 c0       	rjmp	.+6      	; 0x4d4 <__LOCK_REGION_LENGTH__+0xd4>
		/* strip away spaces at end */
		while ((tmc_serial_string.UnicodeString[len-1] == '_') && (len > 1))
     4ce:	12 30       	cpi	r17, 0x02	; 2
     4d0:	60 f0       	brcs	.+24     	; 0x4ea <__LOCK_REGION_LENGTH__+0xea>
			len--;
     4d2:	11 50       	subi	r17, 0x01	; 1
			if ( (c >=32) && (c <=126))
				tmc_serial_string.UnicodeString[len++] = cpu_to_le16(c);
		}
		while ((len < TMC_MAX_SERIAL_STRING_LENGTH) && (!timedout) && (!eoi));
		/* strip away spaces at end */
		while ((tmc_serial_string.UnicodeString[len-1] == '_') && (len > 1))
     4d4:	e1 2f       	mov	r30, r17
     4d6:	f0 e0       	ldi	r31, 0x00	; 0
     4d8:	ee 0f       	add	r30, r30
     4da:	ff 1f       	adc	r31, r31
     4dc:	e6 58       	subi	r30, 0x86	; 134
     4de:	fe 4f       	sbci	r31, 0xFE	; 254
     4e0:	80 81       	ld	r24, Z
     4e2:	91 81       	ldd	r25, Z+1	; 0x01
     4e4:	8f 35       	cpi	r24, 0x5F	; 95
     4e6:	91 05       	cpc	r25, r1
     4e8:	91 f3       	breq	.-28     	; 0x4ce <__LOCK_REGION_LENGTH__+0xce>
			len--;
		tmc_serial_string.Header.Size = len*2 + sizeof(USB_Descriptor_Header_t);
     4ea:	81 e0       	ldi	r24, 0x01	; 1
     4ec:	81 0f       	add	r24, r17
     4ee:	88 0f       	add	r24, r24
     4f0:	80 93 7a 01 	sts	0x017A, r24	; 0x80017a <tmc_serial_string>
		
		gpib_untalk_unlisten(is_timedout);
     4f4:	85 e2       	ldi	r24, 0x25	; 37
     4f6:	91 e0       	ldi	r25, 0x01	; 1
     4f8:	0e 94 63 0b 	call	0x16c6	; 0x16c6 <gpib_untalk_unlisten>
		
		if ( (timeout_val == 0) || (len==0) ) /* no response to *IDN? string*/
     4fc:	80 91 75 01 	lds	r24, 0x0175	; 0x800175 <timeout_val>
     500:	90 91 76 01 	lds	r25, 0x0176	; 0x800176 <timeout_val+0x1>
     504:	a0 91 77 01 	lds	r26, 0x0177	; 0x800177 <timeout_val+0x2>
     508:	b0 91 78 01 	lds	r27, 0x0178	; 0x800178 <timeout_val+0x3>
     50c:	89 2b       	or	r24, r25
     50e:	8a 2b       	or	r24, r26
     510:	8b 2b       	or	r24, r27
     512:	11 f0       	breq	.+4      	; 0x518 <__LOCK_REGION_LENGTH__+0x118>
     514:	11 11       	cpse	r17, r1
     516:	04 c1       	rjmp	.+520    	; 0x720 <__LOCK_REGION_LENGTH__+0x320>

uint32_t timeout_val;

void timeout_start(uint32_t timeout)
{
	timeout_val = timeout;
     518:	80 ea       	ldi	r24, 0xA0	; 160
     51a:	96 e8       	ldi	r25, 0x86	; 134
     51c:	a1 e0       	ldi	r26, 0x01	; 1
     51e:	b0 e0       	ldi	r27, 0x00	; 0
     520:	80 93 75 01 	sts	0x0175, r24	; 0x800175 <timeout_val>
     524:	90 93 76 01 	sts	0x0176, r25	; 0x800176 <timeout_val+0x1>
     528:	a0 93 77 01 	sts	0x0177, r26	; 0x800177 <timeout_val+0x2>
     52c:	b0 93 78 01 	sts	0x0178, r27	; 0x800178 <timeout_val+0x3>
		gpib_untalk_unlisten(is_timedout);
		
		if ( (timeout_val == 0) || (len==0) ) /* no response to *IDN? string*/
		{ /* so try out ID? query */
			timeout_start(100000); /* 1s timeout*/
			gpib_make_listener(gpib_addr, is_timedout);
     530:	65 e2       	ldi	r22, 0x25	; 37
     532:	71 e0       	ldi	r23, 0x01	; 1
     534:	80 91 02 01 	lds	r24, 0x0102	; 0x800102 <gpib_addr>
     538:	0e 94 93 0b 	call	0x1726	; 0x1726 <gpib_make_listener>
			if (timeout_val != 0) gpib_writedat('I', false, is_timedout);
     53c:	80 91 75 01 	lds	r24, 0x0175	; 0x800175 <timeout_val>
     540:	90 91 76 01 	lds	r25, 0x0176	; 0x800176 <timeout_val+0x1>
     544:	a0 91 77 01 	lds	r26, 0x0177	; 0x800177 <timeout_val+0x2>
     548:	b0 91 78 01 	lds	r27, 0x0178	; 0x800178 <timeout_val+0x3>
     54c:	89 2b       	or	r24, r25
     54e:	8a 2b       	or	r24, r26
     550:	8b 2b       	or	r24, r27
     552:	31 f0       	breq	.+12     	; 0x560 <__LOCK_REGION_LENGTH__+0x160>
     554:	45 e2       	ldi	r20, 0x25	; 37
     556:	51 e0       	ldi	r21, 0x01	; 1
     558:	60 e0       	ldi	r22, 0x00	; 0
     55a:	89 e4       	ldi	r24, 0x49	; 73
     55c:	0e 94 b3 0b 	call	0x1766	; 0x1766 <gpib_writedat>
			if (timeout_val != 0) gpib_writedat('D', false, is_timedout);
     560:	80 91 75 01 	lds	r24, 0x0175	; 0x800175 <timeout_val>
     564:	90 91 76 01 	lds	r25, 0x0176	; 0x800176 <timeout_val+0x1>
     568:	a0 91 77 01 	lds	r26, 0x0177	; 0x800177 <timeout_val+0x2>
     56c:	b0 91 78 01 	lds	r27, 0x0178	; 0x800178 <timeout_val+0x3>
     570:	89 2b       	or	r24, r25
     572:	8a 2b       	or	r24, r26
     574:	8b 2b       	or	r24, r27
     576:	31 f0       	breq	.+12     	; 0x584 <__LOCK_REGION_LENGTH__+0x184>
     578:	45 e2       	ldi	r20, 0x25	; 37
     57a:	51 e0       	ldi	r21, 0x01	; 1
     57c:	60 e0       	ldi	r22, 0x00	; 0
     57e:	84 e4       	ldi	r24, 0x44	; 68
     580:	0e 94 b3 0b 	call	0x1766	; 0x1766 <gpib_writedat>
			if (timeout_val != 0) gpib_writedat('?', false, is_timedout);
     584:	80 91 75 01 	lds	r24, 0x0175	; 0x800175 <timeout_val>
     588:	90 91 76 01 	lds	r25, 0x0176	; 0x800176 <timeout_val+0x1>
     58c:	a0 91 77 01 	lds	r26, 0x0177	; 0x800177 <timeout_val+0x2>
     590:	b0 91 78 01 	lds	r27, 0x0178	; 0x800178 <timeout_val+0x3>
     594:	89 2b       	or	r24, r25
     596:	8a 2b       	or	r24, r26
     598:	8b 2b       	or	r24, r27
     59a:	31 f0       	breq	.+12     	; 0x5a8 <__LOCK_REGION_LENGTH__+0x1a8>
     59c:	45 e2       	ldi	r20, 0x25	; 37
     59e:	51 e0       	ldi	r21, 0x01	; 1
     5a0:	60 e0       	ldi	r22, 0x00	; 0
     5a2:	8f e3       	ldi	r24, 0x3F	; 63
     5a4:	0e 94 b3 0b 	call	0x1766	; 0x1766 <gpib_writedat>
			if (timeout_val != 0) gpib_writedat('\n', true, is_timedout);
     5a8:	80 91 75 01 	lds	r24, 0x0175	; 0x800175 <timeout_val>
     5ac:	90 91 76 01 	lds	r25, 0x0176	; 0x800176 <timeout_val+0x1>
     5b0:	a0 91 77 01 	lds	r26, 0x0177	; 0x800177 <timeout_val+0x2>
     5b4:	b0 91 78 01 	lds	r27, 0x0178	; 0x800178 <timeout_val+0x3>
     5b8:	89 2b       	or	r24, r25
     5ba:	8a 2b       	or	r24, r26
     5bc:	8b 2b       	or	r24, r27
     5be:	31 f0       	breq	.+12     	; 0x5cc <__LOCK_REGION_LENGTH__+0x1cc>
     5c0:	45 e2       	ldi	r20, 0x25	; 37
     5c2:	51 e0       	ldi	r21, 0x01	; 1
     5c4:	61 e0       	ldi	r22, 0x01	; 1
     5c6:	8a e0       	ldi	r24, 0x0A	; 10
     5c8:	0e 94 b3 0b 	call	0x1766	; 0x1766 <gpib_writedat>
			gpib_untalk_unlisten(is_timedout);
     5cc:	85 e2       	ldi	r24, 0x25	; 37
     5ce:	91 e0       	ldi	r25, 0x01	; 1
     5d0:	0e 94 63 0b 	call	0x16c6	; 0x16c6 <gpib_untalk_unlisten>
			if (timeout_val != 0) 
     5d4:	80 91 75 01 	lds	r24, 0x0175	; 0x800175 <timeout_val>
     5d8:	90 91 76 01 	lds	r25, 0x0176	; 0x800176 <timeout_val+0x1>
     5dc:	a0 91 77 01 	lds	r26, 0x0177	; 0x800177 <timeout_val+0x2>
     5e0:	b0 91 78 01 	lds	r27, 0x0178	; 0x800178 <timeout_val+0x3>
     5e4:	89 2b       	or	r24, r25
     5e6:	8a 2b       	or	r24, r26
     5e8:	8b 2b       	or	r24, r27
     5ea:	09 f4       	brne	.+2      	; 0x5ee <__LOCK_REGION_LENGTH__+0x1ee>
     5ec:	93 c0       	rjmp	.+294    	; 0x714 <__LOCK_REGION_LENGTH__+0x314>

uint32_t timeout_val;

void timeout_start(uint32_t timeout)
{
	timeout_val = timeout;
     5ee:	80 ea       	ldi	r24, 0xA0	; 160
     5f0:	96 e8       	ldi	r25, 0x86	; 134
     5f2:	a1 e0       	ldi	r26, 0x01	; 1
     5f4:	b0 e0       	ldi	r27, 0x00	; 0
     5f6:	80 93 75 01 	sts	0x0175, r24	; 0x800175 <timeout_val>
     5fa:	90 93 76 01 	sts	0x0176, r25	; 0x800176 <timeout_val+0x1>
     5fe:	a0 93 77 01 	sts	0x0177, r26	; 0x800177 <timeout_val+0x2>
     602:	b0 93 78 01 	sts	0x0178, r27	; 0x800178 <timeout_val+0x3>
			if (timeout_val != 0) gpib_writedat('\n', true, is_timedout);
			gpib_untalk_unlisten(is_timedout);
			if (timeout_val != 0) 
			{
				timeout_start(100000); /* 1s timeout*/
				gpib_make_talker(gpib_addr, is_timedout);
     606:	65 e2       	ldi	r22, 0x25	; 37
     608:	71 e0       	ldi	r23, 0x01	; 1
     60a:	80 91 02 01 	lds	r24, 0x0102	; 0x800102 <gpib_addr>
     60e:	0e 94 77 0b 	call	0x16ee	; 0x16ee <gpib_make_talker>
				len = 0;
     612:	10 e0       	ldi	r17, 0x00	; 0
				do
				{
					c = gpib_readdat(&eoi, &timedout, is_timedout);
     614:	45 e2       	ldi	r20, 0x25	; 37
     616:	51 e0       	ldi	r21, 0x01	; 1
     618:	be 01       	movw	r22, r28
     61a:	6f 5f       	subi	r22, 0xFF	; 255
     61c:	7f 4f       	sbci	r23, 0xFF	; 255
     61e:	ce 01       	movw	r24, r28
     620:	02 96       	adiw	r24, 0x02	; 2
     622:	c6 d7       	rcall	.+3980   	; 0x15b0 <gpib_readdat>
					hascomma = hascomma || (c == ',');
     624:	01 e0       	ldi	r16, 0x01	; 1
     626:	f1 10       	cpse	r15, r1
     628:	03 c0       	rjmp	.+6      	; 0x630 <__LOCK_REGION_LENGTH__+0x230>
     62a:	8c 32       	cpi	r24, 0x2C	; 44
     62c:	09 f0       	breq	.+2      	; 0x630 <__LOCK_REGION_LENGTH__+0x230>
     62e:	00 e0       	ldi	r16, 0x00	; 0
     630:	f0 2e       	mov	r15, r16
					if ( (c=='\"') || (c=='*') || (c=='/') || (c=='\\') || (c==':') || (c=='?') || (c==' ') || (c==',') || (c=='&'))
     632:	98 2f       	mov	r25, r24
     634:	9f 7e       	andi	r25, 0xEF	; 239
     636:	9a 32       	cpi	r25, 0x2A	; 42
     638:	61 f0       	breq	.+24     	; 0x652 <__LOCK_REGION_LENGTH__+0x252>
     63a:	9f 32       	cpi	r25, 0x2F	; 47
     63c:	51 f0       	breq	.+20     	; 0x652 <__LOCK_REGION_LENGTH__+0x252>
     63e:	8c 35       	cpi	r24, 0x5C	; 92
     640:	41 f0       	breq	.+16     	; 0x652 <__LOCK_REGION_LENGTH__+0x252>
     642:	98 2f       	mov	r25, r24
     644:	9d 7f       	andi	r25, 0xFD	; 253
     646:	90 32       	cpi	r25, 0x20	; 32
     648:	21 f0       	breq	.+8      	; 0x652 <__LOCK_REGION_LENGTH__+0x252>
     64a:	8c 32       	cpi	r24, 0x2C	; 44
     64c:	11 f0       	breq	.+4      	; 0x652 <__LOCK_REGION_LENGTH__+0x252>
     64e:	86 32       	cpi	r24, 0x26	; 38
     650:	09 f4       	brne	.+2      	; 0x654 <__LOCK_REGION_LENGTH__+0x254>
						c='_';
     652:	8f e5       	ldi	r24, 0x5F	; 95
					if ( (c >=32) && (c <=126) )
     654:	90 ee       	ldi	r25, 0xE0	; 224
     656:	98 0f       	add	r25, r24
     658:	9f 35       	cpi	r25, 0x5F	; 95
     65a:	58 f4       	brcc	.+22     	; 0x672 <__LOCK_REGION_LENGTH__+0x272>
						tmc_serial_string.UnicodeString[len++] = cpu_to_le16(c);
     65c:	e1 2f       	mov	r30, r17
     65e:	f0 e0       	ldi	r31, 0x00	; 0
     660:	ee 0f       	add	r30, r30
     662:	ff 1f       	adc	r31, r31
     664:	e4 58       	subi	r30, 0x84	; 132
     666:	fe 4f       	sbci	r31, 0xFE	; 254
     668:	28 2f       	mov	r18, r24
     66a:	30 e0       	ldi	r19, 0x00	; 0
     66c:	31 83       	std	Z+1, r19	; 0x01
     66e:	20 83       	st	Z, r18
     670:	1f 5f       	subi	r17, 0xFF	; 255
				}
				while ((len < TMC_MAX_SERIAL_STRING_LENGTH) && (!timedout) && (!eoi) && (c != '\r') && (c != '\n'));
     672:	12 33       	cpi	r17, 0x32	; 50
     674:	70 f4       	brcc	.+28     	; 0x692 <__LOCK_REGION_LENGTH__+0x292>
     676:	99 81       	ldd	r25, Y+1	; 0x01
     678:	91 11       	cpse	r25, r1
     67a:	0b c0       	rjmp	.+22     	; 0x692 <__LOCK_REGION_LENGTH__+0x292>
     67c:	9a 81       	ldd	r25, Y+2	; 0x02
     67e:	91 11       	cpse	r25, r1
     680:	08 c0       	rjmp	.+16     	; 0x692 <__LOCK_REGION_LENGTH__+0x292>
     682:	8d 30       	cpi	r24, 0x0D	; 13
     684:	31 f0       	breq	.+12     	; 0x692 <__LOCK_REGION_LENGTH__+0x292>
     686:	8a 30       	cpi	r24, 0x0A	; 10
     688:	29 f6       	brne	.-118    	; 0x614 <__LOCK_REGION_LENGTH__+0x214>
     68a:	03 c0       	rjmp	.+6      	; 0x692 <__LOCK_REGION_LENGTH__+0x292>
				/* strip away spaces at end */
				while ((tmc_serial_string.UnicodeString[len-1] == '_') && (len > 1))
     68c:	12 30       	cpi	r17, 0x02	; 2
     68e:	60 f0       	brcs	.+24     	; 0x6a8 <__LOCK_REGION_LENGTH__+0x2a8>
					len--;
     690:	11 50       	subi	r17, 0x01	; 1
					if ( (c >=32) && (c <=126) )
						tmc_serial_string.UnicodeString[len++] = cpu_to_le16(c);
				}
				while ((len < TMC_MAX_SERIAL_STRING_LENGTH) && (!timedout) && (!eoi) && (c != '\r') && (c != '\n'));
				/* strip away spaces at end */
				while ((tmc_serial_string.UnicodeString[len-1] == '_') && (len > 1))
     692:	e1 2f       	mov	r30, r17
     694:	f0 e0       	ldi	r31, 0x00	; 0
     696:	ee 0f       	add	r30, r30
     698:	ff 1f       	adc	r31, r31
     69a:	e6 58       	subi	r30, 0x86	; 134
     69c:	fe 4f       	sbci	r31, 0xFE	; 254
     69e:	80 81       	ld	r24, Z
     6a0:	91 81       	ldd	r25, Z+1	; 0x01
     6a2:	8f 35       	cpi	r24, 0x5F	; 95
     6a4:	91 05       	cpc	r25, r1
     6a6:	91 f3       	breq	.-28     	; 0x68c <__LOCK_REGION_LENGTH__+0x28c>
					len--;
				tmc_serial_string.Header.Size = len*2 + sizeof(USB_Descriptor_Header_t);
     6a8:	81 e0       	ldi	r24, 0x01	; 1
     6aa:	81 0f       	add	r24, r17
     6ac:	88 0f       	add	r24, r24
     6ae:	80 93 7a 01 	sts	0x017A, r24	; 0x80017a <tmc_serial_string>
				gpib_untalk_unlisten(is_timedout);
     6b2:	85 e2       	ldi	r24, 0x25	; 37
     6b4:	91 e0       	ldi	r25, 0x01	; 1
     6b6:	0e 94 63 0b 	call	0x16c6	; 0x16c6 <gpib_untalk_unlisten>
			}				
		}
		
		
		if (!hascomma)
     6ba:	01 11       	cpse	r16, r1
     6bc:	18 c0       	rjmp	.+48     	; 0x6ee <__LOCK_REGION_LENGTH__+0x2ee>
			if ( (tmc_serial_string.UnicodeString[0] = 'H') &&
     6be:	88 e4       	ldi	r24, 0x48	; 72
     6c0:	90 e0       	ldi	r25, 0x00	; 0
     6c2:	90 93 7d 01 	sts	0x017D, r25	; 0x80017d <tmc_serial_string+0x3>
     6c6:	80 93 7c 01 	sts	0x017C, r24	; 0x80017c <tmc_serial_string+0x2>
				 (tmc_serial_string.UnicodeString[1] = 'P') &&
     6ca:	80 e5       	ldi	r24, 0x50	; 80
     6cc:	90 e0       	ldi	r25, 0x00	; 0
     6ce:	90 93 7f 01 	sts	0x017F, r25	; 0x80017f <tmc_serial_string+0x5>
     6d2:	80 93 7e 01 	sts	0x017E, r24	; 0x80017e <tmc_serial_string+0x4>
     6d6:	20 91 80 01 	lds	r18, 0x0180	; 0x800180 <tmc_serial_string+0x6>
     6da:	30 91 81 01 	lds	r19, 0x0181	; 0x800181 <tmc_serial_string+0x7>
     6de:	20 53       	subi	r18, 0x30	; 48
     6e0:	31 09       	sbc	r19, r1
     6e2:	81 e0       	ldi	r24, 0x01	; 1
     6e4:	2a 30       	cpi	r18, 0x0A	; 10
     6e6:	31 05       	cpc	r19, r1
     6e8:	18 f0       	brcs	.+6      	; 0x6f0 <__LOCK_REGION_LENGTH__+0x2f0>
     6ea:	80 e0       	ldi	r24, 0x00	; 0
     6ec:	01 c0       	rjmp	.+2      	; 0x6f0 <__LOCK_REGION_LENGTH__+0x2f0>
     6ee:	81 e0       	ldi	r24, 0x01	; 1
			{
				hascomma = true;
			}
		
		
		if ((timeout_val == 0) || (len == 0)  || (!hascomma) ) /* timeout happened or length is 0 => build a serial number based on GPIB address */
     6f0:	40 91 75 01 	lds	r20, 0x0175	; 0x800175 <timeout_val>
     6f4:	50 91 76 01 	lds	r21, 0x0176	; 0x800176 <timeout_val+0x1>
     6f8:	60 91 77 01 	lds	r22, 0x0177	; 0x800177 <timeout_val+0x2>
     6fc:	70 91 78 01 	lds	r23, 0x0178	; 0x800178 <timeout_val+0x3>
     700:	45 2b       	or	r20, r21
     702:	46 2b       	or	r20, r22
     704:	47 2b       	or	r20, r23
     706:	41 f0       	breq	.+16     	; 0x718 <__LOCK_REGION_LENGTH__+0x318>
     708:	11 23       	and	r17, r17
     70a:	31 f0       	breq	.+12     	; 0x718 <__LOCK_REGION_LENGTH__+0x318>
     70c:	88 23       	and	r24, r24
     70e:	21 f0       	breq	.+8      	; 0x718 <__LOCK_REGION_LENGTH__+0x318>
{
	uint8_t c, len, hascomma;
	bool    eoi, timedout;
	bool    gotStringViaGPIB;
	
	gotStringViaGPIB = true;
     710:	11 e0       	ldi	r17, 0x01	; 1
     712:	09 c0       	rjmp	.+18     	; 0x726 <__LOCK_REGION_LENGTH__+0x326>
				gpib_untalk_unlisten(is_timedout);
			}				
		}
		
		
		if (!hascomma)
     714:	00 23       	and	r16, r16
     716:	99 f2       	breq	.-90     	; 0x6be <__LOCK_REGION_LENGTH__+0x2be>
			}
		
		
		if ((timeout_val == 0) || (len == 0)  || (!hascomma) ) /* timeout happened or length is 0 => build a serial number based on GPIB address */
		{
			TMC_SetInternalSerial(true);
     718:	81 e0       	ldi	r24, 0x01	; 1
     71a:	1a dd       	rcall	.-1484   	; 0x150 <TMC_SetInternalSerial>
			gotStringViaGPIB = false;
     71c:	10 e0       	ldi	r17, 0x00	; 0
     71e:	03 c0       	rjmp	.+6      	; 0x726 <__LOCK_REGION_LENGTH__+0x326>
				gpib_untalk_unlisten(is_timedout);
			}				
		}
		
		
		if (!hascomma)
     720:	00 23       	and	r16, r16
     722:	69 f2       	breq	.-102    	; 0x6be <__LOCK_REGION_LENGTH__+0x2be>
     724:	f5 cf       	rjmp	.-22     	; 0x710 <__LOCK_REGION_LENGTH__+0x310>
		gotStringViaGPIB = false;
	}
	
	//TMC_SetInternalSerial(false);
	
	gpib_ren(false);
     726:	80 e0       	ldi	r24, 0x00	; 0
     728:	6e d6       	rcall	.+3292   	; 0x1406 <gpib_ren>
	#else
		//round up by default
		__ticks_dc = (uint32_t)(ceil(fabs(__tmp)));
	#endif

	__builtin_avr_delay_cycles(__ticks_dc);
     72a:	2f ef       	ldi	r18, 0xFF	; 255
     72c:	81 ee       	ldi	r24, 0xE1	; 225
     72e:	94 e0       	ldi	r25, 0x04	; 4
     730:	21 50       	subi	r18, 0x01	; 1
     732:	80 40       	sbci	r24, 0x00	; 0
     734:	90 40       	sbci	r25, 0x00	; 0
     736:	e1 f7       	brne	.-8      	; 0x730 <__LOCK_REGION_LENGTH__+0x330>
     738:	00 c0       	rjmp	.+0      	; 0x73a <__LOCK_REGION_LENGTH__+0x33a>
	_delay_ms(100);
	gpib_ren(true);
     73a:	00 00       	nop
     73c:	81 e0       	ldi	r24, 0x01	; 1
     73e:	63 d6       	rcall	.+3270   	; 0x1406 <gpib_ren>
	return gotStringViaGPIB;
}
     740:	81 2f       	mov	r24, r17
     742:	0f 90       	pop	r0
     744:	0f 90       	pop	r0
     746:	df 91       	pop	r29
     748:	cf 91       	pop	r28
     74a:	1f 91       	pop	r17
     74c:	0f 91       	pop	r16
     74e:	ff 90       	pop	r15
     750:	08 95       	ret

00000752 <check_bootloaderEntry>:
	SetGlobalInterruptMask(CurrentGlobalInt);
}

void check_bootloaderEntry(void)
{
	if ( !(PINB & (1<<2)) ) /* check if PB2 is LOW*/
     752:	1a 9b       	sbis	0x03, 2	; 3
	{
		Jump_To_Bootloader();
     754:	a9 cd       	rjmp	.-1198   	; 0x2a8 <Jump_To_Bootloader>
     756:	08 95       	ret

00000758 <eeprom_update_if_changed>:
	}
}

void eeprom_update_if_changed(uint16_t addr, uint8_t value)
{
     758:	1f 93       	push	r17
     75a:	cf 93       	push	r28
     75c:	df 93       	push	r29
     75e:	ec 01       	movw	r28, r24
     760:	16 2f       	mov	r17, r22
	uint8_t oldval;
	eeprom_busy_wait();
     762:	f9 99       	sbic	0x1f, 1	; 31
     764:	fe cf       	rjmp	.-4      	; 0x762 <eeprom_update_if_changed+0xa>
	oldval = eeprom_read_byte((uint8_t*)addr); /* read previous gpib address */
     766:	ce 01       	movw	r24, r28
     768:	0e 94 63 11 	call	0x22c6	; 0x22c6 <eeprom_read_byte>
	if (oldval != value)
     76c:	81 17       	cp	r24, r17
     76e:	49 f0       	breq	.+18     	; 0x782 <eeprom_update_if_changed+0x2a>
	{
		eeprom_busy_wait();
     770:	f9 99       	sbic	0x1f, 1	; 31
     772:	fe cf       	rjmp	.-4      	; 0x770 <eeprom_update_if_changed+0x18>
		eeprom_write_byte((uint8_t*)addr, value);		
     774:	61 2f       	mov	r22, r17
     776:	ce 01       	movw	r24, r28
	}
}
     778:	df 91       	pop	r29
     77a:	cf 91       	pop	r28
     77c:	1f 91       	pop	r17
	eeprom_busy_wait();
	oldval = eeprom_read_byte((uint8_t*)addr); /* read previous gpib address */
	if (oldval != value)
	{
		eeprom_busy_wait();
		eeprom_write_byte((uint8_t*)addr, value);		
     77e:	0c 94 6b 11 	jmp	0x22d6	; 0x22d6 <eeprom_write_byte>
	}
}
     782:	df 91       	pop	r29
     784:	cf 91       	pop	r28
     786:	1f 91       	pop	r17
     788:	08 95       	ret

0000078a <SetupHardware>:

/** Configures the board hardware and chip peripherals for the demo's functionality. */
void SetupHardware(void)
{
	/* Disable watchdog if enabled by bootloader/fuses */
	MCUSR &= ~(1 << WDRF);
     78a:	84 b7       	in	r24, 0x34	; 52
     78c:	87 7f       	andi	r24, 0xF7	; 247
     78e:	84 bf       	out	0x34, r24	; 52
		);
	}
	else
	{
        uint8_t register temp_reg;
		__asm__ __volatile__ (
     790:	0f b6       	in	r0, 0x3f	; 63
     792:	f8 94       	cli
     794:	a8 95       	wdr
     796:	80 91 60 00 	lds	r24, 0x0060	; 0x800060 <__TEXT_REGION_LENGTH__+0x7e0060>
     79a:	88 61       	ori	r24, 0x18	; 24
     79c:	80 93 60 00 	sts	0x0060, r24	; 0x800060 <__TEXT_REGION_LENGTH__+0x7e0060>
     7a0:	10 92 60 00 	sts	0x0060, r1	; 0x800060 <__TEXT_REGION_LENGTH__+0x7e0060>
     7a4:	0f be       	out	0x3f, r0	; 63
from 1 to 129. Thus, one does not need to use \c clock_div_t type as argument.
*/
void clock_prescale_set(clock_div_t __x)
{
    uint8_t __tmp = _BV(CLKPCE);
    __asm__ __volatile__ (
     7a6:	90 e0       	ldi	r25, 0x00	; 0
     7a8:	80 e8       	ldi	r24, 0x80	; 128
     7aa:	0f b6       	in	r0, 0x3f	; 63
     7ac:	f8 94       	cli
     7ae:	80 93 61 00 	sts	0x0061, r24	; 0x800061 <__TEXT_REGION_LENGTH__+0x7e0061>
     7b2:	90 93 61 00 	sts	0x0061, r25	; 0x800061 <__TEXT_REGION_LENGTH__+0x7e0061>
     7b6:	0f be       	out	0x3f, r0	; 63
	clock_prescale_set(clock_div_1);
	

	/* Hardware Initialization */
	//LEDs_Init();
	USB_Init();
     7b8:	0e 94 cf 0e 	call	0x1d9e	; 0x1d9e <USB_Init>
			 *  enumerating the device once attached until \ref USB_Attach() is called.
			 */
			static inline void USB_Detach(void) ATTR_ALWAYS_INLINE;
			static inline void USB_Detach(void)
			{
				UDCON  |=  (1 << DETACH);
     7bc:	e0 ee       	ldi	r30, 0xE0	; 224
     7be:	f0 e0       	ldi	r31, 0x00	; 0
     7c0:	80 81       	ld	r24, Z
     7c2:	81 60       	ori	r24, 0x01	; 1
     7c4:	80 83       	st	Z, r24
	USB_Detach();

	
	/* update the TMC default serial number*/
	TMC_SetInternalSerial(false);
     7c6:	80 e0       	ldi	r24, 0x00	; 0
     7c8:	c3 dc       	rcall	.-1658   	; 0x150 <TMC_SetInternalSerial>
	
	/* LED to output and turn on */
	DDRF |= (1<<5);
     7ca:	85 9a       	sbi	0x10, 5	; 16
	LED(1);
     7cc:	8d 9a       	sbi	0x11, 5	; 17
     7ce:	08 95       	ret

000007d0 <EVENT_USB_Device_Connect>:
     7d0:	08 95       	ret

000007d2 <EVENT_USB_Device_Disconnect>:

/** Event handler for the USB_Disconnect event. This indicates that the device is no longer connected to a host via
 *  the status LEDs and stops the USB management and CDC management tasks.
 */
void EVENT_USB_Device_Disconnect(void)
{
     7d2:	08 95       	ret

000007d4 <EVENT_USB_Device_ConfigurationChanged>:
				uint8_t Number = (Address & ENDPOINT_EPNUM_MASK);

				if (Number >= ENDPOINT_TOTAL_ENDPOINTS)
				  return false;

				return Endpoint_ConfigureEndpoint_Prv(Number,
     7d4:	42 e3       	ldi	r20, 0x32	; 50
     7d6:	61 ec       	ldi	r22, 0xC1	; 193
     7d8:	81 e0       	ldi	r24, 0x01	; 1
     7da:	0e 94 f0 0d 	call	0x1be0	; 0x1be0 <Endpoint_ConfigureEndpoint_Prv>
     7de:	42 e3       	ldi	r20, 0x32	; 50
     7e0:	61 e8       	ldi	r22, 0x81	; 129
     7e2:	82 e0       	ldi	r24, 0x02	; 2
     7e4:	0e 94 f0 0d 	call	0x1be0	; 0x1be0 <Endpoint_ConfigureEndpoint_Prv>
     7e8:	42 e3       	ldi	r20, 0x32	; 50
     7ea:	60 e8       	ldi	r22, 0x80	; 128
     7ec:	83 e0       	ldi	r24, 0x03	; 3
     7ee:	0c 94 f0 0d 	jmp	0x1be0	; 0x1be0 <Endpoint_ConfigureEndpoint_Prv>

000007f2 <EVENT_USB_Device_ControlRequest>:
/** Event handler for the USB_ControlRequest event. This is used to catch and process control requests sent to
 *  the device from the USB host before passing along unhandled control requests to the library for processing
 *  internally.
 */
void EVENT_USB_Device_ControlRequest(void)
{
     7f2:	cf 93       	push	r28
	uint8_t TMCRequestStatus = TMC_STATUS_SUCCESS;
	uint8_t btag, statusReg;
	
	
	if ( ((USB_ControlRequest.wIndex == INTERFACE_ID_TestAndMeasurement) && ((USB_ControlRequest.bmRequestType & REQREC_INTERFACE)!=0)) ||
     7f4:	80 91 e9 01 	lds	r24, 0x01E9	; 0x8001e9 <USB_ControlRequest+0x4>
     7f8:	90 91 ea 01 	lds	r25, 0x01EA	; 0x8001ea <USB_ControlRequest+0x5>
     7fc:	00 97       	sbiw	r24, 0x00	; 0
     7fe:	29 f4       	brne	.+10     	; 0x80a <EVENT_USB_Device_ControlRequest+0x18>
     800:	80 91 e5 01 	lds	r24, 0x01E5	; 0x8001e5 <USB_ControlRequest>
     804:	80 fd       	sbrc	r24, 0
     806:	0b c0       	rjmp	.+22     	; 0x81e <EVENT_USB_Device_ControlRequest+0x2c>
     808:	7a c1       	rjmp	.+756    	; 0xafe <EVENT_USB_Device_ControlRequest+0x30c>
     80a:	82 38       	cpi	r24, 0x82	; 130
     80c:	91 05       	cpc	r25, r1
     80e:	19 f0       	breq	.+6      	; 0x816 <EVENT_USB_Device_ControlRequest+0x24>
	     (((USB_ControlRequest.wIndex == TMC_IN_EPADDR) || (USB_ControlRequest.wIndex == TMC_OUT_EPADDR)) && ((USB_ControlRequest.bmRequestType & REQREC_ENDPOINT)!=0))     )
     810:	03 97       	sbiw	r24, 0x03	; 3
     812:	09 f0       	breq	.+2      	; 0x816 <EVENT_USB_Device_ControlRequest+0x24>
     814:	74 c1       	rjmp	.+744    	; 0xafe <EVENT_USB_Device_ControlRequest+0x30c>
     816:	80 91 e5 01 	lds	r24, 0x01E5	; 0x8001e5 <USB_ControlRequest>
     81a:	81 ff       	sbrs	r24, 1
     81c:	70 c1       	rjmp	.+736    	; 0xafe <EVENT_USB_Device_ControlRequest+0x30c>
	{
		/* Process TMC specific control requests */
		switch (USB_ControlRequest.bRequest)
     81e:	80 91 e6 01 	lds	r24, 0x01E6	; 0x8001e6 <USB_ControlRequest+0x1>
     822:	86 30       	cpi	r24, 0x06	; 6
     824:	09 f4       	brne	.+2      	; 0x828 <EVENT_USB_Device_ControlRequest+0x36>
     826:	fc c0       	rjmp	.+504    	; 0xa20 <EVENT_USB_Device_ControlRequest+0x22e>
     828:	90 f4       	brcc	.+36     	; 0x84e <EVENT_USB_Device_ControlRequest+0x5c>
     82a:	83 30       	cpi	r24, 0x03	; 3
     82c:	09 f4       	brne	.+2      	; 0x830 <EVENT_USB_Device_ControlRequest+0x3e>
     82e:	8c c0       	rjmp	.+280    	; 0x948 <EVENT_USB_Device_ControlRequest+0x156>
     830:	38 f4       	brcc	.+14     	; 0x840 <EVENT_USB_Device_ControlRequest+0x4e>
     832:	81 30       	cpi	r24, 0x01	; 1
     834:	09 f4       	brne	.+2      	; 0x838 <EVENT_USB_Device_ControlRequest+0x46>
     836:	59 c0       	rjmp	.+178    	; 0x8ea <EVENT_USB_Device_ControlRequest+0xf8>
     838:	82 30       	cpi	r24, 0x02	; 2
     83a:	09 f4       	brne	.+2      	; 0x83e <EVENT_USB_Device_ControlRequest+0x4c>
     83c:	79 c0       	rjmp	.+242    	; 0x930 <EVENT_USB_Device_ControlRequest+0x13e>
     83e:	5f c1       	rjmp	.+702    	; 0xafe <EVENT_USB_Device_ControlRequest+0x30c>
     840:	84 30       	cpi	r24, 0x04	; 4
     842:	09 f4       	brne	.+2      	; 0x846 <EVENT_USB_Device_ControlRequest+0x54>
     844:	a8 c0       	rjmp	.+336    	; 0x996 <EVENT_USB_Device_ControlRequest+0x1a4>
     846:	85 30       	cpi	r24, 0x05	; 5
     848:	09 f4       	brne	.+2      	; 0x84c <EVENT_USB_Device_ControlRequest+0x5a>
     84a:	d5 c0       	rjmp	.+426    	; 0x9f6 <EVENT_USB_Device_ControlRequest+0x204>
     84c:	58 c1       	rjmp	.+688    	; 0xafe <EVENT_USB_Device_ControlRequest+0x30c>
     84e:	80 38       	cpi	r24, 0x80	; 128
     850:	71 f1       	breq	.+92     	; 0x8ae <EVENT_USB_Device_ControlRequest+0xbc>
     852:	18 f5       	brcc	.+70     	; 0x89a <EVENT_USB_Device_ControlRequest+0xa8>
     854:	87 30       	cpi	r24, 0x07	; 7
     856:	09 f4       	brne	.+2      	; 0x85a <EVENT_USB_Device_ControlRequest+0x68>
     858:	05 c1       	rjmp	.+522    	; 0xa64 <EVENT_USB_Device_ControlRequest+0x272>
     85a:	80 34       	cpi	r24, 0x40	; 64
     85c:	09 f0       	breq	.+2      	; 0x860 <EVENT_USB_Device_ControlRequest+0x6e>
     85e:	4f c1       	rjmp	.+670    	; 0xafe <EVENT_USB_Device_ControlRequest+0x30c>
			 *  \note This is not applicable for non CONTROL type endpoints.
			 */
			static inline void Endpoint_ClearSETUP(void) ATTR_ALWAYS_INLINE;
			static inline void Endpoint_ClearSETUP(void)
			{
				UEINTX &= ~(1 << RXSTPI);
     860:	80 91 e8 00 	lds	r24, 0x00E8	; 0x8000e8 <__TEXT_REGION_LENGTH__+0x7e00e8>
     864:	87 7f       	andi	r24, 0xF7	; 247
     866:	80 93 e8 00 	sts	0x00E8, r24	; 0x8000e8 <__TEXT_REGION_LENGTH__+0x7e00e8>
			 *  \param[in] Data  Data to write into the the currently selected endpoint's FIFO buffer.
			 */
			static inline void Endpoint_Write_8(const uint8_t Data) ATTR_ALWAYS_INLINE;
			static inline void Endpoint_Write_8(const uint8_t Data)
			{
				UEDATX = Data;
     86a:	c1 e0       	ldi	r28, 0x01	; 1
     86c:	c0 93 f1 00 	sts	0x00F1, r28	; 0x8000f1 <__TEXT_REGION_LENGTH__+0x7e00f1>
			 */
			static inline void Endpoint_ClearIN(void) ATTR_ALWAYS_INLINE;
			static inline void Endpoint_ClearIN(void)
			{
				#if !defined(CONTROL_ONLY_DEVICE)
					UEINTX &= ~((1 << TXINI) | (1 << FIFOCON));
     870:	80 91 e8 00 	lds	r24, 0x00E8	; 0x8000e8 <__TEXT_REGION_LENGTH__+0x7e00e8>
     874:	8e 77       	andi	r24, 0x7E	; 126
     876:	80 93 e8 00 	sts	0x00E8, r24	; 0x8000e8 <__TEXT_REGION_LENGTH__+0x7e00e8>
				Endpoint_ClearSETUP();

				/* USBTMC Status response (1 Byte) */
				Endpoint_Write_8(TMC_STATUS_SUCCESS);
				Endpoint_ClearIN();
				Endpoint_ClearStatusStage();
     87a:	0e 94 25 0e 	call	0x1c4a	; 0x1c4a <Endpoint_ClearStatusStage>
				
				LED(0);
     87e:	8d 98       	cbi	0x11, 5	; 17
     880:	2f ef       	ldi	r18, 0xFF	; 255
     882:	84 e3       	ldi	r24, 0x34	; 52
     884:	9c e0       	ldi	r25, 0x0C	; 12
     886:	21 50       	subi	r18, 0x01	; 1
     888:	80 40       	sbci	r24, 0x00	; 0
     88a:	90 40       	sbci	r25, 0x00	; 0
     88c:	e1 f7       	brne	.-8      	; 0x886 <EVENT_USB_Device_ControlRequest+0x94>
     88e:	00 c0       	rjmp	.+0      	; 0x890 <EVENT_USB_Device_ControlRequest+0x9e>
     890:	00 00       	nop
				_delay_ms(250);
				LED(1);
     892:	8d 9a       	sbi	0x11, 5	; 17
				
				s_nextwrite_mightbeparameterset = true;
     894:	c0 93 26 01 	sts	0x0126, r28	; 0x800126 <s_nextwrite_mightbeparameterset>
				break;
     898:	32 c1       	rjmp	.+612    	; 0xafe <EVENT_USB_Device_ControlRequest+0x30c>
	
	if ( ((USB_ControlRequest.wIndex == INTERFACE_ID_TestAndMeasurement) && ((USB_ControlRequest.bmRequestType & REQREC_INTERFACE)!=0)) ||
	     (((USB_ControlRequest.wIndex == TMC_IN_EPADDR) || (USB_ControlRequest.wIndex == TMC_OUT_EPADDR)) && ((USB_ControlRequest.bmRequestType & REQREC_ENDPOINT)!=0))     )
	{
		/* Process TMC specific control requests */
		switch (USB_ControlRequest.bRequest)
     89a:	81 3a       	cpi	r24, 0xA1	; 161
     89c:	09 f4       	brne	.+2      	; 0x8a0 <EVENT_USB_Device_ControlRequest+0xae>
     89e:	0e c1       	rjmp	.+540    	; 0xabc <EVENT_USB_Device_ControlRequest+0x2ca>
     8a0:	82 3a       	cpi	r24, 0xA2	; 162
     8a2:	09 f4       	brne	.+2      	; 0x8a6 <EVENT_USB_Device_ControlRequest+0xb4>
     8a4:	fb c0       	rjmp	.+502    	; 0xa9c <EVENT_USB_Device_ControlRequest+0x2aa>
     8a6:	80 3a       	cpi	r24, 0xA0	; 160
     8a8:	09 f0       	breq	.+2      	; 0x8ac <EVENT_USB_Device_ControlRequest+0xba>
     8aa:	29 c1       	rjmp	.+594    	; 0xafe <EVENT_USB_Device_ControlRequest+0x30c>
     8ac:	f0 c0       	rjmp	.+480    	; 0xa8e <EVENT_USB_Device_ControlRequest+0x29c>
		{
			case Req_ReadStatusByte:
			
//Jump_To_Bootloader();			
				btag = USB_ControlRequest.wValue;
     8ae:	c0 91 e7 01 	lds	r28, 0x01E7	; 0x8001e7 <USB_ControlRequest+0x2>

uint32_t timeout_val;

void timeout_start(uint32_t timeout)
{
	timeout_val = timeout;
     8b2:	80 e5       	ldi	r24, 0x50	; 80
     8b4:	93 ec       	ldi	r25, 0xC3	; 195
     8b6:	a0 e0       	ldi	r26, 0x00	; 0
     8b8:	b0 e0       	ldi	r27, 0x00	; 0
     8ba:	80 93 75 01 	sts	0x0175, r24	; 0x800175 <timeout_val>
     8be:	90 93 76 01 	sts	0x0176, r25	; 0x800176 <timeout_val+0x1>
     8c2:	a0 93 77 01 	sts	0x0177, r26	; 0x800177 <timeout_val+0x2>
     8c6:	b0 93 78 01 	sts	0x0178, r27	; 0x800178 <timeout_val+0x3>
			
//Jump_To_Bootloader();			
				btag = USB_ControlRequest.wValue;

				timeout_start(50000); /* 0.5s timeout*/
				statusReg =  gpib_readStatusByte(gpib_addr, is_timedout);
     8ca:	65 e2       	ldi	r22, 0x25	; 37
     8cc:	71 e0       	ldi	r23, 0x01	; 1
     8ce:	80 91 02 01 	lds	r24, 0x0102	; 0x800102 <gpib_addr>
     8d2:	b8 d6       	rcall	.+3440   	; 0x1644 <gpib_readStatusByte>
			 *  \note This is not applicable for non CONTROL type endpoints.
			 */
			static inline void Endpoint_ClearSETUP(void) ATTR_ALWAYS_INLINE;
			static inline void Endpoint_ClearSETUP(void)
			{
				UEINTX &= ~(1 << RXSTPI);
     8d4:	90 91 e8 00 	lds	r25, 0x00E8	; 0x8000e8 <__TEXT_REGION_LENGTH__+0x7e00e8>
     8d8:	97 7f       	andi	r25, 0xF7	; 247
     8da:	90 93 e8 00 	sts	0x00E8, r25	; 0x8000e8 <__TEXT_REGION_LENGTH__+0x7e00e8>
			 *  \param[in] Data  Data to write into the the currently selected endpoint's FIFO buffer.
			 */
			static inline void Endpoint_Write_8(const uint8_t Data) ATTR_ALWAYS_INLINE;
			static inline void Endpoint_Write_8(const uint8_t Data)
			{
				UEDATX = Data;
     8de:	91 e0       	ldi	r25, 0x01	; 1
     8e0:	90 93 f1 00 	sts	0x00F1, r25	; 0x8000f1 <__TEXT_REGION_LENGTH__+0x7e00f1>
     8e4:	c0 93 f1 00 	sts	0x00F1, r28	; 0x8000f1 <__TEXT_REGION_LENGTH__+0x7e00f1>
     8e8:	00 c1       	rjmp	.+512    	; 0xaea <EVENT_USB_Device_ControlRequest+0x2f8>

	
				
				break;
			case Req_InitiateAbortBulkOut:
				if (USB_ControlRequest.bmRequestType == (REQDIR_DEVICETOHOST | REQTYPE_CLASS | REQREC_ENDPOINT))
     8ea:	90 91 e5 01 	lds	r25, 0x01E5	; 0x8001e5 <USB_ControlRequest>
     8ee:	92 3a       	cpi	r25, 0xA2	; 162
     8f0:	09 f0       	breq	.+2      	; 0x8f4 <EVENT_USB_Device_ControlRequest+0x102>
     8f2:	05 c1       	rjmp	.+522    	; 0xafe <EVENT_USB_Device_ControlRequest+0x30c>
				{
					/* Check that no split transaction is already in progress and the data transfer tag is valid */
					if (RequestInProgress != 0)
     8f4:	90 91 6c 01 	lds	r25, 0x016C	; 0x80016c <RequestInProgress>
     8f8:	91 11       	cpse	r25, r1
     8fa:	0e c0       	rjmp	.+28     	; 0x918 <EVENT_USB_Device_ControlRequest+0x126>
					{
						TMCRequestStatus = TMC_STATUS_SPLIT_IN_PROGRESS;
					}
					else if (USB_ControlRequest.wValue != CurrentTransferTag)
     8fc:	20 91 69 01 	lds	r18, 0x0169	; 0x800169 <CurrentTransferTag>
     900:	30 e0       	ldi	r19, 0x00	; 0
     902:	40 91 e7 01 	lds	r20, 0x01E7	; 0x8001e7 <USB_ControlRequest+0x2>
     906:	50 91 e8 01 	lds	r21, 0x01E8	; 0x8001e8 <USB_ControlRequest+0x3>
     90a:	42 17       	cp	r20, r18
     90c:	53 07       	cpc	r21, r19
     90e:	31 f4       	brne	.+12     	; 0x91c <EVENT_USB_Device_ControlRequest+0x12a>
					{
						/* Indicate that all in-progress/pending data OUT requests should be aborted */
						IsTMCBulkOUTReset = true;

						/* Save the split request for later checking when a new request is received */
						RequestInProgress = Req_InitiateAbortBulkOut;
     910:	80 93 6c 01 	sts	0x016C, r24	; 0x80016c <RequestInProgress>
 *  the device from the USB host before passing along unhandled control requests to the library for processing
 *  internally.
 */
void EVENT_USB_Device_ControlRequest(void)
{
	uint8_t TMCRequestStatus = TMC_STATUS_SUCCESS;
     914:	81 e0       	ldi	r24, 0x01	; 1
     916:	03 c0       	rjmp	.+6      	; 0x91e <EVENT_USB_Device_ControlRequest+0x12c>
				if (USB_ControlRequest.bmRequestType == (REQDIR_DEVICETOHOST | REQTYPE_CLASS | REQREC_ENDPOINT))
				{
					/* Check that no split transaction is already in progress and the data transfer tag is valid */
					if (RequestInProgress != 0)
					{
						TMCRequestStatus = TMC_STATUS_SPLIT_IN_PROGRESS;
     918:	83 e8       	ldi	r24, 0x83	; 131
     91a:	01 c0       	rjmp	.+2      	; 0x91e <EVENT_USB_Device_ControlRequest+0x12c>
					}
					else if (USB_ControlRequest.wValue != CurrentTransferTag)
					{
						TMCRequestStatus = TMC_STATUS_TRANSFER_NOT_IN_PROGRESS;
     91c:	81 e8       	ldi	r24, 0x81	; 129
						IsTMCBulkOUTReset = true;

						/* Save the split request for later checking when a new request is received */
						RequestInProgress = Req_InitiateAbortBulkOut;
					}
IsTMCBulkOUTReset = true;
     91e:	91 e0       	ldi	r25, 0x01	; 1
     920:	90 93 6a 01 	sts	0x016A, r25	; 0x80016a <IsTMCBulkOUTReset>
			 *  \note This is not applicable for non CONTROL type endpoints.
			 */
			static inline void Endpoint_ClearSETUP(void) ATTR_ALWAYS_INLINE;
			static inline void Endpoint_ClearSETUP(void)
			{
				UEINTX &= ~(1 << RXSTPI);
     924:	90 91 e8 00 	lds	r25, 0x00E8	; 0x8000e8 <__TEXT_REGION_LENGTH__+0x7e00e8>
     928:	97 7f       	andi	r25, 0xF7	; 247
     92a:	90 93 e8 00 	sts	0x00E8, r25	; 0x8000e8 <__TEXT_REGION_LENGTH__+0x7e00e8>
     92e:	dd c0       	rjmp	.+442    	; 0xaea <EVENT_USB_Device_ControlRequest+0x2f8>
//Endpoint_ResetEndpoint(TMC_IN_EPADDR);
				}

				break;
			case Req_CheckAbortBulkOutStatus:
				if (USB_ControlRequest.bmRequestType == (REQDIR_DEVICETOHOST | REQTYPE_CLASS | REQREC_ENDPOINT))
     930:	80 91 e5 01 	lds	r24, 0x01E5	; 0x8001e5 <USB_ControlRequest>
     934:	82 3a       	cpi	r24, 0xA2	; 162
     936:	09 f0       	breq	.+2      	; 0x93a <EVENT_USB_Device_ControlRequest+0x148>
     938:	e2 c0       	rjmp	.+452    	; 0xafe <EVENT_USB_Device_ControlRequest+0x30c>
				{
					/* Check that an ABORT BULK OUT transaction has been requested and that the request has completed */
					if (RequestInProgress != Req_InitiateAbortBulkOut)
     93a:	80 91 6c 01 	lds	r24, 0x016C	; 0x80016c <RequestInProgress>
     93e:	81 30       	cpi	r24, 0x01	; 1
     940:	d9 f5       	brne	.+118    	; 0x9b8 <EVENT_USB_Device_ControlRequest+0x1c6>
					  TMCRequestStatus = TMC_STATUS_SPLIT_NOT_IN_PROGRESS;
					else if (IsTMCBulkOUTReset)
     942:	80 91 6a 01 	lds	r24, 0x016A	; 0x80016a <IsTMCBulkOUTReset>
     946:	32 c0       	rjmp	.+100    	; 0x9ac <EVENT_USB_Device_ControlRequest+0x1ba>
					Endpoint_ClearStatusStage();
				}

				break;
			case Req_InitiateAbortBulkIn:
				if (USB_ControlRequest.bmRequestType == (REQDIR_DEVICETOHOST | REQTYPE_CLASS | REQREC_ENDPOINT))
     948:	90 91 e5 01 	lds	r25, 0x01E5	; 0x8001e5 <USB_ControlRequest>
     94c:	92 3a       	cpi	r25, 0xA2	; 162
     94e:	09 f0       	breq	.+2      	; 0x952 <EVENT_USB_Device_ControlRequest+0x160>
     950:	d6 c0       	rjmp	.+428    	; 0xafe <EVENT_USB_Device_ControlRequest+0x30c>
				{
					/* Check that no split transaction is already in progress and the data transfer tag is valid */
					if (RequestInProgress != 0)
     952:	90 91 6c 01 	lds	r25, 0x016C	; 0x80016c <RequestInProgress>
     956:	91 11       	cpse	r25, r1
     958:	0e c0       	rjmp	.+28     	; 0x976 <EVENT_USB_Device_ControlRequest+0x184>
					{
						TMCRequestStatus = TMC_STATUS_SPLIT_IN_PROGRESS;
					}
					else if (USB_ControlRequest.wValue != CurrentTransferTag)
     95a:	20 91 69 01 	lds	r18, 0x0169	; 0x800169 <CurrentTransferTag>
     95e:	30 e0       	ldi	r19, 0x00	; 0
     960:	40 91 e7 01 	lds	r20, 0x01E7	; 0x8001e7 <USB_ControlRequest+0x2>
     964:	50 91 e8 01 	lds	r21, 0x01E8	; 0x8001e8 <USB_ControlRequest+0x3>
     968:	42 17       	cp	r20, r18
     96a:	53 07       	cpc	r21, r19
     96c:	31 f4       	brne	.+12     	; 0x97a <EVENT_USB_Device_ControlRequest+0x188>
					{
						/* Indicate that all in-progress/pending data IN requests should be aborted */
						IsTMCBulkINReset = true;

						/* Save the split request for later checking when a new request is received */
						RequestInProgress = Req_InitiateAbortBulkIn;
     96e:	80 93 6c 01 	sts	0x016C, r24	; 0x80016c <RequestInProgress>
 *  the device from the USB host before passing along unhandled control requests to the library for processing
 *  internally.
 */
void EVENT_USB_Device_ControlRequest(void)
{
	uint8_t TMCRequestStatus = TMC_STATUS_SUCCESS;
     972:	81 e0       	ldi	r24, 0x01	; 1
     974:	03 c0       	rjmp	.+6      	; 0x97c <EVENT_USB_Device_ControlRequest+0x18a>
				if (USB_ControlRequest.bmRequestType == (REQDIR_DEVICETOHOST | REQTYPE_CLASS | REQREC_ENDPOINT))
				{
					/* Check that no split transaction is already in progress and the data transfer tag is valid */
					if (RequestInProgress != 0)
					{
						TMCRequestStatus = TMC_STATUS_SPLIT_IN_PROGRESS;
     976:	83 e8       	ldi	r24, 0x83	; 131
     978:	01 c0       	rjmp	.+2      	; 0x97c <EVENT_USB_Device_ControlRequest+0x18a>
					}
					else if (USB_ControlRequest.wValue != CurrentTransferTag)
					{
						TMCRequestStatus = TMC_STATUS_TRANSFER_NOT_IN_PROGRESS;
     97a:	81 e8       	ldi	r24, 0x81	; 129
						IsTMCBulkINReset = true;

						/* Save the split request for later checking when a new request is received */
						RequestInProgress = Req_InitiateAbortBulkIn;
					}
					IsTMCBulkINReset = true;
     97c:	91 e0       	ldi	r25, 0x01	; 1
     97e:	90 93 6b 01 	sts	0x016B, r25	; 0x80016b <IsTMCBulkINReset>
     982:	90 91 e8 00 	lds	r25, 0x00E8	; 0x8000e8 <__TEXT_REGION_LENGTH__+0x7e00e8>
     986:	97 7f       	andi	r25, 0xF7	; 247
     988:	90 93 e8 00 	sts	0x00E8, r25	; 0x8000e8 <__TEXT_REGION_LENGTH__+0x7e00e8>
			 *  \param[in] Data  Data to write into the the currently selected endpoint's FIFO buffer.
			 */
			static inline void Endpoint_Write_8(const uint8_t Data) ATTR_ALWAYS_INLINE;
			static inline void Endpoint_Write_8(const uint8_t Data)
			{
				UEDATX = Data;
     98c:	80 93 f1 00 	sts	0x00F1, r24	; 0x8000f1 <__TEXT_REGION_LENGTH__+0x7e00f1>

					Endpoint_ClearSETUP();

					/* Write the request response bytes */
					Endpoint_Write_8(TMCRequestStatus);
					Endpoint_Write_8(CurrentTransferTag);
     990:	80 91 69 01 	lds	r24, 0x0169	; 0x800169 <CurrentTransferTag>
     994:	aa c0       	rjmp	.+340    	; 0xaea <EVENT_USB_Device_ControlRequest+0x2f8>
#endif
				}

				break;
			case Req_CheckAbortBulkInStatus:
				if (USB_ControlRequest.bmRequestType == (REQDIR_DEVICETOHOST | REQTYPE_CLASS | REQREC_ENDPOINT))
     996:	80 91 e5 01 	lds	r24, 0x01E5	; 0x8001e5 <USB_ControlRequest>
     99a:	82 3a       	cpi	r24, 0xA2	; 162
     99c:	09 f0       	breq	.+2      	; 0x9a0 <EVENT_USB_Device_ControlRequest+0x1ae>
     99e:	af c0       	rjmp	.+350    	; 0xafe <EVENT_USB_Device_ControlRequest+0x30c>
				{
					/* Check that an ABORT BULK IN transaction has been requested and that the request has completed */
					if (RequestInProgress != Req_InitiateAbortBulkIn)
     9a0:	80 91 6c 01 	lds	r24, 0x016C	; 0x80016c <RequestInProgress>
     9a4:	83 30       	cpi	r24, 0x03	; 3
     9a6:	41 f4       	brne	.+16     	; 0x9b8 <EVENT_USB_Device_ControlRequest+0x1c6>
					  TMCRequestStatus = TMC_STATUS_SPLIT_NOT_IN_PROGRESS;
					else if (IsTMCBulkINReset)
     9a8:	80 91 6b 01 	lds	r24, 0x016B	; 0x80016b <IsTMCBulkINReset>
     9ac:	81 11       	cpse	r24, r1
     9ae:	06 c0       	rjmp	.+12     	; 0x9bc <EVENT_USB_Device_ControlRequest+0x1ca>
					  TMCRequestStatus = TMC_STATUS_PENDING;
					else
					  RequestInProgress = 0;
     9b0:	10 92 6c 01 	sts	0x016C, r1	; 0x80016c <RequestInProgress>
 *  the device from the USB host before passing along unhandled control requests to the library for processing
 *  internally.
 */
void EVENT_USB_Device_ControlRequest(void)
{
	uint8_t TMCRequestStatus = TMC_STATUS_SUCCESS;
     9b4:	81 e0       	ldi	r24, 0x01	; 1
     9b6:	03 c0       	rjmp	.+6      	; 0x9be <EVENT_USB_Device_ControlRequest+0x1cc>
			case Req_CheckAbortBulkInStatus:
				if (USB_ControlRequest.bmRequestType == (REQDIR_DEVICETOHOST | REQTYPE_CLASS | REQREC_ENDPOINT))
				{
					/* Check that an ABORT BULK IN transaction has been requested and that the request has completed */
					if (RequestInProgress != Req_InitiateAbortBulkIn)
					  TMCRequestStatus = TMC_STATUS_SPLIT_NOT_IN_PROGRESS;
     9b8:	82 e8       	ldi	r24, 0x82	; 130
     9ba:	01 c0       	rjmp	.+2      	; 0x9be <EVENT_USB_Device_ControlRequest+0x1cc>
					else if (IsTMCBulkINReset)
					  TMCRequestStatus = TMC_STATUS_PENDING;
     9bc:	82 e0       	ldi	r24, 0x02	; 2
			 *  \note This is not applicable for non CONTROL type endpoints.
			 */
			static inline void Endpoint_ClearSETUP(void) ATTR_ALWAYS_INLINE;
			static inline void Endpoint_ClearSETUP(void)
			{
				UEINTX &= ~(1 << RXSTPI);
     9be:	90 91 e8 00 	lds	r25, 0x00E8	; 0x8000e8 <__TEXT_REGION_LENGTH__+0x7e00e8>
     9c2:	97 7f       	andi	r25, 0xF7	; 247
     9c4:	90 93 e8 00 	sts	0x00E8, r25	; 0x8000e8 <__TEXT_REGION_LENGTH__+0x7e00e8>
			 *  \param[in] Data  Data to write into the the currently selected endpoint's FIFO buffer.
			 */
			static inline void Endpoint_Write_8(const uint8_t Data) ATTR_ALWAYS_INLINE;
			static inline void Endpoint_Write_8(const uint8_t Data)
			{
				UEDATX = Data;
     9c8:	80 93 f1 00 	sts	0x00F1, r24	; 0x8000f1 <__TEXT_REGION_LENGTH__+0x7e00f1>
			 *  \param[in] Data  Data to write to the currently selected endpoint's FIFO buffer.
			 */
			static inline void Endpoint_Write_16_LE(const uint16_t Data) ATTR_ALWAYS_INLINE;
			static inline void Endpoint_Write_16_LE(const uint16_t Data)
			{
				UEDATX = (Data & 0xFF);
     9cc:	10 92 f1 00 	sts	0x00F1, r1	; 0x8000f1 <__TEXT_REGION_LENGTH__+0x7e00f1>
				UEDATX = (Data >> 8);
     9d0:	10 92 f1 00 	sts	0x00F1, r1	; 0x8000f1 <__TEXT_REGION_LENGTH__+0x7e00f1>
					Endpoint_ClearSETUP();

					/* Write the request response bytes */
					Endpoint_Write_8(TMCRequestStatus);
					Endpoint_Write_16_LE(0);
					Endpoint_Write_32_LE(LastTransferLength);
     9d4:	80 91 67 01 	lds	r24, 0x0167	; 0x800167 <LastTransferLength>
     9d8:	90 91 68 01 	lds	r25, 0x0168	; 0x800168 <LastTransferLength+0x1>
			 *  \param[in] Data  Data to write to the currently selected endpoint's FIFO buffer.
			 */
			static inline void Endpoint_Write_32_LE(const uint32_t Data) ATTR_ALWAYS_INLINE;
			static inline void Endpoint_Write_32_LE(const uint32_t Data)
			{
				UEDATX = (Data &  0xFF);
     9dc:	80 93 f1 00 	sts	0x00F1, r24	; 0x8000f1 <__TEXT_REGION_LENGTH__+0x7e00f1>
				UEDATX = (Data >> 8);
     9e0:	a0 e0       	ldi	r26, 0x00	; 0
     9e2:	b0 e0       	ldi	r27, 0x00	; 0
     9e4:	89 2f       	mov	r24, r25
     9e6:	9a 2f       	mov	r25, r26
     9e8:	ab 2f       	mov	r26, r27
     9ea:	bb 27       	eor	r27, r27
     9ec:	80 93 f1 00 	sts	0x00F1, r24	; 0x8000f1 <__TEXT_REGION_LENGTH__+0x7e00f1>
				UEDATX = (Data >> 16);
     9f0:	10 92 f1 00 	sts	0x00F1, r1	; 0x8000f1 <__TEXT_REGION_LENGTH__+0x7e00f1>
     9f4:	34 c0       	rjmp	.+104    	; 0xa5e <EVENT_USB_Device_ControlRequest+0x26c>
					Endpoint_ClearStatusStage();
				}

				break;
			case Req_InitiateClear:
				if (USB_ControlRequest.bmRequestType == (REQDIR_DEVICETOHOST | REQTYPE_CLASS | REQREC_INTERFACE))
     9f6:	90 91 e5 01 	lds	r25, 0x01E5	; 0x8001e5 <USB_ControlRequest>
     9fa:	91 3a       	cpi	r25, 0xA1	; 161
     9fc:	09 f0       	breq	.+2      	; 0xa00 <EVENT_USB_Device_ControlRequest+0x20e>
     9fe:	7f c0       	rjmp	.+254    	; 0xafe <EVENT_USB_Device_ControlRequest+0x30c>
				{
					/* Check that no split transaction is already in progress */
					if (RequestInProgress != 0)
     a00:	90 91 6c 01 	lds	r25, 0x016C	; 0x80016c <RequestInProgress>
     a04:	99 23       	and	r25, r25
     a06:	21 f0       	breq	.+8      	; 0xa10 <EVENT_USB_Device_ControlRequest+0x21e>
			 *  \param[in] Data  Data to write into the the currently selected endpoint's FIFO buffer.
			 */
			static inline void Endpoint_Write_8(const uint8_t Data) ATTR_ALWAYS_INLINE;
			static inline void Endpoint_Write_8(const uint8_t Data)
			{
				UEDATX = Data;
     a08:	83 e8       	ldi	r24, 0x83	; 131
     a0a:	80 93 f1 00 	sts	0x00F1, r24	; 0x8000f1 <__TEXT_REGION_LENGTH__+0x7e00f1>
     a0e:	67 c0       	rjmp	.+206    	; 0xade <EVENT_USB_Device_ControlRequest+0x2ec>
						Endpoint_Write_8(TMC_STATUS_SPLIT_IN_PROGRESS);
					}
					else
					{
						/* Indicate that all in-progress/pending data IN and OUT requests should be aborted */
						IsTMCBulkINReset  = true;
     a10:	91 e0       	ldi	r25, 0x01	; 1
     a12:	90 93 6b 01 	sts	0x016B, r25	; 0x80016b <IsTMCBulkINReset>
						IsTMCBulkOUTReset = true;
     a16:	90 93 6a 01 	sts	0x016A, r25	; 0x80016a <IsTMCBulkOUTReset>

						/* Save the split request for later checking when a new request is received */
						RequestInProgress = Req_InitiateClear;
     a1a:	80 93 6c 01 	sts	0x016C, r24	; 0x80016c <RequestInProgress>
     a1e:	5f c0       	rjmp	.+190    	; 0xade <EVENT_USB_Device_ControlRequest+0x2ec>
					Endpoint_ClearStatusStage();
				}

				break;
			case Req_CheckClearStatus:
				if (USB_ControlRequest.bmRequestType == (REQDIR_DEVICETOHOST | REQTYPE_CLASS | REQREC_INTERFACE))
     a20:	80 91 e5 01 	lds	r24, 0x01E5	; 0x8001e5 <USB_ControlRequest>
     a24:	81 3a       	cpi	r24, 0xA1	; 161
     a26:	09 f0       	breq	.+2      	; 0xa2a <EVENT_USB_Device_ControlRequest+0x238>
     a28:	6a c0       	rjmp	.+212    	; 0xafe <EVENT_USB_Device_ControlRequest+0x30c>
				{
					/* Check that a CLEAR transaction has been requested and that the request has completed */
					if (RequestInProgress != Req_InitiateClear)
     a2a:	80 91 6c 01 	lds	r24, 0x016C	; 0x80016c <RequestInProgress>
     a2e:	85 30       	cpi	r24, 0x05	; 5
     a30:	61 f4       	brne	.+24     	; 0xa4a <EVENT_USB_Device_ControlRequest+0x258>
						TMCRequestStatus = TMC_STATUS_SPLIT_NOT_IN_PROGRESS;
					else if (IsTMCBulkINReset || IsTMCBulkOUTReset)
     a32:	80 91 6b 01 	lds	r24, 0x016B	; 0x80016b <IsTMCBulkINReset>
     a36:	81 11       	cpse	r24, r1
     a38:	0a c0       	rjmp	.+20     	; 0xa4e <EVENT_USB_Device_ControlRequest+0x25c>
     a3a:	80 91 6a 01 	lds	r24, 0x016A	; 0x80016a <IsTMCBulkOUTReset>
     a3e:	81 11       	cpse	r24, r1
     a40:	06 c0       	rjmp	.+12     	; 0xa4e <EVENT_USB_Device_ControlRequest+0x25c>
						TMCRequestStatus = TMC_STATUS_PENDING;
					else
						RequestInProgress = 0;
     a42:	10 92 6c 01 	sts	0x016C, r1	; 0x80016c <RequestInProgress>
 *  the device from the USB host before passing along unhandled control requests to the library for processing
 *  internally.
 */
void EVENT_USB_Device_ControlRequest(void)
{
	uint8_t TMCRequestStatus = TMC_STATUS_SUCCESS;
     a46:	81 e0       	ldi	r24, 0x01	; 1
     a48:	03 c0       	rjmp	.+6      	; 0xa50 <EVENT_USB_Device_ControlRequest+0x25e>
			case Req_CheckClearStatus:
				if (USB_ControlRequest.bmRequestType == (REQDIR_DEVICETOHOST | REQTYPE_CLASS | REQREC_INTERFACE))
				{
					/* Check that a CLEAR transaction has been requested and that the request has completed */
					if (RequestInProgress != Req_InitiateClear)
						TMCRequestStatus = TMC_STATUS_SPLIT_NOT_IN_PROGRESS;
     a4a:	82 e8       	ldi	r24, 0x82	; 130
     a4c:	01 c0       	rjmp	.+2      	; 0xa50 <EVENT_USB_Device_ControlRequest+0x25e>
					else if (IsTMCBulkINReset || IsTMCBulkOUTReset)
						TMCRequestStatus = TMC_STATUS_PENDING;
     a4e:	82 e0       	ldi	r24, 0x02	; 2
			 *  \note This is not applicable for non CONTROL type endpoints.
			 */
			static inline void Endpoint_ClearSETUP(void) ATTR_ALWAYS_INLINE;
			static inline void Endpoint_ClearSETUP(void)
			{
				UEINTX &= ~(1 << RXSTPI);
     a50:	90 91 e8 00 	lds	r25, 0x00E8	; 0x8000e8 <__TEXT_REGION_LENGTH__+0x7e00e8>
     a54:	97 7f       	andi	r25, 0xF7	; 247
     a56:	90 93 e8 00 	sts	0x00E8, r25	; 0x8000e8 <__TEXT_REGION_LENGTH__+0x7e00e8>
			 *  \param[in] Data  Data to write into the the currently selected endpoint's FIFO buffer.
			 */
			static inline void Endpoint_Write_8(const uint8_t Data) ATTR_ALWAYS_INLINE;
			static inline void Endpoint_Write_8(const uint8_t Data)
			{
				UEDATX = Data;
     a5a:	80 93 f1 00 	sts	0x00F1, r24	; 0x8000f1 <__TEXT_REGION_LENGTH__+0x7e00f1>
     a5e:	10 92 f1 00 	sts	0x00F1, r1	; 0x8000f1 <__TEXT_REGION_LENGTH__+0x7e00f1>
     a62:	45 c0       	rjmp	.+138    	; 0xaee <EVENT_USB_Device_ControlRequest+0x2fc>
					Endpoint_ClearStatusStage();
				}

				break;
			case Req_GetCapabilities:
				if (USB_ControlRequest.bmRequestType == (REQDIR_DEVICETOHOST | REQTYPE_CLASS | REQREC_INTERFACE))
     a64:	80 91 e5 01 	lds	r24, 0x01E5	; 0x8001e5 <USB_ControlRequest>
     a68:	81 3a       	cpi	r24, 0xA1	; 161
     a6a:	09 f0       	breq	.+2      	; 0xa6e <EVENT_USB_Device_ControlRequest+0x27c>
     a6c:	48 c0       	rjmp	.+144    	; 0xafe <EVENT_USB_Device_ControlRequest+0x30c>
			 *  \note This is not applicable for non CONTROL type endpoints.
			 */
			static inline void Endpoint_ClearSETUP(void) ATTR_ALWAYS_INLINE;
			static inline void Endpoint_ClearSETUP(void)
			{
				UEINTX &= ~(1 << RXSTPI);
     a6e:	80 91 e8 00 	lds	r24, 0x00E8	; 0x8000e8 <__TEXT_REGION_LENGTH__+0x7e00e8>
     a72:	87 7f       	andi	r24, 0xF7	; 247
     a74:	80 93 e8 00 	sts	0x00E8, r24	; 0x8000e8 <__TEXT_REGION_LENGTH__+0x7e00e8>
				{
					Endpoint_ClearSETUP();

					/* Write the device capabilities to the control endpoint */
					Endpoint_Write_Control_Stream_LE(&Capabilities, sizeof(TMC_Capabilities_t));
     a78:	68 e1       	ldi	r22, 0x18	; 24
     a7a:	70 e0       	ldi	r23, 0x00	; 0
     a7c:	83 e0       	ldi	r24, 0x03	; 3
     a7e:	91 e0       	ldi	r25, 0x01	; 1
     a80:	77 d7       	rcall	.+3822   	; 0x1970 <Endpoint_Write_Control_Stream_LE>
			 */
			static inline void Endpoint_ClearOUT(void) ATTR_ALWAYS_INLINE;
			static inline void Endpoint_ClearOUT(void)
			{
				#if !defined(CONTROL_ONLY_DEVICE)
					UEINTX &= ~((1 << RXOUTI) | (1 << FIFOCON));
     a82:	80 91 e8 00 	lds	r24, 0x00E8	; 0x8000e8 <__TEXT_REGION_LENGTH__+0x7e00e8>
     a86:	8b 77       	andi	r24, 0x7B	; 123
     a88:	80 93 e8 00 	sts	0x00E8, r24	; 0x8000e8 <__TEXT_REGION_LENGTH__+0x7e00e8>
     a8c:	38 c0       	rjmp	.+112    	; 0xafe <EVENT_USB_Device_ControlRequest+0x30c>
				
				s_nextwrite_mightbeparameterset = true;
				break;

			case Req_RenControl:
				if ((USB_ControlRequest.wValue & 0xff) == 1)
     a8e:	80 91 e7 01 	lds	r24, 0x01E7	; 0x8001e7 <USB_ControlRequest+0x2>
     a92:	81 30       	cpi	r24, 0x01	; 1
				{
					gpib_ren(1);
				}
				else
				{
					gpib_ren(0);
     a94:	09 f0       	breq	.+2      	; 0xa98 <EVENT_USB_Device_ControlRequest+0x2a6>
     a96:	80 e0       	ldi	r24, 0x00	; 0
     a98:	b6 d4       	rcall	.+2412   	; 0x1406 <gpib_ren>
     a9a:	21 c0       	rjmp	.+66     	; 0xade <EVENT_USB_Device_ControlRequest+0x2ec>

uint32_t timeout_val;

void timeout_start(uint32_t timeout)
{
	timeout_val = timeout;
     a9c:	80 e5       	ldi	r24, 0x50	; 80
     a9e:	93 ec       	ldi	r25, 0xC3	; 195
     aa0:	a0 e0       	ldi	r26, 0x00	; 0
     aa2:	b0 e0       	ldi	r27, 0x00	; 0
     aa4:	80 93 75 01 	sts	0x0175, r24	; 0x800175 <timeout_val>
     aa8:	90 93 76 01 	sts	0x0176, r25	; 0x800176 <timeout_val+0x1>
     aac:	a0 93 77 01 	sts	0x0177, r26	; 0x800177 <timeout_val+0x2>
     ab0:	b0 93 78 01 	sts	0x0178, r27	; 0x800178 <timeout_val+0x3>
				Endpoint_ClearIN();
				Endpoint_ClearStatusStage();
				break;
			case Req_LocalLockout:
				timeout_start(50000); /* 0.5s timeout*/
				gpib_localLockout(is_timedout);
     ab4:	85 e2       	ldi	r24, 0x25	; 37
     ab6:	91 e0       	ldi	r25, 0x01	; 1
     ab8:	70 d5       	rcall	.+2784   	; 0x159a <gpib_localLockout>
     aba:	11 c0       	rjmp	.+34     	; 0xade <EVENT_USB_Device_ControlRequest+0x2ec>

uint32_t timeout_val;

void timeout_start(uint32_t timeout)
{
	timeout_val = timeout;
     abc:	80 e5       	ldi	r24, 0x50	; 80
     abe:	93 ec       	ldi	r25, 0xC3	; 195
     ac0:	a0 e0       	ldi	r26, 0x00	; 0
     ac2:	b0 e0       	ldi	r27, 0x00	; 0
     ac4:	80 93 75 01 	sts	0x0175, r24	; 0x800175 <timeout_val>
     ac8:	90 93 76 01 	sts	0x0176, r25	; 0x800176 <timeout_val+0x1>
     acc:	a0 93 77 01 	sts	0x0177, r26	; 0x800177 <timeout_val+0x2>
     ad0:	b0 93 78 01 	sts	0x0178, r27	; 0x800178 <timeout_val+0x3>
				Endpoint_ClearIN();
				Endpoint_ClearStatusStage();
				break;
			case Req_GoToLocal:
				timeout_start(50000); /* 0.5s timeout*/
				gpib_gotoLocal(gpib_addr, is_timedout);
     ad4:	65 e2       	ldi	r22, 0x25	; 37
     ad6:	71 e0       	ldi	r23, 0x01	; 1
     ad8:	80 91 02 01 	lds	r24, 0x0102	; 0x800102 <gpib_addr>
     adc:	4a d5       	rcall	.+2708   	; 0x1572 <gpib_gotoLocal>
			 *  \note This is not applicable for non CONTROL type endpoints.
			 */
			static inline void Endpoint_ClearSETUP(void) ATTR_ALWAYS_INLINE;
			static inline void Endpoint_ClearSETUP(void)
			{
				UEINTX &= ~(1 << RXSTPI);
     ade:	80 91 e8 00 	lds	r24, 0x00E8	; 0x8000e8 <__TEXT_REGION_LENGTH__+0x7e00e8>
     ae2:	87 7f       	andi	r24, 0xF7	; 247
     ae4:	80 93 e8 00 	sts	0x00E8, r24	; 0x8000e8 <__TEXT_REGION_LENGTH__+0x7e00e8>
			 *  \param[in] Data  Data to write into the the currently selected endpoint's FIFO buffer.
			 */
			static inline void Endpoint_Write_8(const uint8_t Data) ATTR_ALWAYS_INLINE;
			static inline void Endpoint_Write_8(const uint8_t Data)
			{
				UEDATX = Data;
     ae8:	81 e0       	ldi	r24, 0x01	; 1
     aea:	80 93 f1 00 	sts	0x00F1, r24	; 0x8000f1 <__TEXT_REGION_LENGTH__+0x7e00f1>
			 */
			static inline void Endpoint_ClearIN(void) ATTR_ALWAYS_INLINE;
			static inline void Endpoint_ClearIN(void)
			{
				#if !defined(CONTROL_ONLY_DEVICE)
					UEINTX &= ~((1 << TXINI) | (1 << FIFOCON));
     aee:	80 91 e8 00 	lds	r24, 0x00E8	; 0x8000e8 <__TEXT_REGION_LENGTH__+0x7e00e8>
     af2:	8e 77       	andi	r24, 0x7E	; 126
     af4:	80 93 e8 00 	sts	0x00E8, r24	; 0x8000e8 <__TEXT_REGION_LENGTH__+0x7e00e8>
				Endpoint_ClearIN();
				Endpoint_ClearStatusStage();
				break;
		}
	}
}
     af8:	cf 91       	pop	r28
				
				Endpoint_ClearSETUP();
				/* USBTMC Status response (1 Byte) */
				Endpoint_Write_8(TMC_STATUS_SUCCESS);
				Endpoint_ClearIN();
				Endpoint_ClearStatusStage();
     afa:	0c 94 25 0e 	jmp	0x1c4a	; 0x1c4a <Endpoint_ClearStatusStage>
				break;
		}
	}
}
     afe:	cf 91       	pop	r28
     b00:	08 95       	ret

00000b02 <ProcessInternalCommand>:
					0x00 or 0xff => EOI termination
					0x01         => EOI or '\n' (LF = linefeed)
					0x02         => EOI or '\r' (CR = carriage return)
*/
void ProcessInternalCommand(uint8_t* const Data, uint8_t Length)
{
     b02:	0f 93       	push	r16
     b04:	1f 93       	push	r17
     b06:	cf 93       	push	r28
     b08:	df 93       	push	r29
     b0a:	ec 01       	movw	r28, r24
	uint8_t xx, yy;
	
	xx = charToval(Data[1])*16 + charToval(Data[2]);
     b0c:	89 81       	ldd	r24, Y+1	; 0x01
     b0e:	8a db       	rcall	.-2284   	; 0x224 <charToval>
     b10:	18 2f       	mov	r17, r24
     b12:	8a 81       	ldd	r24, Y+2	; 0x02
     b14:	87 db       	rcall	.-2290   	; 0x224 <charToval>
     b16:	90 e1       	ldi	r25, 0x10	; 16
     b18:	19 9f       	mul	r17, r25
     b1a:	80 0d       	add	r24, r0
     b1c:	11 24       	eor	r1, r1
     b1e:	18 2f       	mov	r17, r24
	yy = charToval(Data[3])*16 + charToval(Data[4]);
     b20:	8b 81       	ldd	r24, Y+3	; 0x03
     b22:	80 db       	rcall	.-2304   	; 0x224 <charToval>
     b24:	08 2f       	mov	r16, r24
     b26:	8c 81       	ldd	r24, Y+4	; 0x04
     b28:	7d db       	rcall	.-2310   	; 0x224 <charToval>
     b2a:	68 2f       	mov	r22, r24
     b2c:	90 e1       	ldi	r25, 0x10	; 16
     b2e:	09 9f       	mul	r16, r25
     b30:	60 0d       	add	r22, r0
     b32:	11 24       	eor	r1, r1
     b34:	11 23       	and	r17, r17
	
	switch (xx)
     b36:	19 f0       	breq	.+6      	; 0xb3e <ProcessInternalCommand+0x3c>
     b38:	11 30       	cpi	r17, 0x01	; 1
     b3a:	41 f0       	breq	.+16     	; 0xb4c <ProcessInternalCommand+0x4a>
     b3c:	21 c0       	rjmp	.+66     	; 0xb80 <ProcessInternalCommand+0x7e>
     b3e:	88 e6       	ldi	r24, 0x68	; 104
	{
		case 0x00: /* automatic detection y */
			eeprom_update_if_changed(104, yy);
     b40:	90 e0       	ldi	r25, 0x00	; 0
     b42:	df 91       	pop	r29
					gpib_set_readtermination('\0');
					break;
			}
			break;
	}
}
     b44:	cf 91       	pop	r28
     b46:	1f 91       	pop	r17
     b48:	0f 91       	pop	r16
	yy = charToval(Data[3])*16 + charToval(Data[4]);
	
	switch (xx)
	{
		case 0x00: /* automatic detection y */
			eeprom_update_if_changed(104, yy);
     b4a:	06 ce       	rjmp	.-1012   	; 0x758 <eeprom_update_if_changed>
     b4c:	61 30       	cpi	r22, 0x01	; 1
			break;
		case 0x01: /* select termination method */
			switch (yy)
     b4e:	41 f0       	breq	.+16     	; 0xb60 <ProcessInternalCommand+0x5e>
     b50:	62 30       	cpi	r22, 0x02	; 2
     b52:	61 f4       	brne	.+24     	; 0xb6c <ProcessInternalCommand+0x6a>
				case 0x01: /* \n */
					eeprom_update_if_changed(105, '\n');
					gpib_set_readtermination('\n');
					break;
				case 0x02: /* \r */
					eeprom_update_if_changed(105, '\r');
     b54:	6d e0       	ldi	r22, 0x0D	; 13
     b56:	89 e6       	ldi	r24, 0x69	; 105
     b58:	90 e0       	ldi	r25, 0x00	; 0
     b5a:	fe dd       	rcall	.-1028   	; 0x758 <eeprom_update_if_changed>
					gpib_set_readtermination('\r');
     b5c:	8d e0       	ldi	r24, 0x0D	; 13
     b5e:	0b c0       	rjmp	.+22     	; 0xb76 <ProcessInternalCommand+0x74>
			break;
		case 0x01: /* select termination method */
			switch (yy)
			{
				case 0x01: /* \n */
					eeprom_update_if_changed(105, '\n');
     b60:	6a e0       	ldi	r22, 0x0A	; 10
     b62:	89 e6       	ldi	r24, 0x69	; 105
     b64:	90 e0       	ldi	r25, 0x00	; 0
     b66:	f8 dd       	rcall	.-1040   	; 0x758 <eeprom_update_if_changed>
					gpib_set_readtermination('\n');
     b68:	8a e0       	ldi	r24, 0x0A	; 10
     b6a:	05 c0       	rjmp	.+10     	; 0xb76 <ProcessInternalCommand+0x74>
				case 0x02: /* \r */
					eeprom_update_if_changed(105, '\r');
					gpib_set_readtermination('\r');
					break;
				default:
					eeprom_update_if_changed(105, '\0');
     b6c:	60 e0       	ldi	r22, 0x00	; 0
     b6e:	89 e6       	ldi	r24, 0x69	; 105
     b70:	90 e0       	ldi	r25, 0x00	; 0
     b72:	f2 dd       	rcall	.-1052   	; 0x758 <eeprom_update_if_changed>
					gpib_set_readtermination('\0');
     b74:	80 e0       	ldi	r24, 0x00	; 0
					break;
			}
			break;
	}
}
     b76:	df 91       	pop	r29
     b78:	cf 91       	pop	r28
     b7a:	1f 91       	pop	r17
     b7c:	0f 91       	pop	r16
					eeprom_update_if_changed(105, '\r');
					gpib_set_readtermination('\r');
					break;
				default:
					eeprom_update_if_changed(105, '\0');
					gpib_set_readtermination('\0');
     b7e:	f9 c5       	rjmp	.+3058   	; 0x1772 <gpib_set_readtermination>
     b80:	df 91       	pop	r29
					break;
			}
			break;
	}
}
     b82:	cf 91       	pop	r28
     b84:	1f 91       	pop	r17
     b86:	0f 91       	pop	r16
     b88:	08 95       	ret

00000b8a <ProcessSentMessage>:
     b8a:	cf 92       	push	r12

void ProcessSentMessage(uint8_t* const Data, uint8_t Length, bool isFirstTransfer, bool isLastTransfer, gpibtimeout_t ptimeoutfunc)
{
     b8c:	df 92       	push	r13
     b8e:	ef 92       	push	r14
     b90:	ff 92       	push	r15
     b92:	0f 93       	push	r16
     b94:	1f 93       	push	r17
     b96:	cf 93       	push	r28
     b98:	df 93       	push	r29
     b9a:	7c 01       	movw	r14, r24
     b9c:	c6 2f       	mov	r28, r22
     b9e:	d4 2e       	mov	r13, r20
     ba0:	d2 2f       	mov	r29, r18
	uint8_t i, dat;
	bool timedout, isinternalcommand;
	
	
	/* check, if this is an internal command */ 
	isinternalcommand = isFirstTransfer && isFirstTransfer && s_nextwrite_mightbeparameterset && (Data[0] == '!');
     ba2:	44 23       	and	r20, r20
     ba4:	49 f0       	breq	.+18     	; 0xbb8 <ProcessSentMessage+0x2e>
     ba6:	80 91 26 01 	lds	r24, 0x0126	; 0x800126 <s_nextwrite_mightbeparameterset>
     baa:	88 23       	and	r24, r24
     bac:	29 f0       	breq	.+10     	; 0xbb8 <ProcessSentMessage+0x2e>
     bae:	81 e0       	ldi	r24, 0x01	; 1
     bb0:	f7 01       	movw	r30, r14
     bb2:	90 81       	ld	r25, Z
     bb4:	91 32       	cpi	r25, 0x21	; 33
     bb6:	09 f0       	breq	.+2      	; 0xbba <ProcessSentMessage+0x30>
     bb8:	80 e0       	ldi	r24, 0x00	; 0
	if (isinternalcommand)
     bba:	80 ff       	sbrs	r24, 0
     bbc:	04 c0       	rjmp	.+8      	; 0xbc6 <ProcessSentMessage+0x3c>
	{
		ProcessInternalCommand(Data, Length);
     bbe:	6c 2f       	mov	r22, r28
     bc0:	c7 01       	movw	r24, r14
     bc2:	9f df       	rcall	.-194    	; 0xb02 <ProcessInternalCommand>
     bc4:	24 c0       	rjmp	.+72     	; 0xc0e <ProcessSentMessage+0x84>
	}
	else
	{
		timedout = false;
		
		gpib_ren(1); /* ensure that remote control is enabled */
     bc6:	81 e0       	ldi	r24, 0x01	; 1
     bc8:	1e d4       	rcall	.+2108   	; 0x1406 <gpib_ren>
		
		LED(0);
     bca:	8d 98       	cbi	0x11, 5	; 17
		if (isFirstTransfer)
     bcc:	dd 20       	and	r13, r13
     bce:	29 f0       	breq	.+10     	; 0xbda <ProcessSentMessage+0x50>
			timedout = gpib_make_listener(gpib_addr, ptimeoutfunc);
     bd0:	b8 01       	movw	r22, r16
     bd2:	80 91 02 01 	lds	r24, 0x0102	; 0x800102 <gpib_addr>
     bd6:	a7 d5       	rcall	.+2894   	; 0x1726 <gpib_make_listener>
     bd8:	01 c0       	rjmp	.+2      	; 0xbdc <ProcessSentMessage+0x52>
	{
		ProcessInternalCommand(Data, Length);
	}
	else
	{
		timedout = false;
     bda:	80 e0       	ldi	r24, 0x00	; 0
		i = 0;
		while ( (Length > 0) && !timedout)
		{
			Length--;
			dat = Data[i++];
			timedout = gpib_writedat(dat, (Length == 0)  && isLastTransfer, ptimeoutfunc);
     bdc:	cd 2e       	mov	r12, r29
		LED(0);
		if (isFirstTransfer)
			timedout = gpib_make_listener(gpib_addr, ptimeoutfunc);
			
		i = 0;
		while ( (Length > 0) && !timedout)
     bde:	cc 23       	and	r28, r28
     be0:	79 f0       	breq	.+30     	; 0xc00 <ProcessSentMessage+0x76>
     be2:	81 11       	cpse	r24, r1
     be4:	13 c0       	rjmp	.+38     	; 0xc0c <ProcessSentMessage+0x82>
		{
			Length--;
     be6:	c1 50       	subi	r28, 0x01	; 1
			dat = Data[i++];
     be8:	f7 01       	movw	r30, r14
     bea:	81 91       	ld	r24, Z+
     bec:	7f 01       	movw	r14, r30
			timedout = gpib_writedat(dat, (Length == 0)  && isLastTransfer, ptimeoutfunc);
     bee:	c1 11       	cpse	r28, r1
     bf0:	02 c0       	rjmp	.+4      	; 0xbf6 <ProcessSentMessage+0x6c>
     bf2:	6c 2d       	mov	r22, r12
     bf4:	01 c0       	rjmp	.+2      	; 0xbf8 <ProcessSentMessage+0x6e>
     bf6:	60 e0       	ldi	r22, 0x00	; 0
     bf8:	61 70       	andi	r22, 0x01	; 1
     bfa:	a8 01       	movw	r20, r16
     bfc:	b4 d5       	rcall	.+2920   	; 0x1766 <gpib_writedat>
     bfe:	ef cf       	rjmp	.-34     	; 0xbde <ProcessSentMessage+0x54>
		}
		
		if (isLastTransfer && !timedout) /* in case of timeout the interface is cleared within the writedat function, no need to untalk!*/
     c00:	dd 23       	and	r29, r29
     c02:	21 f0       	breq	.+8      	; 0xc0c <ProcessSentMessage+0x82>
     c04:	81 11       	cpse	r24, r1
			gpib_untalk_unlisten(ptimeoutfunc);
     c06:	02 c0       	rjmp	.+4      	; 0xc0c <ProcessSentMessage+0x82>
     c08:	c8 01       	movw	r24, r16
     c0a:	5d d5       	rcall	.+2746   	; 0x16c6 <gpib_untalk_unlisten>
		LED(1);
     c0c:	8d 9a       	sbi	0x11, 5	; 17
	}
	s_nextwrite_mightbeparameterset = false;
     c0e:	10 92 26 01 	sts	0x0126, r1	; 0x800126 <s_nextwrite_mightbeparameterset>
}
     c12:	df 91       	pop	r29
     c14:	cf 91       	pop	r28
     c16:	1f 91       	pop	r17
     c18:	0f 91       	pop	r16
     c1a:	ff 90       	pop	r15
     c1c:	ef 90       	pop	r14
     c1e:	df 90       	pop	r13
     c20:	cf 90       	pop	r12
     c22:	08 95       	ret

00000c24 <GetNextMessage>:

uint8_t GetNextMessage(uint8_t* const Data, uint8_t maxlen, bool isFirstMessage, bool *pisLastMessage, gpibtimeout_t ptimeoutfunc)
{
     c24:	6f 92       	push	r6
     c26:	7f 92       	push	r7
     c28:	8f 92       	push	r8
     c2a:	9f 92       	push	r9
     c2c:	af 92       	push	r10
     c2e:	bf 92       	push	r11
     c30:	cf 92       	push	r12
     c32:	df 92       	push	r13
     c34:	ff 92       	push	r15
     c36:	0f 93       	push	r16
     c38:	1f 93       	push	r17
     c3a:	cf 93       	push	r28
     c3c:	df 93       	push	r29
     c3e:	00 d0       	rcall	.+0      	; 0xc40 <GetNextMessage+0x1c>
     c40:	cd b7       	in	r28, 0x3d	; 61
     c42:	de b7       	in	r29, 0x3e	; 62
     c44:	5c 01       	movw	r10, r24
     c46:	f6 2e       	mov	r15, r22
     c48:	74 2e       	mov	r7, r20
     c4a:	49 01       	movw	r8, r18
     c4c:	68 01       	movw	r12, r16
	uint8_t c, i;
	bool    Eoi, timedout;
	
	gpib_ren(1); /* ensure that remote control is enabled */
     c4e:	81 e0       	ldi	r24, 0x01	; 1
     c50:	da d3       	rcall	.+1972   	; 0x1406 <gpib_ren>
	
	LED(0);	
     c52:	8d 98       	cbi	0x11, 5	; 17
	
	timedout = false;
     c54:	19 82       	std	Y+1, r1	; 0x01
	if (isFirstMessage)
     c56:	77 20       	and	r7, r7
     c58:	29 f0       	breq	.+10     	; 0xc64 <GetNextMessage+0x40>
		timedout = gpib_make_talker(gpib_addr, ptimeoutfunc);
     c5a:	b8 01       	movw	r22, r16
     c5c:	80 91 02 01 	lds	r24, 0x0102	; 0x800102 <gpib_addr>
     c60:	46 d5       	rcall	.+2700   	; 0x16ee <gpib_make_talker>
     c62:	89 83       	std	Y+1, r24	; 0x01

	i = 0;
	Eoi = false;
     c64:	1a 82       	std	Y+2, r1	; 0x02
     c66:	87 e2       	ldi	r24, 0x27	; 39
     c68:	68 2e       	mov	r6, r24
     c6a:	81 e0       	ldi	r24, 0x01	; 1
     c6c:	78 2e       	mov	r7, r24
	
	timedout = false;
	if (isFirstMessage)
		timedout = gpib_make_talker(gpib_addr, ptimeoutfunc);

	i = 0;
     c6e:	10 e0       	ldi	r17, 0x00	; 0
	Eoi = false;

	while (!Eoi && (i < maxlen) && !timedout)
     c70:	9a 81       	ldd	r25, Y+2	; 0x02
     c72:	89 81       	ldd	r24, Y+1	; 0x01
     c74:	91 11       	cpse	r25, r1
     c76:	13 c0       	rjmp	.+38     	; 0xc9e <GetNextMessage+0x7a>
     c78:	f1 16       	cp	r15, r17
     c7a:	b1 f0       	breq	.+44     	; 0xca8 <GetNextMessage+0x84>
     c7c:	81 11       	cpse	r24, r1
     c7e:	18 c0       	rjmp	.+48     	; 0xcb0 <GetNextMessage+0x8c>
	{
	
		c = gpib_readdat(&Eoi, &timedout, ptimeoutfunc); 
     c80:	a6 01       	movw	r20, r12
     c82:	be 01       	movw	r22, r28
     c84:	6f 5f       	subi	r22, 0xFF	; 255
     c86:	7f 4f       	sbci	r23, 0xFF	; 255
     c88:	ce 01       	movw	r24, r28
     c8a:	02 96       	adiw	r24, 0x02	; 2
     c8c:	91 d4       	rcall	.+2338   	; 0x15b0 <gpib_readdat>
		if (!timedout)
     c8e:	99 81       	ldd	r25, Y+1	; 0x01
     c90:	91 11       	cpse	r25, r1
     c92:	ee cf       	rjmp	.-36     	; 0xc70 <GetNextMessage+0x4c>
			NextResponseBuffer[i++] = c;
     c94:	1f 5f       	subi	r17, 0xFF	; 255
     c96:	f3 01       	movw	r30, r6
     c98:	81 93       	st	Z+, r24
     c9a:	3f 01       	movw	r6, r30
     c9c:	e9 cf       	rjmp	.-46     	; 0xc70 <GetNextMessage+0x4c>
	}
		
	if (Eoi && !timedout) /* in case of timeout, no need to unlisten => interface clear done in readdat function! */
     c9e:	81 11       	cpse	r24, r1
		gpib_untalk_unlisten(ptimeoutfunc);
     ca0:	07 c0       	rjmp	.+14     	; 0xcb0 <GetNextMessage+0x8c>
     ca2:	c6 01       	movw	r24, r12
     ca4:	10 d5       	rcall	.+2592   	; 0x16c6 <gpib_untalk_unlisten>
     ca6:	f1 2e       	mov	r15, r17

	if (timedout) /* in case of timedout, simulate an end of message */
     ca8:	89 81       	ldd	r24, Y+1	; 0x01
     caa:	88 23       	and	r24, r24
     cac:	21 f0       	breq	.+8      	; 0xcb6 <GetNextMessage+0x92>
     cae:	1f 2d       	mov	r17, r15
		Eoi = true;
     cb0:	81 e0       	ldi	r24, 0x01	; 1
     cb2:	8a 83       	std	Y+2, r24	; 0x02
     cb4:	f1 2e       	mov	r15, r17
	*pisLastMessage = Eoi;
     cb6:	8a 81       	ldd	r24, Y+2	; 0x02
     cb8:	f4 01       	movw	r30, r8
     cba:	80 83       	st	Z, r24
	
//NextResponseBuffer[i++]	= gpib_search();

	memcpy((char*)Data, (char*)NextResponseBuffer, i);
     cbc:	4f 2d       	mov	r20, r15
     cbe:	50 e0       	ldi	r21, 0x00	; 0
     cc0:	67 e2       	ldi	r22, 0x27	; 39
     cc2:	71 e0       	ldi	r23, 0x01	; 1
     cc4:	c5 01       	movw	r24, r10
     cc6:	0e 94 5a 11 	call	0x22b4	; 0x22b4 <memcpy>
	
	LED(1);
     cca:	8d 9a       	sbi	0x11, 5	; 17

	return i;
}
     ccc:	8f 2d       	mov	r24, r15
     cce:	0f 90       	pop	r0
     cd0:	0f 90       	pop	r0
     cd2:	df 91       	pop	r29
     cd4:	cf 91       	pop	r28
     cd6:	1f 91       	pop	r17
     cd8:	0f 91       	pop	r16
     cda:	ff 90       	pop	r15
     cdc:	df 90       	pop	r13
     cde:	cf 90       	pop	r12
     ce0:	bf 90       	pop	r11
     ce2:	af 90       	pop	r10
     ce4:	9f 90       	pop	r9
     ce6:	8f 90       	pop	r8
     ce8:	7f 90       	pop	r7
     cea:	6f 90       	pop	r6
     cec:	08 95       	ret

00000cee <TMC_resetstates>:
bool TMC_eom;
bool TMC_InLastMessageComplete = true;

void TMC_resetstates(void)
{
	TMC_LastMessageComplete = true;
     cee:	81 e0       	ldi	r24, 0x01	; 1
     cf0:	80 93 01 01 	sts	0x0101, r24	; 0x800101 <TMC_LastMessageComplete>
	TMC_InLastMessageComplete = true;
     cf4:	80 93 00 01 	sts	0x0100, r24	; 0x800100 <TMC_InLastMessageComplete>
	s_remaining_bytes_receive = 0;
     cf8:	10 92 22 01 	sts	0x0122, r1	; 0x800122 <s_remaining_bytes_receive>
     cfc:	10 92 23 01 	sts	0x0123, r1	; 0x800123 <s_remaining_bytes_receive+0x1>
     d00:	10 92 24 01 	sts	0x0124, r1	; 0x800124 <s_remaining_bytes_receive+0x2>
     d04:	10 92 25 01 	sts	0x0125, r1	; 0x800125 <s_remaining_bytes_receive+0x3>
	gpib_interface_clear();
     d08:	84 c3       	rjmp	.+1800   	; 0x1412 <gpib_interface_clear>

00000d0a <ReadTMCHeader>:
 *  \param[out] MessageHeader  Pointer to a location where the read header (if any) should be stored
 *
 *  \return Boolean \c true if a header was read, \c false otherwise
 */
bool ReadTMCHeader(TMC_MessageHeader_t* const MessageHeader)
{
     d0a:	0f 93       	push	r16
     d0c:	1f 93       	push	r17
     d0e:	cf 93       	push	r28
     d10:	df 93       	push	r29
     d12:	00 d0       	rcall	.+0      	; 0xd14 <ReadTMCHeader+0xa>
     d14:	cd b7       	in	r28, 0x3d	; 61
     d16:	de b7       	in	r29, 0x3e	; 62
			 */
			static inline void Endpoint_SelectEndpoint(const uint8_t Address) ATTR_ALWAYS_INLINE;
			static inline void Endpoint_SelectEndpoint(const uint8_t Address)
			{
				#if !defined(CONTROL_ONLY_DEVICE)
					UENUM = (Address & ENDPOINT_EPNUM_MASK);
     d18:	23 e0       	ldi	r18, 0x03	; 3
     d1a:	20 93 e9 00 	sts	0x00E9, r18	; 0x8000e9 <__TEXT_REGION_LENGTH__+0x7e00e9>
			 *  \return Boolean \c true if current endpoint is has received an OUT packet, \c false otherwise.
			 */
			static inline bool Endpoint_IsOUTReceived(void) ATTR_WARN_UNUSED_RESULT ATTR_ALWAYS_INLINE;
			static inline bool Endpoint_IsOUTReceived(void)
			{
				return ((UEINTX & (1 << RXOUTI)) ? true : false);
     d1e:	20 91 e8 00 	lds	r18, 0x00E8	; 0x8000e8 <__TEXT_REGION_LENGTH__+0x7e00e8>

	/* Select the Data Out endpoint */
	Endpoint_SelectEndpoint(TMC_OUT_EPADDR);

	/* Abort if no command has been sent from the host */
	if (!(Endpoint_IsOUTReceived()))
     d22:	22 ff       	sbrs	r18, 2
     d24:	1c c0       	rjmp	.+56     	; 0xd5e <ReadTMCHeader+0x54>
     d26:	8c 01       	movw	r16, r24
	  return false;

	/* Read in the header of the command from the host */
	BytesTransferred = 0;
     d28:	1a 82       	std	Y+2, r1	; 0x02
     d2a:	19 82       	std	Y+1, r1	; 0x01
	while ((ErrorCode = Endpoint_Read_Stream_LE(MessageHeader, sizeof(TMC_MessageHeader_t), &BytesTransferred)) ==
     d2c:	ae 01       	movw	r20, r28
     d2e:	4f 5f       	subi	r20, 0xFF	; 255
     d30:	5f 4f       	sbci	r21, 0xFF	; 255
     d32:	6c e0       	ldi	r22, 0x0C	; 12
     d34:	70 e0       	ldi	r23, 0x00	; 0
     d36:	c8 01       	movw	r24, r16
     d38:	d2 d5       	rcall	.+2980   	; 0x18de <Endpoint_Read_Stream_LE>
     d3a:	98 2f       	mov	r25, r24
     d3c:	80 91 6a 01 	lds	r24, 0x016A	; 0x80016a <IsTMCBulkOUTReset>
     d40:	95 30       	cpi	r25, 0x05	; 5
     d42:	11 f4       	brne	.+4      	; 0xd48 <ReadTMCHeader+0x3e>
	       ENDPOINT_RWSTREAM_IncompleteTransfer)
	{
		if (IsTMCBulkOUTReset)
     d44:	88 23       	and	r24, r24
     d46:	91 f3       	breq	.-28     	; 0xd2c <ReadTMCHeader+0x22>
		  break;
	}

	/* Store the new command tag value for later use */
	CurrentTransferTag = MessageHeader->Tag;
     d48:	f8 01       	movw	r30, r16
     d4a:	21 81       	ldd	r18, Z+1	; 0x01
     d4c:	20 93 69 01 	sts	0x0169, r18	; 0x800169 <CurrentTransferTag>

	/* Indicate if the command has been aborted or not */
	return (!(IsTMCBulkOUTReset) && (ErrorCode == ENDPOINT_RWSTREAM_NoError));
     d50:	81 11       	cpse	r24, r1
     d52:	02 c0       	rjmp	.+4      	; 0xd58 <ReadTMCHeader+0x4e>
     d54:	81 e0       	ldi	r24, 0x01	; 1
     d56:	91 11       	cpse	r25, r1
     d58:	80 e0       	ldi	r24, 0x00	; 0
     d5a:	81 70       	andi	r24, 0x01	; 1
     d5c:	01 c0       	rjmp	.+2      	; 0xd60 <ReadTMCHeader+0x56>
	/* Select the Data Out endpoint */
	Endpoint_SelectEndpoint(TMC_OUT_EPADDR);

	/* Abort if no command has been sent from the host */
	if (!(Endpoint_IsOUTReceived()))
	  return false;
     d5e:	80 e0       	ldi	r24, 0x00	; 0
	/* Store the new command tag value for later use */
	CurrentTransferTag = MessageHeader->Tag;

	/* Indicate if the command has been aborted or not */
	return (!(IsTMCBulkOUTReset) && (ErrorCode == ENDPOINT_RWSTREAM_NoError));
}
     d60:	0f 90       	pop	r0
     d62:	0f 90       	pop	r0
     d64:	df 91       	pop	r29
     d66:	cf 91       	pop	r28
     d68:	1f 91       	pop	r17
     d6a:	0f 91       	pop	r16
     d6c:	08 95       	ret

00000d6e <WriteTMCHeader>:

bool WriteTMCHeader(TMC_MessageHeader_t* const MessageHeader)
{
     d6e:	0f 93       	push	r16
     d70:	1f 93       	push	r17
     d72:	cf 93       	push	r28
     d74:	df 93       	push	r29
     d76:	00 d0       	rcall	.+0      	; 0xd78 <WriteTMCHeader+0xa>
     d78:	cd b7       	in	r28, 0x3d	; 61
     d7a:	de b7       	in	r29, 0x3e	; 62
     d7c:	8c 01       	movw	r16, r24
	uint16_t BytesTransferred;
	uint8_t  ErrorCode;

	/* Set the message tag of the command header */
	MessageHeader->Tag        =  CurrentTransferTag;
     d7e:	80 91 69 01 	lds	r24, 0x0169	; 0x800169 <CurrentTransferTag>
     d82:	f8 01       	movw	r30, r16
     d84:	81 83       	std	Z+1, r24	; 0x01
	MessageHeader->InverseTag = ~CurrentTransferTag;
     d86:	80 95       	com	r24
     d88:	82 83       	std	Z+2, r24	; 0x02
			 */
			static inline void Endpoint_SelectEndpoint(const uint8_t Address) ATTR_ALWAYS_INLINE;
			static inline void Endpoint_SelectEndpoint(const uint8_t Address)
			{
				#if !defined(CONTROL_ONLY_DEVICE)
					UENUM = (Address & ENDPOINT_EPNUM_MASK);
     d8a:	82 e0       	ldi	r24, 0x02	; 2
     d8c:	80 93 e9 00 	sts	0x00E9, r24	; 0x8000e9 <__TEXT_REGION_LENGTH__+0x7e00e9>

	/* Select the Data In endpoint */
	Endpoint_SelectEndpoint(TMC_IN_EPADDR);

	/* Send the command header to the host */
	BytesTransferred = 0;
     d90:	1a 82       	std	Y+2, r1	; 0x02
     d92:	19 82       	std	Y+1, r1	; 0x01
	while ((ErrorCode = Endpoint_Write_Stream_LE(MessageHeader, sizeof(TMC_MessageHeader_t), &BytesTransferred)) ==
     d94:	ae 01       	movw	r20, r28
     d96:	4f 5f       	subi	r20, 0xFF	; 255
     d98:	5f 4f       	sbci	r21, 0xFF	; 255
     d9a:	6c e0       	ldi	r22, 0x0C	; 12
     d9c:	70 e0       	ldi	r23, 0x00	; 0
     d9e:	c8 01       	movw	r24, r16
     da0:	55 d5       	rcall	.+2730   	; 0x184c <Endpoint_Write_Stream_LE>
     da2:	90 91 6b 01 	lds	r25, 0x016B	; 0x80016b <IsTMCBulkINReset>
     da6:	85 30       	cpi	r24, 0x05	; 5
     da8:	11 f4       	brne	.+4      	; 0xdae <WriteTMCHeader+0x40>
	       ENDPOINT_RWSTREAM_IncompleteTransfer)
	{
		if (IsTMCBulkINReset)
     daa:	99 23       	and	r25, r25
     dac:	99 f3       	breq	.-26     	; 0xd94 <WriteTMCHeader+0x26>
		  break;
	}

	/* Indicate if the command has been aborted or not */
	return (!(IsTMCBulkINReset) && (ErrorCode == ENDPOINT_RWSTREAM_NoError));
     dae:	91 11       	cpse	r25, r1
     db0:	05 c0       	rjmp	.+10     	; 0xdbc <WriteTMCHeader+0x4e>
     db2:	91 e0       	ldi	r25, 0x01	; 1
     db4:	81 11       	cpse	r24, r1
     db6:	90 e0       	ldi	r25, 0x00	; 0
     db8:	89 2f       	mov	r24, r25
     dba:	01 c0       	rjmp	.+2      	; 0xdbe <WriteTMCHeader+0x50>
     dbc:	80 e0       	ldi	r24, 0x00	; 0
}
     dbe:	81 70       	andi	r24, 0x01	; 1
     dc0:	0f 90       	pop	r0
     dc2:	0f 90       	pop	r0
     dc4:	df 91       	pop	r29
     dc6:	cf 91       	pop	r28
     dc8:	1f 91       	pop	r17
     dca:	0f 91       	pop	r16
     dcc:	08 95       	ret

00000dce <TMC_Task>:
//	gpib_untalk_unlisten();
}

/** Function to manage TMC data transmission and reception to and from the host. */
void TMC_Task(void)
{
     dce:	bf 92       	push	r11
     dd0:	cf 92       	push	r12
     dd2:	df 92       	push	r13
     dd4:	ef 92       	push	r14
     dd6:	ff 92       	push	r15
     dd8:	0f 93       	push	r16
     dda:	1f 93       	push	r17
     ddc:	cf 93       	push	r28
     dde:	df 93       	push	r29
     de0:	cd b7       	in	r28, 0x3d	; 61
     de2:	de b7       	in	r29, 0x3e	; 62
     de4:	cd 58       	subi	r28, 0x8D	; 141
     de6:	d1 09       	sbc	r29, r1
     de8:	0f b6       	in	r0, 0x3f	; 63
     dea:	f8 94       	cli
     dec:	de bf       	out	0x3e, r29	; 62
     dee:	0f be       	out	0x3f, r0	; 63
     df0:	cd bf       	out	0x3d, r28	; 61
	bool lastmessage;
	/* Device must be connected and configured for the task to run */
	if (USB_DeviceState != DEVICE_STATE_Configured)
     df2:	80 91 e4 01 	lds	r24, 0x01E4	; 0x8001e4 <USB_DeviceState>
     df6:	84 30       	cpi	r24, 0x04	; 4
     df8:	09 f0       	breq	.+2      	; 0xdfc <TMC_Task+0x2e>
     dfa:	9d c1       	rjmp	.+826    	; 0x1136 <TMC_Task+0x368>
	TMC_MessageHeader_t MessageHeader;
	uint8_t             MessagePayload[128], curlen;
	
	

	if (s_remaining_bytes_receive == 0)
     dfc:	80 91 22 01 	lds	r24, 0x0122	; 0x800122 <s_remaining_bytes_receive>
     e00:	90 91 23 01 	lds	r25, 0x0123	; 0x800123 <s_remaining_bytes_receive+0x1>
     e04:	a0 91 24 01 	lds	r26, 0x0124	; 0x800124 <s_remaining_bytes_receive+0x2>
     e08:	b0 91 25 01 	lds	r27, 0x0125	; 0x800125 <s_remaining_bytes_receive+0x3>
     e0c:	89 2b       	or	r24, r25
     e0e:	8a 2b       	or	r24, r26
     e10:	8b 2b       	or	r24, r27
     e12:	09 f0       	breq	.+2      	; 0xe16 <TMC_Task+0x48>
     e14:	20 c1       	rjmp	.+576    	; 0x1056 <TMC_Task+0x288>
	{
	
		/* Try to read in a TMC message from the interface, process if one is available */
		if (ReadTMCHeader(&MessageHeader))
     e16:	ce 01       	movw	r24, r28
     e18:	8f 57       	subi	r24, 0x7F	; 127
     e1a:	9f 4f       	sbci	r25, 0xFF	; 255
     e1c:	76 df       	rcall	.-276    	; 0xd0a <ReadTMCHeader>
     e1e:	88 23       	and	r24, r24
     e20:	09 f4       	brne	.+2      	; 0xe24 <TMC_Task+0x56>
     e22:	7d c1       	rjmp	.+762    	; 0x111e <TMC_Task+0x350>
		{
		dbg++;
     e24:	80 91 1c 01 	lds	r24, 0x011C	; 0x80011c <__data_end>
     e28:	90 91 1d 01 	lds	r25, 0x011D	; 0x80011d <__data_end+0x1>
     e2c:	01 96       	adiw	r24, 0x01	; 1
     e2e:	90 93 1d 01 	sts	0x011D, r25	; 0x80011d <__data_end+0x1>
     e32:	80 93 1c 01 	sts	0x011C, r24	; 0x80011c <__data_end>
		
			/* Indicate busy */
			//LEDs_SetAllLEDs(LEDMASK_USB_BUSY);

			switch (MessageHeader.MessageID)
     e36:	cf 57       	subi	r28, 0x7F	; 127
     e38:	df 4f       	sbci	r29, 0xFF	; 255
     e3a:	88 81       	ld	r24, Y
     e3c:	c1 58       	subi	r28, 0x81	; 129
     e3e:	d0 40       	sbci	r29, 0x00	; 0
     e40:	82 30       	cpi	r24, 0x02	; 2
     e42:	09 f4       	brne	.+2      	; 0xe46 <TMC_Task+0x78>
     e44:	9e c0       	rjmp	.+316    	; 0xf82 <TMC_Task+0x1b4>
     e46:	80 38       	cpi	r24, 0x80	; 128
     e48:	21 f0       	breq	.+8      	; 0xe52 <TMC_Task+0x84>
     e4a:	81 30       	cpi	r24, 0x01	; 1
     e4c:	09 f0       	breq	.+2      	; 0xe50 <TMC_Task+0x82>
     e4e:	fd c0       	rjmp	.+506    	; 0x104a <TMC_Task+0x27c>
     e50:	17 c0       	rjmp	.+46     	; 0xe80 <TMC_Task+0xb2>

uint32_t timeout_val;

void timeout_start(uint32_t timeout)
{
	timeout_val = timeout;
     e52:	80 e5       	ldi	r24, 0x50	; 80
     e54:	93 ec       	ldi	r25, 0xC3	; 195
     e56:	a0 e0       	ldi	r26, 0x00	; 0
     e58:	b0 e0       	ldi	r27, 0x00	; 0
     e5a:	80 93 75 01 	sts	0x0175, r24	; 0x800175 <timeout_val>
     e5e:	90 93 76 01 	sts	0x0176, r25	; 0x800176 <timeout_val+0x1>
     e62:	a0 93 77 01 	sts	0x0177, r26	; 0x800177 <timeout_val+0x2>
     e66:	b0 93 78 01 	sts	0x0178, r27	; 0x800178 <timeout_val+0x3>

			switch (MessageHeader.MessageID)
			{
				case TMC_MESSAGEID_TRIGGER:
					timeout_start(50000); /* 0.5s timeout*/
					gpib_trigger(gpib_addr, is_timedout);
     e6a:	65 e2       	ldi	r22, 0x25	; 37
     e6c:	71 e0       	ldi	r23, 0x01	; 1
     e6e:	80 91 02 01 	lds	r24, 0x0102	; 0x800102 <gpib_addr>
     e72:	6a d3       	rcall	.+1748   	; 0x1548 <gpib_trigger>
			 */
			static inline void Endpoint_ClearOUT(void) ATTR_ALWAYS_INLINE;
			static inline void Endpoint_ClearOUT(void)
			{
				#if !defined(CONTROL_ONLY_DEVICE)
					UEINTX &= ~((1 << RXOUTI) | (1 << FIFOCON));
     e74:	80 91 e8 00 	lds	r24, 0x00E8	; 0x8000e8 <__TEXT_REGION_LENGTH__+0x7e00e8>
     e78:	8b 77       	andi	r24, 0x7B	; 123
     e7a:	80 93 e8 00 	sts	0x00E8, r24	; 0x8000e8 <__TEXT_REGION_LENGTH__+0x7e00e8>
     e7e:	4f c1       	rjmp	.+670    	; 0x111e <TMC_Task+0x350>
					Endpoint_ClearOUT();					
					break;
				case TMC_MESSAGEID_DEV_DEP_MSG_OUT:
					s_remaining_bytes_receive = MessageHeader.TransferSize;
     e80:	cb 57       	subi	r28, 0x7B	; 123
     e82:	df 4f       	sbci	r29, 0xFF	; 255
     e84:	38 81       	ld	r19, Y
     e86:	c5 58       	subi	r28, 0x85	; 133
     e88:	d0 40       	sbci	r29, 0x00	; 0
     e8a:	ca 57       	subi	r28, 0x7A	; 122
     e8c:	df 4f       	sbci	r29, 0xFF	; 255
     e8e:	28 81       	ld	r18, Y
     e90:	c6 58       	subi	r28, 0x86	; 134
     e92:	d0 40       	sbci	r29, 0x00	; 0
     e94:	c9 57       	subi	r28, 0x79	; 121
     e96:	df 4f       	sbci	r29, 0xFF	; 255
     e98:	98 81       	ld	r25, Y
     e9a:	c7 58       	subi	r28, 0x87	; 135
     e9c:	d0 40       	sbci	r29, 0x00	; 0
     e9e:	c8 57       	subi	r28, 0x78	; 120
     ea0:	df 4f       	sbci	r29, 0xFF	; 255
     ea2:	88 81       	ld	r24, Y
     ea4:	c8 58       	subi	r28, 0x88	; 136
     ea6:	d0 40       	sbci	r29, 0x00	; 0
     ea8:	30 93 22 01 	sts	0x0122, r19	; 0x800122 <s_remaining_bytes_receive>
     eac:	20 93 23 01 	sts	0x0123, r18	; 0x800123 <s_remaining_bytes_receive+0x1>
     eb0:	90 93 24 01 	sts	0x0124, r25	; 0x800124 <s_remaining_bytes_receive+0x2>
     eb4:	80 93 25 01 	sts	0x0125, r24	; 0x800125 <s_remaining_bytes_receive+0x3>
					
					LastTransferLength = 0;
     eb8:	10 92 68 01 	sts	0x0168, r1	; 0x800168 <LastTransferLength+0x1>
     ebc:	10 92 67 01 	sts	0x0167, r1	; 0x800167 <LastTransferLength>
					curlen = MIN(TMC_IO_EPSIZE-sizeof(TMC_MessageHeader_t), MessageHeader.TransferSize);
     ec0:	c3 2e       	mov	r12, r19
     ec2:	d2 2e       	mov	r13, r18
     ec4:	e9 2e       	mov	r14, r25
     ec6:	f8 2e       	mov	r15, r24
     ec8:	85 e3       	ldi	r24, 0x35	; 53
     eca:	c8 16       	cp	r12, r24
     ecc:	d1 04       	cpc	r13, r1
     ece:	e1 04       	cpc	r14, r1
     ed0:	f1 04       	cpc	r15, r1
     ed2:	28 f0       	brcs	.+10     	; 0xede <TMC_Task+0x110>
     ed4:	94 e3       	ldi	r25, 0x34	; 52
     ed6:	c9 2e       	mov	r12, r25
     ed8:	d1 2c       	mov	r13, r1
     eda:	e1 2c       	mov	r14, r1
     edc:	f1 2c       	mov	r15, r1
     ede:	bc 2c       	mov	r11, r12
					//
					while (Endpoint_Read_Stream_LE(MessagePayload, curlen, &LastTransferLength) ==
     ee0:	47 e6       	ldi	r20, 0x67	; 103
     ee2:	51 e0       	ldi	r21, 0x01	; 1
     ee4:	b6 01       	movw	r22, r12
     ee6:	ce 01       	movw	r24, r28
     ee8:	01 96       	adiw	r24, 0x01	; 1
     eea:	f9 d4       	rcall	.+2546   	; 0x18de <Endpoint_Read_Stream_LE>
     eec:	85 30       	cpi	r24, 0x05	; 5
     eee:	21 f4       	brne	.+8      	; 0xef8 <TMC_Task+0x12a>
						   ENDPOINT_RWSTREAM_IncompleteTransfer)
					{
						if (IsTMCBulkOUTReset)
     ef0:	80 91 6a 01 	lds	r24, 0x016A	; 0x80016a <IsTMCBulkOUTReset>
     ef4:	88 23       	and	r24, r24
     ef6:	a1 f3       	breq	.-24     	; 0xee0 <TMC_Task+0x112>
						  break;
					}					
					
					s_remaining_bytes_receive -= curlen;
     ef8:	80 91 22 01 	lds	r24, 0x0122	; 0x800122 <s_remaining_bytes_receive>
     efc:	90 91 23 01 	lds	r25, 0x0123	; 0x800123 <s_remaining_bytes_receive+0x1>
     f00:	a0 91 24 01 	lds	r26, 0x0124	; 0x800124 <s_remaining_bytes_receive+0x2>
     f04:	b0 91 25 01 	lds	r27, 0x0125	; 0x800125 <s_remaining_bytes_receive+0x3>
     f08:	8c 19       	sub	r24, r12
     f0a:	9d 09       	sbc	r25, r13
     f0c:	ae 09       	sbc	r26, r14
     f0e:	bf 09       	sbc	r27, r15
     f10:	80 93 22 01 	sts	0x0122, r24	; 0x800122 <s_remaining_bytes_receive>
     f14:	90 93 23 01 	sts	0x0123, r25	; 0x800123 <s_remaining_bytes_receive+0x1>
     f18:	a0 93 24 01 	sts	0x0124, r26	; 0x800124 <s_remaining_bytes_receive+0x2>
     f1c:	b0 93 25 01 	sts	0x0125, r27	; 0x800125 <s_remaining_bytes_receive+0x3>
					
					TMC_eom = (MessageHeader.MessageIDSpecific.DeviceOUT.LastMessageTransaction != 0);
     f20:	c7 57       	subi	r28, 0x77	; 119
     f22:	df 4f       	sbci	r29, 0xFF	; 255
     f24:	28 81       	ld	r18, Y
     f26:	c9 58       	subi	r28, 0x89	; 137
     f28:	d0 40       	sbci	r29, 0x00	; 0
     f2a:	31 e0       	ldi	r19, 0x01	; 1
     f2c:	21 11       	cpse	r18, r1
     f2e:	01 c0       	rjmp	.+2      	; 0xf32 <TMC_Task+0x164>
     f30:	30 e0       	ldi	r19, 0x00	; 0
     f32:	30 93 79 01 	sts	0x0179, r19	; 0x800179 <TMC_eom>
					lastmessage =  TMC_eom && (s_remaining_bytes_receive==0);
     f36:	22 23       	and	r18, r18
     f38:	29 f0       	breq	.+10     	; 0xf44 <TMC_Task+0x176>
     f3a:	21 e0       	ldi	r18, 0x01	; 1
     f3c:	89 2b       	or	r24, r25
     f3e:	8a 2b       	or	r24, r26
     f40:	8b 2b       	or	r24, r27
     f42:	09 f0       	breq	.+2      	; 0xf46 <TMC_Task+0x178>
     f44:	20 e0       	ldi	r18, 0x00	; 0
     f46:	21 70       	andi	r18, 0x01	; 1
     f48:	c3 57       	subi	r28, 0x73	; 115
     f4a:	df 4f       	sbci	r29, 0xFF	; 255
     f4c:	28 83       	st	Y, r18
     f4e:	cd 58       	subi	r28, 0x8D	; 141
     f50:	d0 40       	sbci	r29, 0x00	; 0
					ProcessSentMessage(MessagePayload, curlen, TMC_LastMessageComplete, lastmessage, tmc_gpib_write_timedout);
     f52:	04 e4       	ldi	r16, 0x44	; 68
     f54:	11 e0       	ldi	r17, 0x01	; 1
     f56:	40 91 01 01 	lds	r20, 0x0101	; 0x800101 <TMC_LastMessageComplete>
     f5a:	6b 2d       	mov	r22, r11
     f5c:	ce 01       	movw	r24, r28
     f5e:	01 96       	adiw	r24, 0x01	; 1
     f60:	14 de       	rcall	.-984    	; 0xb8a <ProcessSentMessage>
			 */
			static inline void Endpoint_SelectEndpoint(const uint8_t Address) ATTR_ALWAYS_INLINE;
			static inline void Endpoint_SelectEndpoint(const uint8_t Address)
			{
				#if !defined(CONTROL_ONLY_DEVICE)
					UENUM = (Address & ENDPOINT_EPNUM_MASK);
     f62:	83 e0       	ldi	r24, 0x03	; 3
     f64:	80 93 e9 00 	sts	0x00E9, r24	; 0x8000e9 <__TEXT_REGION_LENGTH__+0x7e00e9>
			 */
			static inline void Endpoint_ClearOUT(void) ATTR_ALWAYS_INLINE;
			static inline void Endpoint_ClearOUT(void)
			{
				#if !defined(CONTROL_ONLY_DEVICE)
					UEINTX &= ~((1 << RXOUTI) | (1 << FIFOCON));
     f68:	80 91 e8 00 	lds	r24, 0x00E8	; 0x8000e8 <__TEXT_REGION_LENGTH__+0x7e00e8>
     f6c:	8b 77       	andi	r24, 0x7B	; 123
     f6e:	80 93 e8 00 	sts	0x00E8, r24	; 0x8000e8 <__TEXT_REGION_LENGTH__+0x7e00e8>
					
					/* Select the Data Out endpoint, this has to be done because the timeout function cal select the control endpoint */
					Endpoint_SelectEndpoint(TMC_OUT_EPADDR);
					Endpoint_ClearOUT();
					
					TMC_LastMessageComplete = lastmessage;
     f72:	c3 57       	subi	r28, 0x73	; 115
     f74:	df 4f       	sbci	r29, 0xFF	; 255
     f76:	88 81       	ld	r24, Y
     f78:	cd 58       	subi	r28, 0x8D	; 141
     f7a:	d0 40       	sbci	r29, 0x00	; 0
     f7c:	80 93 01 01 	sts	0x0101, r24	; 0x800101 <TMC_LastMessageComplete>
					break;
     f80:	ce c0       	rjmp	.+412    	; 0x111e <TMC_Task+0x350>
     f82:	80 91 e8 00 	lds	r24, 0x00E8	; 0x8000e8 <__TEXT_REGION_LENGTH__+0x7e00e8>
     f86:	8b 77       	andi	r24, 0x7B	; 123
     f88:	80 93 e8 00 	sts	0x00E8, r24	; 0x8000e8 <__TEXT_REGION_LENGTH__+0x7e00e8>
				case TMC_MESSAGEID_DEV_DEP_MSG_IN:
					Endpoint_ClearOUT();
//FIXME: ZLP not OK! -------------------------------------------------------v
					curlen = MIN(TMC_IO_EPSIZE-sizeof(TMC_MessageHeader_t) -1, MessageHeader.TransferSize);
					MessageHeader.TransferSize = GetNextMessage(MessagePayload, curlen, TMC_InLastMessageComplete, &lastmessage, tmc_gpib_read_timedout);
     f8c:	cb 57       	subi	r28, 0x7B	; 123
     f8e:	df 4f       	sbci	r29, 0xFF	; 255
     f90:	68 81       	ld	r22, Y
     f92:	79 81       	ldd	r23, Y+1	; 0x01
     f94:	8a 81       	ldd	r24, Y+2	; 0x02
     f96:	9b 81       	ldd	r25, Y+3	; 0x03
     f98:	c5 58       	subi	r28, 0x85	; 133
     f9a:	d0 40       	sbci	r29, 0x00	; 0
     f9c:	64 33       	cpi	r22, 0x34	; 52
     f9e:	71 05       	cpc	r23, r1
     fa0:	81 05       	cpc	r24, r1
     fa2:	91 05       	cpc	r25, r1
     fa4:	20 f0       	brcs	.+8      	; 0xfae <TMC_Task+0x1e0>
     fa6:	63 e3       	ldi	r22, 0x33	; 51
     fa8:	70 e0       	ldi	r23, 0x00	; 0
     faa:	80 e0       	ldi	r24, 0x00	; 0
     fac:	90 e0       	ldi	r25, 0x00	; 0
     fae:	0c e4       	ldi	r16, 0x4C	; 76
     fb0:	11 e0       	ldi	r17, 0x01	; 1
     fb2:	9e 01       	movw	r18, r28
     fb4:	23 57       	subi	r18, 0x73	; 115
     fb6:	3f 4f       	sbci	r19, 0xFF	; 255
     fb8:	40 91 00 01 	lds	r20, 0x0100	; 0x800100 <TMC_InLastMessageComplete>
     fbc:	ce 01       	movw	r24, r28
     fbe:	01 96       	adiw	r24, 0x01	; 1
     fc0:	31 de       	rcall	.-926    	; 0xc24 <GetNextMessage>
     fc2:	90 e0       	ldi	r25, 0x00	; 0
     fc4:	a0 e0       	ldi	r26, 0x00	; 0
     fc6:	b0 e0       	ldi	r27, 0x00	; 0
     fc8:	cb 57       	subi	r28, 0x7B	; 123
     fca:	df 4f       	sbci	r29, 0xFF	; 255
     fcc:	88 83       	st	Y, r24
     fce:	99 83       	std	Y+1, r25	; 0x01
     fd0:	aa 83       	std	Y+2, r26	; 0x02
     fd2:	bb 83       	std	Y+3, r27	; 0x03
     fd4:	c5 58       	subi	r28, 0x85	; 133
     fd6:	d0 40       	sbci	r29, 0x00	; 0
					TMC_InLastMessageComplete = lastmessage;
     fd8:	c3 57       	subi	r28, 0x73	; 115
     fda:	df 4f       	sbci	r29, 0xFF	; 255
     fdc:	88 81       	ld	r24, Y
     fde:	cd 58       	subi	r28, 0x8D	; 141
     fe0:	d0 40       	sbci	r29, 0x00	; 0
     fe2:	80 93 00 01 	sts	0x0100, r24	; 0x800100 <TMC_InLastMessageComplete>
					
					MessageHeader.MessageIDSpecific.DeviceOUT.LastMessageTransaction = lastmessage;
     fe6:	c7 57       	subi	r28, 0x77	; 119
     fe8:	df 4f       	sbci	r29, 0xFF	; 255
     fea:	88 83       	st	Y, r24
     fec:	c9 58       	subi	r28, 0x89	; 137
     fee:	d0 40       	sbci	r29, 0x00	; 0
					if (!IsTMCBulkINReset)
     ff0:	80 91 6b 01 	lds	r24, 0x016B	; 0x80016b <IsTMCBulkINReset>
     ff4:	81 11       	cpse	r24, r1
						WriteTMCHeader(&MessageHeader);					
     ff6:	04 c0       	rjmp	.+8      	; 0x1000 <TMC_Task+0x232>
     ff8:	ce 01       	movw	r24, r28
     ffa:	8f 57       	subi	r24, 0x7F	; 127
     ffc:	9f 4f       	sbci	r25, 0xFF	; 255
     ffe:	b7 de       	rcall	.-658    	; 0xd6e <WriteTMCHeader>
					
					LastTransferLength = 0;
    1000:	10 92 68 01 	sts	0x0168, r1	; 0x800168 <LastTransferLength+0x1>
    1004:	10 92 67 01 	sts	0x0167, r1	; 0x800167 <LastTransferLength>
					if (!IsTMCBulkINReset)
    1008:	80 91 6b 01 	lds	r24, 0x016B	; 0x80016b <IsTMCBulkINReset>
    100c:	88 23       	and	r24, r24
    100e:	79 f0       	breq	.+30     	; 0x102e <TMC_Task+0x260>
			 */
			static inline void Endpoint_SelectEndpoint(const uint8_t Address) ATTR_ALWAYS_INLINE;
			static inline void Endpoint_SelectEndpoint(const uint8_t Address)
			{
				#if !defined(CONTROL_ONLY_DEVICE)
					UENUM = (Address & ENDPOINT_EPNUM_MASK);
    1010:	82 e0       	ldi	r24, 0x02	; 2
    1012:	80 93 e9 00 	sts	0x00E9, r24	; 0x8000e9 <__TEXT_REGION_LENGTH__+0x7e00e9>
			 */
			static inline void Endpoint_ClearIN(void) ATTR_ALWAYS_INLINE;
			static inline void Endpoint_ClearIN(void)
			{
				#if !defined(CONTROL_ONLY_DEVICE)
					UEINTX &= ~((1 << TXINI) | (1 << FIFOCON));
    1016:	80 91 e8 00 	lds	r24, 0x00E8	; 0x8000e8 <__TEXT_REGION_LENGTH__+0x7e00e8>
    101a:	8e 77       	andi	r24, 0x7E	; 126
    101c:	80 93 e8 00 	sts	0x00E8, r24	; 0x8000e8 <__TEXT_REGION_LENGTH__+0x7e00e8>

					/* Also in case of a timeout, the host does not expire a Bulk IN IRP, so we still need to commit an empty endpoint to retire the IRP */
					Endpoint_SelectEndpoint(TMC_IN_EPADDR);
					Endpoint_ClearIN();
					
					if (IsTMCBulkINReset)
    1020:	80 91 6b 01 	lds	r24, 0x016B	; 0x80016b <IsTMCBulkINReset>
    1024:	88 23       	and	r24, r24
    1026:	09 f4       	brne	.+2      	; 0x102a <TMC_Task+0x25c>
					{
						//Endpoint_SelectEndpoint(TMC_IN_EPADDR);
						//Endpoint_AbortPendingIN();
						/* KG: Added for proper synchronsity handling */
						//Endpoint_ResetEndpoint(TMC_IN_EPADDR);
						TMC_resetstates();
    1028:	7a c0       	rjmp	.+244    	; 0x111e <TMC_Task+0x350>
    102a:	61 de       	rcall	.-830    	; 0xcee <TMC_resetstates>
    102c:	78 c0       	rjmp	.+240    	; 0x111e <TMC_Task+0x350>
						WriteTMCHeader(&MessageHeader);					
					
					LastTransferLength = 0;
					if (!IsTMCBulkINReset)
					{
						while (Endpoint_Write_Stream_LE(MessagePayload, MessageHeader.TransferSize, &LastTransferLength) ==
    102e:	cb 57       	subi	r28, 0x7B	; 123
    1030:	df 4f       	sbci	r29, 0xFF	; 255
    1032:	68 81       	ld	r22, Y
    1034:	79 81       	ldd	r23, Y+1	; 0x01
    1036:	c5 58       	subi	r28, 0x85	; 133
    1038:	d0 40       	sbci	r29, 0x00	; 0
    103a:	47 e6       	ldi	r20, 0x67	; 103
    103c:	51 e0       	ldi	r21, 0x01	; 1
    103e:	ce 01       	movw	r24, r28
    1040:	01 96       	adiw	r24, 0x01	; 1
    1042:	04 d4       	rcall	.+2056   	; 0x184c <Endpoint_Write_Stream_LE>
    1044:	85 30       	cpi	r24, 0x05	; 5
    1046:	01 f3       	breq	.-64     	; 0x1008 <TMC_Task+0x23a>
    1048:	e3 cf       	rjmp	.-58     	; 0x1010 <TMC_Task+0x242>
			 *  \ingroup Group_EndpointPacketManagement_AVR8
			 */
			static inline void Endpoint_StallTransaction(void) ATTR_ALWAYS_INLINE;
			static inline void Endpoint_StallTransaction(void)
			{
				UECONX |= (1 << STALLRQ);
    104a:	80 91 eb 00 	lds	r24, 0x00EB	; 0x8000eb <__TEXT_REGION_LENGTH__+0x7e00eb>
    104e:	80 62       	ori	r24, 0x20	; 32
    1050:	80 93 eb 00 	sts	0x00EB, r24	; 0x8000eb <__TEXT_REGION_LENGTH__+0x7e00eb>
    1054:	64 c0       	rjmp	.+200    	; 0x111e <TMC_Task+0x350>
			 */
			static inline void Endpoint_SelectEndpoint(const uint8_t Address) ATTR_ALWAYS_INLINE;
			static inline void Endpoint_SelectEndpoint(const uint8_t Address)
			{
				#if !defined(CONTROL_ONLY_DEVICE)
					UENUM = (Address & ENDPOINT_EPNUM_MASK);
    1056:	83 e0       	ldi	r24, 0x03	; 3
    1058:	80 93 e9 00 	sts	0x00E9, r24	; 0x8000e9 <__TEXT_REGION_LENGTH__+0x7e00e9>
			 *  \return Boolean \c true if current endpoint is has received an OUT packet, \c false otherwise.
			 */
			static inline bool Endpoint_IsOUTReceived(void) ATTR_WARN_UNUSED_RESULT ATTR_ALWAYS_INLINE;
			static inline bool Endpoint_IsOUTReceived(void)
			{
				return ((UEINTX & (1 << RXOUTI)) ? true : false);
    105c:	80 91 e8 00 	lds	r24, 0x00E8	; 0x8000e8 <__TEXT_REGION_LENGTH__+0x7e00e8>
	
			/* Select the Data Out endpoint */
		Endpoint_SelectEndpoint(TMC_OUT_EPADDR);

		/* Abort if no command has been sent from the host */
		if (Endpoint_IsOUTReceived())
    1060:	82 ff       	sbrs	r24, 2
    1062:	5d c0       	rjmp	.+186    	; 0x111e <TMC_Task+0x350>
		{
			LastTransferLength = 0;
    1064:	10 92 68 01 	sts	0x0168, r1	; 0x800168 <LastTransferLength+0x1>
    1068:	10 92 67 01 	sts	0x0167, r1	; 0x800167 <LastTransferLength>
			
			curlen = TMC_IO_EPSIZE;
			if (s_remaining_bytes_receive < TMC_IO_EPSIZE)
    106c:	80 91 22 01 	lds	r24, 0x0122	; 0x800122 <s_remaining_bytes_receive>
    1070:	90 91 23 01 	lds	r25, 0x0123	; 0x800123 <s_remaining_bytes_receive+0x1>
    1074:	a0 91 24 01 	lds	r26, 0x0124	; 0x800124 <s_remaining_bytes_receive+0x2>
    1078:	b0 91 25 01 	lds	r27, 0x0125	; 0x800125 <s_remaining_bytes_receive+0x3>
    107c:	80 34       	cpi	r24, 0x40	; 64
    107e:	91 05       	cpc	r25, r1
    1080:	a1 05       	cpc	r26, r1
    1082:	b1 05       	cpc	r27, r1
    1084:	10 f4       	brcc	.+4      	; 0x108a <TMC_Task+0x2bc>
			{
				curlen = s_remaining_bytes_receive;
    1086:	f8 2e       	mov	r15, r24
    1088:	02 c0       	rjmp	.+4      	; 0x108e <TMC_Task+0x2c0>
		/* Abort if no command has been sent from the host */
		if (Endpoint_IsOUTReceived())
		{
			LastTransferLength = 0;
			
			curlen = TMC_IO_EPSIZE;
    108a:	80 e4       	ldi	r24, 0x40	; 64
			{
				curlen = s_remaining_bytes_receive;
			}
			
			//
			while (Endpoint_Read_Stream_LE(MessagePayload, curlen, &LastTransferLength) ==
    108c:	f8 2e       	mov	r15, r24
    108e:	cf 2c       	mov	r12, r15
    1090:	d1 2c       	mov	r13, r1
    1092:	47 e6       	ldi	r20, 0x67	; 103
    1094:	51 e0       	ldi	r21, 0x01	; 1
    1096:	b6 01       	movw	r22, r12
    1098:	ce 01       	movw	r24, r28
    109a:	01 96       	adiw	r24, 0x01	; 1
    109c:	20 d4       	rcall	.+2112   	; 0x18de <Endpoint_Read_Stream_LE>
    109e:	85 30       	cpi	r24, 0x05	; 5
    10a0:	21 f4       	brne	.+8      	; 0x10aa <TMC_Task+0x2dc>
				   ENDPOINT_RWSTREAM_IncompleteTransfer)
			{
				if (IsTMCBulkOUTReset)
    10a2:	80 91 6a 01 	lds	r24, 0x016A	; 0x80016a <IsTMCBulkOUTReset>
    10a6:	88 23       	and	r24, r24
    10a8:	a1 f3       	breq	.-24     	; 0x1092 <TMC_Task+0x2c4>
				  break;
			}
			s_remaining_bytes_receive -= curlen;
    10aa:	80 91 22 01 	lds	r24, 0x0122	; 0x800122 <s_remaining_bytes_receive>
    10ae:	90 91 23 01 	lds	r25, 0x0123	; 0x800123 <s_remaining_bytes_receive+0x1>
    10b2:	a0 91 24 01 	lds	r26, 0x0124	; 0x800124 <s_remaining_bytes_receive+0x2>
    10b6:	b0 91 25 01 	lds	r27, 0x0125	; 0x800125 <s_remaining_bytes_receive+0x3>
    10ba:	8f 19       	sub	r24, r15
    10bc:	91 09       	sbc	r25, r1
    10be:	a1 09       	sbc	r26, r1
    10c0:	b1 09       	sbc	r27, r1
    10c2:	80 93 22 01 	sts	0x0122, r24	; 0x800122 <s_remaining_bytes_receive>
    10c6:	90 93 23 01 	sts	0x0123, r25	; 0x800123 <s_remaining_bytes_receive+0x1>
    10ca:	a0 93 24 01 	sts	0x0124, r26	; 0x800124 <s_remaining_bytes_receive+0x2>
    10ce:	b0 93 25 01 	sts	0x0125, r27	; 0x800125 <s_remaining_bytes_receive+0x3>
			 */
			static inline void Endpoint_ClearOUT(void) ATTR_ALWAYS_INLINE;
			static inline void Endpoint_ClearOUT(void)
			{
				#if !defined(CONTROL_ONLY_DEVICE)
					UEINTX &= ~((1 << RXOUTI) | (1 << FIFOCON));
    10d2:	80 91 e8 00 	lds	r24, 0x00E8	; 0x8000e8 <__TEXT_REGION_LENGTH__+0x7e00e8>
    10d6:	8b 77       	andi	r24, 0x7B	; 123
    10d8:	80 93 e8 00 	sts	0x00E8, r24	; 0x8000e8 <__TEXT_REGION_LENGTH__+0x7e00e8>

			Endpoint_ClearOUT();
			
			lastmessage = TMC_eom && (s_remaining_bytes_receive==0);
    10dc:	80 91 79 01 	lds	r24, 0x0179	; 0x800179 <TMC_eom>
    10e0:	88 23       	and	r24, r24
    10e2:	69 f0       	breq	.+26     	; 0x10fe <TMC_Task+0x330>
    10e4:	21 e0       	ldi	r18, 0x01	; 1
    10e6:	80 91 22 01 	lds	r24, 0x0122	; 0x800122 <s_remaining_bytes_receive>
    10ea:	90 91 23 01 	lds	r25, 0x0123	; 0x800123 <s_remaining_bytes_receive+0x1>
    10ee:	a0 91 24 01 	lds	r26, 0x0124	; 0x800124 <s_remaining_bytes_receive+0x2>
    10f2:	b0 91 25 01 	lds	r27, 0x0125	; 0x800125 <s_remaining_bytes_receive+0x3>
    10f6:	89 2b       	or	r24, r25
    10f8:	8a 2b       	or	r24, r26
    10fa:	8b 2b       	or	r24, r27
    10fc:	09 f0       	breq	.+2      	; 0x1100 <TMC_Task+0x332>
    10fe:	20 e0       	ldi	r18, 0x00	; 0
    1100:	21 70       	andi	r18, 0x01	; 1
    1102:	c3 57       	subi	r28, 0x73	; 115
    1104:	df 4f       	sbci	r29, 0xFF	; 255
    1106:	28 83       	st	Y, r18
    1108:	cd 58       	subi	r28, 0x8D	; 141
			TMC_LastMessageComplete = lastmessage;
    110a:	d0 40       	sbci	r29, 0x00	; 0
    110c:	20 93 01 01 	sts	0x0101, r18	; 0x800101 <TMC_LastMessageComplete>
			ProcessSentMessage(MessagePayload, curlen, false, lastmessage, tmc_gpib_write_timedout);
    1110:	04 e4       	ldi	r16, 0x44	; 68
    1112:	11 e0       	ldi	r17, 0x01	; 1
    1114:	40 e0       	ldi	r20, 0x00	; 0
    1116:	6f 2d       	mov	r22, r15
    1118:	ce 01       	movw	r24, r28
    111a:	01 96       	adiw	r24, 0x01	; 1
		}
	}

	if (IsTMCBulkOUTReset || IsTMCBulkINReset)
    111c:	36 dd       	rcall	.-1428   	; 0xb8a <ProcessSentMessage>
    111e:	80 91 6a 01 	lds	r24, 0x016A	; 0x80016a <IsTMCBulkOUTReset>
    1122:	81 11       	cpse	r24, r1
    1124:	03 c0       	rjmp	.+6      	; 0x112c <TMC_Task+0x35e>
    1126:	80 91 6b 01 	lds	r24, 0x016B	; 0x80016b <IsTMCBulkINReset>
		TMC_resetstates();
    112a:	81 11       	cpse	r24, r1
    112c:	e0 dd       	rcall	.-1088   	; 0xcee <TMC_resetstates>
	
	/* All pending data has been processed - reset the data abort flags */
	IsTMCBulkINReset  = false;
    112e:	10 92 6b 01 	sts	0x016B, r1	; 0x80016b <IsTMCBulkINReset>
	IsTMCBulkOUTReset = false;
    1132:	10 92 6a 01 	sts	0x016A, r1	; 0x80016a <IsTMCBulkOUTReset>
}
    1136:	c3 57       	subi	r28, 0x73	; 115
    1138:	df 4f       	sbci	r29, 0xFF	; 255
    113a:	0f b6       	in	r0, 0x3f	; 63
    113c:	f8 94       	cli
    113e:	de bf       	out	0x3e, r29	; 62
    1140:	0f be       	out	0x3f, r0	; 63
    1142:	cd bf       	out	0x3d, r28	; 61
    1144:	df 91       	pop	r29
    1146:	cf 91       	pop	r28
    1148:	1f 91       	pop	r17
    114a:	0f 91       	pop	r16
    114c:	ff 90       	pop	r15
    114e:	ef 90       	pop	r14
    1150:	df 90       	pop	r13
    1152:	cf 90       	pop	r12
    1154:	bf 90       	pop	r11
    1156:	08 95       	ret

00001158 <main>:
int main(void)
{
	uint8_t prevaddr;

	//mcusr_mirror = MCUSR; 
	MCUSR = 0; 
    1158:	14 be       	out	0x34, r1	; 52
    115a:	0f b6       	in	r0, 0x3f	; 63
    115c:	f8 94       	cli
    115e:	a8 95       	wdr
    1160:	80 91 60 00 	lds	r24, 0x0060	; 0x800060 <__TEXT_REGION_LENGTH__+0x7e0060>
    1164:	88 61       	ori	r24, 0x18	; 24
    1166:	80 93 60 00 	sts	0x0060, r24	; 0x800060 <__TEXT_REGION_LENGTH__+0x7e0060>
    116a:	10 92 60 00 	sts	0x0060, r1	; 0x800060 <__TEXT_REGION_LENGTH__+0x7e0060>
    116e:	0f be       	out	0x3f, r0	; 63
	wdt_disable(); 
	
	PORTB |=  (1<<2); /* PB2 = PULLUP */
    1170:	2a 9a       	sbi	0x05, 2	; 5
	DDRB  &= ~(1<<2); /* PB2 = input*/
    1172:	22 98       	cbi	0x04, 2	; 4
	
	SetupHardware();
    1174:	0a db       	rcall	.-2540   	; 0x78a <SetupHardware>
	
	gpib_init();
    1176:	61 d1       	rcall	.+706    	; 0x143a <gpib_init>
    1178:	f9 99       	sbic	0x1f, 1	; 31
	
	/* apply settings from eeprom */
	eeprom_busy_wait();	
    117a:	fe cf       	rjmp	.-4      	; 0x1178 <main+0x20>
    117c:	89 e6       	ldi	r24, 0x69	; 105
	gpib_set_readtermination(eeprom_read_byte(105));
    117e:	90 e0       	ldi	r25, 0x00	; 0
    1180:	0e 94 63 11 	call	0x22c6	; 0x22c6 <eeprom_read_byte>
    1184:	f6 d2       	rcall	.+1516   	; 0x1772 <gpib_set_readtermination>
			static inline void GlobalInterruptEnable(void)
			{
				GCC_MEMORY_BARRIER();

				#if (ARCH == ARCH_AVR8)
				sei();
    1186:	78 94       	sei
	
	
	//LEDs_SetAllLEDs(LEDMASK_USB_NOTREADY);
	GlobalInterruptEnable();
	
	while (!gpib_is_connected())
    1188:	37 d1       	rcall	.+622    	; 0x13f8 <gpib_is_connected>
    118a:	81 11       	cpse	r24, r1
    118c:	17 c0       	rjmp	.+46     	; 0x11bc <main+0x64>
    118e:	2f ef       	ldi	r18, 0xFF	; 255
    1190:	84 e3       	ldi	r24, 0x34	; 52
    1192:	9c e0       	ldi	r25, 0x0C	; 12
    1194:	21 50       	subi	r18, 0x01	; 1
    1196:	80 40       	sbci	r24, 0x00	; 0
    1198:	90 40       	sbci	r25, 0x00	; 0
    119a:	e1 f7       	brne	.-8      	; 0x1194 <main+0x3c>
    119c:	00 c0       	rjmp	.+0      	; 0x119e <main+0x46>
    119e:	00 00       	nop
    11a0:	8d 9a       	sbi	0x11, 5	; 17
	{
		_delay_ms(250);
		LED(1);
    11a2:	ef ef       	ldi	r30, 0xFF	; 255
    11a4:	f4 e3       	ldi	r31, 0x34	; 52
    11a6:	2c e0       	ldi	r18, 0x0C	; 12
    11a8:	e1 50       	subi	r30, 0x01	; 1
    11aa:	f0 40       	sbci	r31, 0x00	; 0
    11ac:	20 40       	sbci	r18, 0x00	; 0
    11ae:	e1 f7       	brne	.-8      	; 0x11a8 <main+0x50>
    11b0:	00 c0       	rjmp	.+0      	; 0x11b2 <main+0x5a>
    11b2:	00 00       	nop
		_delay_ms(250);
		LED(0);
		check_bootloaderEntry();
    11b4:	8d 98       	cbi	0x11, 5	; 17
    11b6:	cd da       	rcall	.-2662   	; 0x752 <check_bootloaderEntry>
    11b8:	e7 cf       	rjmp	.-50     	; 0x1188 <main+0x30>
			LED(0);
			_delay_ms(500);
			wdt_enable(WDTO_250MS);	
			while (1);
		}
		check_bootloaderEntry();
    11ba:	cb da       	rcall	.-2666   	; 0x752 <check_bootloaderEntry>
    11bc:	98 d8       	rcall	.-3792   	; 0x2ee <findGpibdevice>
		LED(0);
		check_bootloaderEntry();
	}
	
	/* physically GPIB is connected, now check if any GPIB address is responsive */
	while (!findGpibdevice())
    11be:	81 11       	cpse	r24, r1
    11c0:	2c c0       	rjmp	.+88     	; 0x121a <main+0xc2>
    11c2:	8f ef       	ldi	r24, 0xFF	; 255
    11c4:	91 ee       	ldi	r25, 0xE1	; 225
    11c6:	e4 e0       	ldi	r30, 0x04	; 4
    11c8:	81 50       	subi	r24, 0x01	; 1
    11ca:	90 40       	sbci	r25, 0x00	; 0
    11cc:	e0 40       	sbci	r30, 0x00	; 0
    11ce:	e1 f7       	brne	.-8      	; 0x11c8 <main+0x70>
    11d0:	00 c0       	rjmp	.+0      	; 0x11d2 <main+0x7a>
    11d2:	00 00       	nop
    11d4:	8d 9a       	sbi	0x11, 5	; 17
    11d6:	ff ef       	ldi	r31, 0xFF	; 255
	{
		_delay_ms(100);
		LED(1);
    11d8:	21 ee       	ldi	r18, 0xE1	; 225
    11da:	84 e0       	ldi	r24, 0x04	; 4
    11dc:	f1 50       	subi	r31, 0x01	; 1
    11de:	20 40       	sbci	r18, 0x00	; 0
    11e0:	80 40       	sbci	r24, 0x00	; 0
    11e2:	e1 f7       	brne	.-8      	; 0x11dc <main+0x84>
    11e4:	00 c0       	rjmp	.+0      	; 0x11e6 <main+0x8e>
    11e6:	00 00       	nop
    11e8:	8d 98       	cbi	0x11, 5	; 17
		_delay_ms(100);
		LED(0);
    11ea:	06 d1       	rcall	.+524    	; 0x13f8 <gpib_is_connected>
		if (!gpib_is_connected()) /* we want to reset here if the device is unplugged */
    11ec:	81 11       	cpse	r24, r1
    11ee:	e5 cf       	rjmp	.-54     	; 0x11ba <main+0x62>
    11f0:	8d 98       	cbi	0x11, 5	; 17
    11f2:	9f ef       	ldi	r25, 0xFF	; 255
		{
			LED(0);
    11f4:	e9 e6       	ldi	r30, 0x69	; 105
    11f6:	f8 e1       	ldi	r31, 0x18	; 24
    11f8:	91 50       	subi	r25, 0x01	; 1
    11fa:	e0 40       	sbci	r30, 0x00	; 0
    11fc:	f0 40       	sbci	r31, 0x00	; 0
    11fe:	e1 f7       	brne	.-8      	; 0x11f8 <main+0xa0>
    1200:	00 c0       	rjmp	.+0      	; 0x1202 <main+0xaa>
    1202:	00 00       	nop
    1204:	9c e0       	ldi	r25, 0x0C	; 12
    1206:	88 e1       	ldi	r24, 0x18	; 24
				: "r0"
		);
	}
	else
	{
		__asm__ __volatile__ (
    1208:	0f b6       	in	r0, 0x3f	; 63
    120a:	f8 94       	cli
    120c:	a8 95       	wdr
    120e:	80 93 60 00 	sts	0x0060, r24	; 0x800060 <__TEXT_REGION_LENGTH__+0x7e0060>
    1212:	0f be       	out	0x3f, r0	; 63
    1214:	90 93 60 00 	sts	0x0060, r25	; 0x800060 <__TEXT_REGION_LENGTH__+0x7e0060>
    1218:	ff cf       	rjmp	.-2      	; 0x1218 <main+0xc0>
    121a:	f9 99       	sbic	0x1f, 1	; 31
    121c:	fe cf       	rjmp	.-4      	; 0x121a <main+0xc2>
			while (1);
		}
		check_bootloaderEntry();
	}; /* Identify the GPIB Address of the connected GPIB device */
	
	eeprom_busy_wait();
    121e:	88 e6       	ldi	r24, 0x68	; 104
    1220:	90 e0       	ldi	r25, 0x00	; 0
	if (eeprom_read_byte(104) != 0x01)
    1222:	0e 94 63 11 	call	0x22c6	; 0x22c6 <eeprom_read_byte>
    1226:	81 30       	cpi	r24, 0x01	; 1
    1228:	81 f1       	breq	.+96     	; 0x128a <main+0x132>
    122a:	f9 99       	sbic	0x1f, 1	; 31
	{
		/* found a responsive GPIB address, now setup USB descriptor with *IDN? or ID? command response */
		eeprom_busy_wait();
    122c:	fe cf       	rjmp	.-4      	; 0x122a <main+0xd2>
    122e:	80 e0       	ldi	r24, 0x00	; 0
		prevaddr = eeprom_read_byte((uint8_t*)0); /* read previous gpib address */
    1230:	90 e0       	ldi	r25, 0x00	; 0
    1232:	0e 94 63 11 	call	0x22c6	; 0x22c6 <eeprom_read_byte>
    1236:	c8 2f       	mov	r28, r24
		if (identifyGpibDevice())
    1238:	65 d8       	rcall	.-3894   	; 0x304 <identifyGpibDevice>
    123a:	88 23       	and	r24, r24
    123c:	99 f0       	breq	.+38     	; 0x1264 <main+0x10c>
    123e:	60 91 02 01 	lds	r22, 0x0102	; 0x800102 <gpib_addr>
		{ /* received a string over GPIB => Store it in EEPROM, if it changed */
			uint8_t *pdat, i;
			
			/* update gpib address and usb string descriptor in eeprom */
			eeprom_update_if_changed(0, gpib_addr);
    1242:	80 e0       	ldi	r24, 0x00	; 0
    1244:	90 e0       	ldi	r25, 0x00	; 0
    1246:	88 da       	rcall	.-2800   	; 0x758 <eeprom_update_if_changed>
    1248:	0a e7       	ldi	r16, 0x7A	; 122
    124a:	11 e0       	ldi	r17, 0x01	; 1
    124c:	c0 e0       	ldi	r28, 0x00	; 0
    124e:	d0 e0       	ldi	r29, 0x00	; 0
    1250:	f8 01       	movw	r30, r16
			pdat = (void *)&tmc_serial_string;
			for (i=0; i<sizeof(tmc_serial_string); i++)
			{
				eeprom_update_if_changed(1+i, *pdat++);
    1252:	61 91       	ld	r22, Z+
    1254:	8f 01       	movw	r16, r30
    1256:	21 96       	adiw	r28, 0x01	; 1
    1258:	ce 01       	movw	r24, r28
    125a:	7e da       	rcall	.-2820   	; 0x758 <eeprom_update_if_changed>
    125c:	c6 36       	cpi	r28, 0x66	; 102
    125e:	d1 05       	cpc	r29, r1
			uint8_t *pdat, i;
			
			/* update gpib address and usb string descriptor in eeprom */
			eeprom_update_if_changed(0, gpib_addr);
			pdat = (void *)&tmc_serial_string;
			for (i=0; i<sizeof(tmc_serial_string); i++)
    1260:	b9 f7       	brne	.-18     	; 0x1250 <main+0xf8>
    1262:	23 c0       	rjmp	.+70     	; 0x12aa <main+0x152>
    1264:	80 91 02 01 	lds	r24, 0x0102	; 0x800102 <gpib_addr>
				eeprom_update_if_changed(1+i, *pdat++);
			}
		}
		else
		{ /* received NO string over GPIB => Check, if the GPIB addr matches the one in eeprom, then report EEProm string! */
			if (prevaddr == gpib_addr)
    1268:	c8 13       	cpse	r28, r24
    126a:	1f c0       	rjmp	.+62     	; 0x12aa <main+0x152>
    126c:	0a e7       	ldi	r16, 0x7A	; 122
    126e:	11 e0       	ldi	r17, 0x01	; 1
    1270:	c1 e0       	ldi	r28, 0x01	; 1
    1272:	d0 e0       	ldi	r29, 0x00	; 0
    1274:	ce 01       	movw	r24, r28
    1276:	0e 94 63 11 	call	0x22c6	; 0x22c6 <eeprom_read_byte>

				/* update gpib address and usb string descriptor in eeprom */
				pdat = (void *)&tmc_serial_string;
				for (i=0; i<sizeof(tmc_serial_string); i++)
				{
					*pdat++ = eeprom_read_byte((uint8_t*)(1+i));
    127a:	f8 01       	movw	r30, r16
    127c:	81 93       	st	Z+, r24
    127e:	8f 01       	movw	r16, r30
    1280:	21 96       	adiw	r28, 0x01	; 1
    1282:	c7 36       	cpi	r28, 0x67	; 103
			{
				uint8_t *pdat, i;

				/* update gpib address and usb string descriptor in eeprom */
				pdat = (void *)&tmc_serial_string;
				for (i=0; i<sizeof(tmc_serial_string); i++)
    1284:	d1 05       	cpc	r29, r1
    1286:	b1 f7       	brne	.-20     	; 0x1274 <main+0x11c>
    1288:	10 c0       	rjmp	.+32     	; 0x12aa <main+0x152>
    128a:	81 e0       	ldi	r24, 0x01	; 1
			}
		}
	}
	else /* user disabled fully automated detection mode */
	{
		TMC_SetInternalSerial(true);
    128c:	0e 94 a8 00 	call	0x150	; 0x150 <TMC_SetInternalSerial>
    1290:	80 e0       	ldi	r24, 0x00	; 0
		gpib_ren(false);
    1292:	b9 d0       	rcall	.+370    	; 0x1406 <gpib_ren>
    1294:	ff ef       	ldi	r31, 0xFF	; 255
    1296:	21 ee       	ldi	r18, 0xE1	; 225
    1298:	84 e0       	ldi	r24, 0x04	; 4
    129a:	f1 50       	subi	r31, 0x01	; 1
    129c:	20 40       	sbci	r18, 0x00	; 0
    129e:	80 40       	sbci	r24, 0x00	; 0
    12a0:	e1 f7       	brne	.-8      	; 0x129a <main+0x142>
    12a2:	00 c0       	rjmp	.+0      	; 0x12a4 <main+0x14c>
		_delay_ms(100);
		gpib_ren(true);
    12a4:	00 00       	nop
    12a6:	81 e0       	ldi	r24, 0x01	; 1
    12a8:	ae d0       	rcall	.+348    	; 0x1406 <gpib_ren>
	}

	/* all fine, now kickoff connect to USB to be able to communicate! */
	LED(1);
    12aa:	8d 9a       	sbi	0x11, 5	; 17
			 *  register and despite the datasheet making no mention of its requirement in host mode.
			 */
			static inline void USB_Attach(void) ATTR_ALWAYS_INLINE;
			static inline void USB_Attach(void)
			{
				UDCON  &= ~(1 << DETACH);
    12ac:	80 91 e0 00 	lds	r24, 0x00E0	; 0x8000e0 <__TEXT_REGION_LENGTH__+0x7e00e0>
    12b0:	8e 7f       	andi	r24, 0xFE	; 254
    12b2:	80 93 e0 00 	sts	0x00E0, r24	; 0x8000e0 <__TEXT_REGION_LENGTH__+0x7e00e0>
	USB_Attach();
	
	for (;;)
	{
		TMC_Task();
    12b6:	8b dd       	rcall	.-1258   	; 0xdce <TMC_Task>
    12b8:	4c da       	rcall	.-2920   	; 0x752 <check_bootloaderEntry>
		
		check_bootloaderEntry();
    12ba:	9e d0       	rcall	.+316    	; 0x13f8 <gpib_is_connected>
    12bc:	81 11       	cpse	r24, r1
		
		if (!gpib_is_connected()) /* check, if gpib is disconnected */
    12be:	1a c0       	rjmp	.+52     	; 0x12f4 <main+0x19c>
    12c0:	8d 98       	cbi	0x11, 5	; 17
    12c2:	80 91 e0 00 	lds	r24, 0x00E0	; 0x8000e0 <__TEXT_REGION_LENGTH__+0x7e00e0>
		{ /* when we get here, reset the MCU and disconnect from USB ! It will reconnect once plugged in to GPIB again */
			LED(0);
    12c6:	81 60       	ori	r24, 0x01	; 1
			 *  enumerating the device once attached until \ref USB_Attach() is called.
			 */
			static inline void USB_Detach(void) ATTR_ALWAYS_INLINE;
			static inline void USB_Detach(void)
			{
				UDCON  |=  (1 << DETACH);
    12c8:	80 93 e0 00 	sts	0x00E0, r24	; 0x8000e0 <__TEXT_REGION_LENGTH__+0x7e00e0>
    12cc:	9f ef       	ldi	r25, 0xFF	; 255
    12ce:	e9 e6       	ldi	r30, 0x69	; 105
    12d0:	f8 e1       	ldi	r31, 0x18	; 24
    12d2:	91 50       	subi	r25, 0x01	; 1
    12d4:	e0 40       	sbci	r30, 0x00	; 0
    12d6:	f0 40       	sbci	r31, 0x00	; 0
    12d8:	e1 f7       	brne	.-8      	; 0x12d2 <main+0x17a>
    12da:	00 c0       	rjmp	.+0      	; 0x12dc <main+0x184>
    12dc:	00 00       	nop
    12de:	9c e0       	ldi	r25, 0x0C	; 12
    12e0:	88 e1       	ldi	r24, 0x18	; 24
    12e2:	0f b6       	in	r0, 0x3f	; 63
    12e4:	f8 94       	cli
    12e6:	a8 95       	wdr
    12e8:	80 93 60 00 	sts	0x0060, r24	; 0x800060 <__TEXT_REGION_LENGTH__+0x7e0060>
    12ec:	0f be       	out	0x3f, r0	; 63
    12ee:	90 93 60 00 	sts	0x0060, r25	; 0x800060 <__TEXT_REGION_LENGTH__+0x7e0060>
    12f2:	ff cf       	rjmp	.-2      	; 0x12f2 <main+0x19a>
    12f4:	b9 d7       	rcall	.+3954   	; 0x2268 <USB_USBTask>
    12f6:	df cf       	rjmp	.-66     	; 0x12b6 <main+0x15e>

000012f8 <CALLBACK_USB_GetDescriptor>:
	const uint8_t  DescriptorNumber = (wValue & 0xFF);

	const void* Address = NULL;
	uint16_t    Size    = NO_DESCRIPTOR;
	
	*DescriptorMemorySpace = MEMSPACE_FLASH;
    12f8:	f9 01       	movw	r30, r18
    12fa:	10 82       	st	Z, r1

	switch (DescriptorType)
    12fc:	69 2f       	mov	r22, r25
    12fe:	77 27       	eor	r23, r23
    1300:	62 30       	cpi	r22, 0x02	; 2
    1302:	71 05       	cpc	r23, r1
    1304:	59 f0       	breq	.+22     	; 0x131c <CALLBACK_USB_GetDescriptor+0x24>
    1306:	63 30       	cpi	r22, 0x03	; 3
    1308:	71 05       	cpc	r23, r1
    130a:	69 f0       	breq	.+26     	; 0x1326 <CALLBACK_USB_GetDescriptor+0x2e>
    130c:	61 30       	cpi	r22, 0x01	; 1
    130e:	71 05       	cpc	r23, r1
    1310:	49 f5       	brne	.+82     	; 0x1364 <CALLBACK_USB_GetDescriptor+0x6c>
	{
		case DTYPE_Device:
			Address = &DeviceDescriptor;
			Size    = sizeof(USB_Descriptor_Device_t);
    1312:	82 e1       	ldi	r24, 0x12	; 18
    1314:	90 e0       	ldi	r25, 0x00	; 0
	*DescriptorMemorySpace = MEMSPACE_FLASH;

	switch (DescriptorType)
	{
		case DTYPE_Device:
			Address = &DeviceDescriptor;
    1316:	21 e0       	ldi	r18, 0x01	; 1
    1318:	31 e0       	ldi	r19, 0x01	; 1
    131a:	28 c0       	rjmp	.+80     	; 0x136c <CALLBACK_USB_GetDescriptor+0x74>
			Size    = sizeof(USB_Descriptor_Device_t);
			break;
		case DTYPE_Configuration:
			Address = &ConfigurationDescriptor;
			Size    = sizeof(USB_Descriptor_Configuration_t);
    131c:	87 e2       	ldi	r24, 0x27	; 39
    131e:	90 e0       	ldi	r25, 0x00	; 0
		case DTYPE_Device:
			Address = &DeviceDescriptor;
			Size    = sizeof(USB_Descriptor_Device_t);
			break;
		case DTYPE_Configuration:
			Address = &ConfigurationDescriptor;
    1320:	2a ed       	ldi	r18, 0xDA	; 218
    1322:	30 e0       	ldi	r19, 0x00	; 0
			Size    = sizeof(USB_Descriptor_Configuration_t);
			break;
    1324:	23 c0       	rjmp	.+70     	; 0x136c <CALLBACK_USB_GetDescriptor+0x74>
		case DTYPE_String:
			switch (DescriptorNumber)
    1326:	99 27       	eor	r25, r25
    1328:	81 30       	cpi	r24, 0x01	; 1
    132a:	91 05       	cpc	r25, r1
    132c:	91 f0       	breq	.+36     	; 0x1352 <CALLBACK_USB_GetDescriptor+0x5a>
    132e:	70 f0       	brcs	.+28     	; 0x134c <CALLBACK_USB_GetDescriptor+0x54>
    1330:	82 30       	cpi	r24, 0x02	; 2
    1332:	91 05       	cpc	r25, r1
    1334:	89 f0       	breq	.+34     	; 0x1358 <CALLBACK_USB_GetDescriptor+0x60>
    1336:	03 97       	sbiw	r24, 0x03	; 3
    1338:	a9 f4       	brne	.+42     	; 0x1364 <CALLBACK_USB_GetDescriptor+0x6c>
					Address = &ProductString;
					Size    = pgm_read_byte(&ProductString.Header.Size);
					break;
				case STRING_ID_Serial:
					Address = &tmc_serial_string;
					Size = tmc_serial_string.Header.Size;
    133a:	80 91 7a 01 	lds	r24, 0x017A	; 0x80017a <tmc_serial_string>
    133e:	90 e0       	ldi	r25, 0x00	; 0
					*DescriptorMemorySpace = MEMSPACE_RAM;
    1340:	62 e0       	ldi	r22, 0x02	; 2
    1342:	f9 01       	movw	r30, r18
    1344:	60 83       	st	Z, r22
				case STRING_ID_Product:
					Address = &ProductString;
					Size    = pgm_read_byte(&ProductString.Header.Size);
					break;
				case STRING_ID_Serial:
					Address = &tmc_serial_string;
    1346:	2a e7       	ldi	r18, 0x7A	; 122
    1348:	31 e0       	ldi	r19, 0x01	; 1
					Size = tmc_serial_string.Header.Size;
					*DescriptorMemorySpace = MEMSPACE_RAM;
					break;
    134a:	10 c0       	rjmp	.+32     	; 0x136c <CALLBACK_USB_GetDescriptor+0x74>
		case DTYPE_String:
			switch (DescriptorNumber)
			{
				case STRING_ID_Language:
					Address = &LanguageString;
					Size    = pgm_read_byte(&LanguageString.Header.Size);
    134c:	e6 ed       	ldi	r30, 0xD6	; 214
    134e:	f0 e0       	ldi	r31, 0x00	; 0
    1350:	05 c0       	rjmp	.+10     	; 0x135c <CALLBACK_USB_GetDescriptor+0x64>
					break;
				case STRING_ID_Manufacturer:
					Address = &ManufacturerString;
					Size    = pgm_read_byte(&ManufacturerString.Header.Size);
    1352:	ee eb       	ldi	r30, 0xBE	; 190
    1354:	f0 e0       	ldi	r31, 0x00	; 0
    1356:	02 c0       	rjmp	.+4      	; 0x135c <CALLBACK_USB_GetDescriptor+0x64>
					break;
				case STRING_ID_Product:
					Address = &ProductString;
					Size    = pgm_read_byte(&ProductString.Header.Size);
    1358:	ec ea       	ldi	r30, 0xAC	; 172
    135a:	f0 e0       	ldi	r31, 0x00	; 0
    135c:	84 91       	lpm	r24, Z
    135e:	90 e0       	ldi	r25, 0x00	; 0
				case STRING_ID_Manufacturer:
					Address = &ManufacturerString;
					Size    = pgm_read_byte(&ManufacturerString.Header.Size);
					break;
				case STRING_ID_Product:
					Address = &ProductString;
    1360:	9f 01       	movw	r18, r30
					Size    = pgm_read_byte(&ProductString.Header.Size);
					break;
    1362:	04 c0       	rjmp	.+8      	; 0x136c <CALLBACK_USB_GetDescriptor+0x74>
{
	const uint8_t  DescriptorType   = (wValue >> 8);
	const uint8_t  DescriptorNumber = (wValue & 0xFF);

	const void* Address = NULL;
	uint16_t    Size    = NO_DESCRIPTOR;
    1364:	80 e0       	ldi	r24, 0x00	; 0
    1366:	90 e0       	ldi	r25, 0x00	; 0
			                        uint8_t* const DescriptorMemorySpace)
{
	const uint8_t  DescriptorType   = (wValue >> 8);
	const uint8_t  DescriptorNumber = (wValue & 0xFF);

	const void* Address = NULL;
    1368:	20 e0       	ldi	r18, 0x00	; 0
    136a:	30 e0       	ldi	r19, 0x00	; 0
					break;
			}
			break;
	}

	*DescriptorAddress = Address;
    136c:	fa 01       	movw	r30, r20
    136e:	31 83       	std	Z+1, r19	; 0x01
    1370:	20 83       	st	Z, r18
	return Size;
}
    1372:	08 95       	ret

00001374 <is_timedout>:
	#else
		//round up by default
		__ticks_dc = (uint32_t)(ceil(fabs(__tmp)));
	#endif

	__builtin_avr_delay_cycles(__ticks_dc);
    1374:	85 e3       	ldi	r24, 0x35	; 53
    1376:	8a 95       	dec	r24
    1378:	f1 f7       	brne	.-4      	; 0x1376 <is_timedout+0x2>
    137a:	00 00       	nop
}

static bool is_timedout(void)
{
	_delay_us(10);
	if (timeout_val == 0)
    137c:	80 91 6d 01 	lds	r24, 0x016D	; 0x80016d <timeout_val>
    1380:	90 91 6e 01 	lds	r25, 0x016E	; 0x80016e <timeout_val+0x1>
    1384:	00 97       	sbiw	r24, 0x00	; 0
    1386:	39 f0       	breq	.+14     	; 0x1396 <is_timedout+0x22>
		return true;
		
	timeout_val--;
    1388:	01 97       	sbiw	r24, 0x01	; 1
    138a:	90 93 6e 01 	sts	0x016E, r25	; 0x80016e <timeout_val+0x1>
    138e:	80 93 6d 01 	sts	0x016D, r24	; 0x80016d <timeout_val>
	return false;
    1392:	80 e0       	ldi	r24, 0x00	; 0
    1394:	08 95       	ret

static bool is_timedout(void)
{
	_delay_us(10);
	if (timeout_val == 0)
		return true;
    1396:	81 e0       	ldi	r24, 0x01	; 1
		
	timeout_val--;
	return false;
}
    1398:	08 95       	ret

0000139a <__vector_23>:
	timer0_100mscounter = 0;
}


ISR (TIMER0_OVF_vect)
{
    139a:	1f 92       	push	r1
    139c:	0f 92       	push	r0
    139e:	0f b6       	in	r0, 0x3f	; 63
    13a0:	0f 92       	push	r0
    13a2:	11 24       	eor	r1, r1
    13a4:	8f 93       	push	r24
	timer0_div++;
    13a6:	80 91 73 01 	lds	r24, 0x0173	; 0x800173 <timer0_div>
    13aa:	8f 5f       	subi	r24, 0xFF	; 255
    13ac:	80 93 73 01 	sts	0x0173, r24	; 0x800173 <timer0_div>
	if (timer0_div >= 6) /* are 100ms passed? */
    13b0:	86 30       	cpi	r24, 0x06	; 6
    13b2:	e0 f0       	brcs	.+56     	; 0x13ec <__vector_23+0x52>
	{
		timer0_100mscounter++;
    13b4:	80 91 74 01 	lds	r24, 0x0174	; 0x800174 <timer0_100mscounter>
    13b8:	8f 5f       	subi	r24, 0xFF	; 255
    13ba:	80 93 74 01 	sts	0x0174, r24	; 0x800174 <timer0_100mscounter>
		timer0_div = 0;
    13be:	10 92 73 01 	sts	0x0173, r1	; 0x800173 <timer0_div>
		
		if (!s_gpib_transaction_active) /* only check, if no GPIB transaction is active */
    13c2:	80 91 70 01 	lds	r24, 0x0170	; 0x800170 <s_gpib_transaction_active>
    13c6:	81 11       	cpse	r24, r1
    13c8:	11 c0       	rjmp	.+34     	; 0x13ec <__vector_23+0x52>
		{
			if (!ATN_STATE) /* is ATN LOW? This can only happen if no GPIB device is connected/powered */
    13ca:	7e 99       	sbic	0x0f, 6	; 15
    13cc:	0a c0       	rjmp	.+20     	; 0x13e2 <__vector_23+0x48>
			{
				if (s_gpib_disconnect_counter == 2)
    13ce:	80 91 71 01 	lds	r24, 0x0171	; 0x800171 <s_gpib_disconnect_counter>
    13d2:	82 30       	cpi	r24, 0x02	; 2
    13d4:	11 f4       	brne	.+4      	; 0x13da <__vector_23+0x40>
				{ /* after 100-200ms with ATN low, assume, that there is no GPIB device connected */
					s_device_state = GPIB_DEVICE_CONNECTSTATE_DISCONNECTED;
    13d6:	81 e0       	ldi	r24, 0x01	; 1
    13d8:	07 c0       	rjmp	.+14     	; 0x13e8 <__vector_23+0x4e>
				}
				else
				{
					s_gpib_disconnect_counter++;
    13da:	8f 5f       	subi	r24, 0xFF	; 255
    13dc:	80 93 71 01 	sts	0x0171, r24	; 0x800171 <s_gpib_disconnect_counter>
    13e0:	05 c0       	rjmp	.+10     	; 0x13ec <__vector_23+0x52>
				}
			}
			else
			{ /* device is connected */
				s_gpib_disconnect_counter = 0;
    13e2:	10 92 71 01 	sts	0x0171, r1	; 0x800171 <s_gpib_disconnect_counter>
				s_device_state = GPIB_DEVICE_CONNECTSTATE_CONNECTED;
    13e6:	82 e0       	ldi	r24, 0x02	; 2
    13e8:	80 93 72 01 	sts	0x0172, r24	; 0x800172 <s_device_state>
			}
		}
	}
}
    13ec:	8f 91       	pop	r24
    13ee:	0f 90       	pop	r0
    13f0:	0f be       	out	0x3f, r0	; 63
    13f2:	0f 90       	pop	r0
    13f4:	1f 90       	pop	r1
    13f6:	18 95       	reti

000013f8 <gpib_is_connected>:
	timer_init(); /* init timeout timer */
}

bool gpib_is_connected(void)
{
	return s_device_state == GPIB_DEVICE_CONNECTSTATE_CONNECTED;
    13f8:	81 e0       	ldi	r24, 0x01	; 1
    13fa:	90 91 72 01 	lds	r25, 0x0172	; 0x800172 <s_device_state>
    13fe:	92 30       	cpi	r25, 0x02	; 2
    1400:	09 f0       	breq	.+2      	; 0x1404 <gpib_is_connected+0xc>
    1402:	80 e0       	ldi	r24, 0x00	; 0
}
    1404:	08 95       	ret

00001406 <gpib_ren>:

void gpib_ren(bool enable)
{
	if (enable)
    1406:	88 23       	and	r24, r24
    1408:	11 f0       	breq	.+4      	; 0x140e <gpib_ren+0x8>
	{
		REN_LOW; /* remote enable */
    140a:	25 9a       	sbi	0x04, 5	; 4
    140c:	08 95       	ret
	}
	else
	{
		REN_HIGH; /* remote disable */
    140e:	25 98       	cbi	0x04, 5	; 4
    1410:	08 95       	ret

00001412 <gpib_interface_clear>:



void gpib_interface_clear(void)
{
	IFC_LOW; /* interface clear */
    1412:	6a 9a       	sbi	0x0d, 2	; 13
	#else
		//round up by default
		__ticks_dc = (uint32_t)(ceil(fabs(__tmp)));
	#endif

	__builtin_avr_delay_cycles(__ticks_dc);
    1414:	2f ef       	ldi	r18, 0xFF	; 255
    1416:	81 ee       	ldi	r24, 0xE1	; 225
    1418:	94 e0       	ldi	r25, 0x04	; 4
    141a:	21 50       	subi	r18, 0x01	; 1
    141c:	80 40       	sbci	r24, 0x00	; 0
    141e:	90 40       	sbci	r25, 0x00	; 0
    1420:	e1 f7       	brne	.-8      	; 0x141a <gpib_interface_clear+0x8>
    1422:	00 c0       	rjmp	.+0      	; 0x1424 <gpib_interface_clear+0x12>
    1424:	00 00       	nop
	_delay_ms(100);
	IFC_HIGH; /* interface clear */
    1426:	6a 98       	cbi	0x0d, 2	; 13
    1428:	8f e3       	ldi	r24, 0x3F	; 63
    142a:	9c e9       	ldi	r25, 0x9C	; 156
    142c:	01 97       	sbiw	r24, 0x01	; 1
    142e:	f1 f7       	brne	.-4      	; 0x142c <gpib_interface_clear+0x1a>
    1430:	00 c0       	rjmp	.+0      	; 0x1432 <gpib_interface_clear+0x20>
    1432:	00 00       	nop
	_delay_ms(10);
	s_gpib_transaction_active = false;
    1434:	10 92 70 01 	sts	0x0170, r1	; 0x800170 <s_gpib_transaction_active>
    1438:	08 95       	ret

0000143a <gpib_init>:
 **********************************************************************************************************/

void gpib_init(void)
{
// PB5 = REN
	DDRD  = 0x00;
    143a:	1a b8       	out	0x0a, r1	; 10
	PORTD = 0x00;
    143c:	1b b8       	out	0x0b, r1	; 11
	PORTB &= ~((1<<4) | (1<<5) | (1<<6));
    143e:	85 b1       	in	r24, 0x05	; 5
    1440:	8f 78       	andi	r24, 0x8F	; 143
    1442:	85 b9       	out	0x05, r24	; 5
	DDRB  &= ~((1<<4) | (1<<5) | (1<<6));
    1444:	84 b1       	in	r24, 0x04	; 4
    1446:	8f 78       	andi	r24, 0x8F	; 143
    1448:	84 b9       	out	0x04, r24	; 4
	PORTC &= ~((1<<6) | (1<<7));
    144a:	88 b1       	in	r24, 0x08	; 8
    144c:	8f 73       	andi	r24, 0x3F	; 63
    144e:	88 b9       	out	0x08, r24	; 8
	DDRC  &= ~((1<<6) | (1<<7));
    1450:	87 b1       	in	r24, 0x07	; 7
    1452:	8f 73       	andi	r24, 0x3F	; 63
    1454:	87 b9       	out	0x07, r24	; 7
	PORTE &= ~(1<<2);
    1456:	72 98       	cbi	0x0e, 2	; 14
	DDRE  &= ~(1<<2);
    1458:	6a 98       	cbi	0x0d, 2	; 13
	PORTF &= ~((1<<6) | (1<<7));
    145a:	81 b3       	in	r24, 0x11	; 17
    145c:	8f 73       	andi	r24, 0x3F	; 63
    145e:	81 bb       	out	0x11, r24	; 17
	DDRF  &= ~((1<<6) | (1<<7));
    1460:	80 b3       	in	r24, 0x10	; 16
    1462:	8f 73       	andi	r24, 0x3F	; 63
    1464:	80 bb       	out	0x10, r24	; 16
	
	DDRB |= (1<<5); /* remote enable */
    1466:	25 9a       	sbi	0x04, 5	; 4

	s_gpib_transaction_active = false;
    1468:	10 92 70 01 	sts	0x0170, r1	; 0x800170 <s_gpib_transaction_active>
	s_gpib_disconnect_counter = 0;
    146c:	10 92 71 01 	sts	0x0171, r1	; 0x800171 <s_gpib_disconnect_counter>
	
	gpib_interface_clear();
    1470:	d0 df       	rcall	.-96     	; 0x1412 <gpib_interface_clear>
}
*/

static void timer_init(void)
{
	TCCR0B = 5; // Prescaler 1024 = 15625 Hz
    1472:	85 e0       	ldi	r24, 0x05	; 5
    1474:	85 bd       	out	0x25, r24	; 37
	// Overflow Interrupt erlauben
	TIMSK0 |= (1<<TOIE0);
    1476:	ee e6       	ldi	r30, 0x6E	; 110
    1478:	f0 e0       	ldi	r31, 0x00	; 0
    147a:	80 81       	ld	r24, Z
    147c:	81 60       	ori	r24, 0x01	; 1
    147e:	80 83       	st	Z, r24
	timer0_div = 0;
    1480:	10 92 73 01 	sts	0x0173, r1	; 0x800173 <timer0_div>
	timer0_100mscounter = 0;
    1484:	10 92 74 01 	sts	0x0174, r1	; 0x800174 <timer0_100mscounter>
    1488:	08 95       	ret

0000148a <gpib_tx>:
{
	gpib_init();
}

static bool gpib_tx(uint8_t dat, bool iscommand, gpibtimeout_t ptimeoutfunc)
{
    148a:	0f 93       	push	r16
    148c:	1f 93       	push	r17
    148e:	cf 93       	push	r28
    1490:	8a 01       	movw	r16, r20
	bool timedout;
	
	DAV_HIGH;
    1492:	26 98       	cbi	0x04, 6	; 4
	NRFD_HIGH;
    1494:	3e 98       	cbi	0x07, 6	; 7
	NDAC_HIGH;  /* they should be already high, but let's enforce it */
    1496:	3f 98       	cbi	0x07, 7	; 7
	
	if (iscommand)
    1498:	66 23       	and	r22, r22
    149a:	11 f0       	breq	.+4      	; 0x14a0 <gpib_tx+0x16>
		ATN_LOW;
    149c:	86 9a       	sbi	0x10, 6	; 16
    149e:	01 c0       	rjmp	.+2      	; 0x14a2 <gpib_tx+0x18>
	else
		ATN_HIGH;
    14a0:	86 98       	cbi	0x10, 6	; 16

	DDRD = dat;   /* set Data to data bus */
    14a2:	8a b9       	out	0x0a, r24	; 10
	#else
		//round up by default
		__ticks_dc = (uint32_t)(ceil(fabs(__tmp)));
	#endif

	__builtin_avr_delay_cycles(__ticks_dc);
    14a4:	85 e0       	ldi	r24, 0x05	; 5
    14a6:	8a 95       	dec	r24
    14a8:	f1 f7       	brne	.-4      	; 0x14a6 <gpib_tx+0x1c>
    14aa:	00 00       	nop
	_delay_us(1); /* wait for data to settle */
		
	/* wait until ready for data acceptance (NRFD=H, NDAC=L)*/
	do
	{
		timedout = ptimeoutfunc();
    14ac:	f8 01       	movw	r30, r16
    14ae:	09 95       	icall
    14b0:	c8 2f       	mov	r28, r24
	}
	while ( (NRFD_STATE == 0) && !timedout); /* wait until ready for data (NRFD to get high) */
    14b2:	36 99       	sbic	0x06, 6	; 6
    14b4:	03 c0       	rjmp	.+6      	; 0x14bc <gpib_tx+0x32>
    14b6:	88 23       	and	r24, r24
    14b8:	c9 f3       	breq	.-14     	; 0x14ac <gpib_tx+0x22>
    14ba:	0b c0       	rjmp	.+22     	; 0x14d2 <gpib_tx+0x48>

	if (!timedout)
    14bc:	81 11       	cpse	r24, r1
    14be:	09 c0       	rjmp	.+18     	; 0x14d2 <gpib_tx+0x48>
	{
		DAV_LOW;
    14c0:	26 9a       	sbi	0x04, 6	; 4
		do
		{
			timedout = ptimeoutfunc();
    14c2:	f8 01       	movw	r30, r16
    14c4:	09 95       	icall
    14c6:	c8 2f       	mov	r28, r24
		}
		while ( (NDAC_STATE == 0) && !timedout ); /* wait until NDAC gets high*/
    14c8:	37 99       	sbic	0x06, 7	; 6
    14ca:	02 c0       	rjmp	.+4      	; 0x14d0 <gpib_tx+0x46>
    14cc:	88 23       	and	r24, r24
    14ce:	c9 f3       	breq	.-14     	; 0x14c2 <gpib_tx+0x38>
		DAV_HIGH; 
    14d0:	26 98       	cbi	0x04, 6	; 4
	}
	
	DDRD = 0x00; /* release data bus */
    14d2:	1a b8       	out	0x0a, r1	; 10
	ATN_HIGH;	 
    14d4:	86 98       	cbi	0x10, 6	; 16
	
	if (timedout)
    14d6:	c1 11       	cpse	r28, r1

static char s_terminator = '\0'; /* \0 = no termination character - EOI only, other options are '\n' or '\r' */
 
static void gpib_recover(void)
{
	gpib_init();
    14d8:	b0 df       	rcall	.-160    	; 0x143a <gpib_init>
	if (timedout)
	{
		gpib_recover();
	}
	return timedout;
}
    14da:	8c 2f       	mov	r24, r28
    14dc:	cf 91       	pop	r28
    14de:	1f 91       	pop	r17
    14e0:	0f 91       	pop	r16
    14e2:	08 95       	ret

000014e4 <gpib_cmd_TAG>:
	return gpib_tx(addr | 0x60, true, ptimeoutfunc);
}


static bool gpib_cmd_TAG(uint8_t addr, gpibtimeout_t ptimeoutfunc)
{
    14e4:	0f 93       	push	r16
    14e6:	1f 93       	push	r17
    14e8:	cf 93       	push	r28
    14ea:	c8 2f       	mov	r28, r24
    14ec:	8b 01       	movw	r16, r22
	bool result;
	result = gpib_tx((addr & 0x1f) | 0x40, true, ptimeoutfunc);
    14ee:	8f 71       	andi	r24, 0x1F	; 31
    14f0:	ab 01       	movw	r20, r22
    14f2:	61 e0       	ldi	r22, 0x01	; 1
    14f4:	80 64       	ori	r24, 0x40	; 64
    14f6:	c9 df       	rcall	.-110    	; 0x148a <gpib_tx>
	if (addr & 0xe0)
    14f8:	c0 7e       	andi	r28, 0xE0	; 224
    14fa:	39 f0       	breq	.+14     	; 0x150a <gpib_cmd_TAG+0x26>
	{ /* send a secondary address? */
		result = gpib_tx(0x60, true, ptimeoutfunc);        // SAG (SA0)	
    14fc:	a8 01       	movw	r20, r16
    14fe:	61 e0       	ldi	r22, 0x01	; 1
    1500:	80 e6       	ldi	r24, 0x60	; 96
	}
	return result;
}
    1502:	cf 91       	pop	r28
    1504:	1f 91       	pop	r17
{
	bool result;
	result = gpib_tx((addr & 0x1f) | 0x40, true, ptimeoutfunc);
	if (addr & 0xe0)
	{ /* send a secondary address? */
		result = gpib_tx(0x60, true, ptimeoutfunc);        // SAG (SA0)	
    1506:	0f 91       	pop	r16
    1508:	c0 cf       	rjmp	.-128    	; 0x148a <gpib_tx>
	}
	return result;
}
    150a:	cf 91       	pop	r28
    150c:	1f 91       	pop	r17
    150e:	0f 91       	pop	r16
    1510:	08 95       	ret

00001512 <gpib_cmd_LAG>:
	return gpib_tx(dat, false, ptimeoutfunc);
}


static bool gpib_cmd_LAG(uint8_t addr, gpibtimeout_t ptimeoutfunc)
{
    1512:	0f 93       	push	r16
    1514:	1f 93       	push	r17
    1516:	cf 93       	push	r28
    1518:	c8 2f       	mov	r28, r24
    151a:	8b 01       	movw	r16, r22
	bool result;
	result = gpib_tx((addr & 0x1f) | 0x20, true, ptimeoutfunc);
    151c:	8f 71       	andi	r24, 0x1F	; 31
    151e:	ab 01       	movw	r20, r22
    1520:	61 e0       	ldi	r22, 0x01	; 1
    1522:	80 62       	ori	r24, 0x20	; 32
    1524:	b2 df       	rcall	.-156    	; 0x148a <gpib_tx>
	if (addr & 0xe0)
    1526:	c0 7e       	andi	r28, 0xE0	; 224
    1528:	39 f0       	breq	.+14     	; 0x1538 <gpib_cmd_LAG+0x26>
	{ /* send a secondary address? */
		result = gpib_tx(0x60, true, ptimeoutfunc);        // SAG (SA0)
    152a:	a8 01       	movw	r20, r16
    152c:	61 e0       	ldi	r22, 0x01	; 1
    152e:	80 e6       	ldi	r24, 0x60	; 96
	}
	return result;
}
    1530:	cf 91       	pop	r28
    1532:	1f 91       	pop	r17
{
	bool result;
	result = gpib_tx((addr & 0x1f) | 0x20, true, ptimeoutfunc);
	if (addr & 0xe0)
	{ /* send a secondary address? */
		result = gpib_tx(0x60, true, ptimeoutfunc);        // SAG (SA0)
    1534:	0f 91       	pop	r16
    1536:	a9 cf       	rjmp	.-174    	; 0x148a <gpib_tx>
	}
	return result;
}
    1538:	cf 91       	pop	r28
    153a:	1f 91       	pop	r17
    153c:	0f 91       	pop	r16
    153e:	08 95       	ret

00001540 <gpib_cmd_UNL>:
	return result;
}

static bool gpib_cmd_UNL(gpibtimeout_t ptimeoutfunc)
{
	return gpib_tx(0x3F, true, ptimeoutfunc);
    1540:	ac 01       	movw	r20, r24
    1542:	61 e0       	ldi	r22, 0x01	; 1
    1544:	8f e3       	ldi	r24, 0x3F	; 63
    1546:	a1 cf       	rjmp	.-190    	; 0x148a <gpib_tx>

00001548 <gpib_trigger>:

}


bool gpib_trigger(uint8_t addr, gpibtimeout_t ptimeoutfunc)
{
    1548:	cf 93       	push	r28
    154a:	df 93       	push	r29
    154c:	eb 01       	movw	r28, r22
	bool timedout;
	
	timedout = gpib_cmd_LAG(addr, ptimeoutfunc); 
    154e:	e1 df       	rcall	.-62     	; 0x1512 <gpib_cmd_LAG>
	if (!timedout)
    1550:	81 11       	cpse	r24, r1
    1552:	0a c0       	rjmp	.+20     	; 0x1568 <gpib_trigger+0x20>
	return gpib_tx(0x19, true, ptimeoutfunc);
}

static bool gpib_cmd_GET(gpibtimeout_t ptimeoutfunc) // group execute trigger (addressed command)
{
	return gpib_tx(0x08, true, ptimeoutfunc);
    1554:	ae 01       	movw	r20, r28
    1556:	61 e0       	ldi	r22, 0x01	; 1
    1558:	88 e0       	ldi	r24, 0x08	; 8
    155a:	97 df       	rcall	.-210    	; 0x148a <gpib_tx>
	bool timedout;
	
	timedout = gpib_cmd_LAG(addr, ptimeoutfunc); 
	if (!timedout)
		timedout = gpib_cmd_GET(ptimeoutfunc);
	if (!timedout)
    155c:	81 11       	cpse	r24, r1
		timedout = gpib_cmd_UNL(ptimeoutfunc);
    155e:	04 c0       	rjmp	.+8      	; 0x1568 <gpib_trigger+0x20>
    1560:	ce 01       	movw	r24, r28
		
	if (timedout)
    1562:	ee df       	rcall	.-36     	; 0x1540 <gpib_cmd_UNL>
    1564:	88 23       	and	r24, r24

static char s_terminator = '\0'; /* \0 = no termination character - EOI only, other options are '\n' or '\r' */
 
static void gpib_recover(void)
{
	gpib_init();
    1566:	11 f0       	breq	.+4      	; 0x156c <gpib_trigger+0x24>
    1568:	68 df       	rcall	.-304    	; 0x143a <gpib_init>
    156a:	81 e0       	ldi	r24, 0x01	; 1
		timedout = gpib_cmd_UNL(ptimeoutfunc);
		
	if (timedout)
		gpib_recover();
	return timedout;
}
    156c:	df 91       	pop	r29
    156e:	cf 91       	pop	r28
    1570:	08 95       	ret

00001572 <gpib_gotoLocal>:
		gpib_recover();
	return timedout;
}

bool gpib_gotoLocal(uint8_t addr, gpibtimeout_t ptimeoutfunc)
{
    1572:	cf 93       	push	r28
    1574:	df 93       	push	r29
    1576:	eb 01       	movw	r28, r22
	bool timedout;
	
	timedout = gpib_cmd_LAG(addr, ptimeoutfunc); 
    1578:	cc df       	rcall	.-104    	; 0x1512 <gpib_cmd_LAG>
	if (!timedout)
    157a:	81 11       	cpse	r24, r1
    157c:	09 c0       	rjmp	.+18     	; 0x1590 <gpib_gotoLocal+0x1e>
	return gpib_tx(0x11, true, ptimeoutfunc);
}

static bool gpib_cmd_GTL(gpibtimeout_t ptimeoutfunc) // goto local
{
	return gpib_tx(0x01, true, ptimeoutfunc);
    157e:	ae 01       	movw	r20, r28
    1580:	61 e0       	ldi	r22, 0x01	; 1
    1582:	81 e0       	ldi	r24, 0x01	; 1
    1584:	82 df       	rcall	.-252    	; 0x148a <gpib_tx>
	
	timedout = gpib_cmd_LAG(addr, ptimeoutfunc); 
	if (!timedout)
		timedout = gpib_cmd_GTL(ptimeoutfunc);
		
	if (!timedout)
    1586:	81 11       	cpse	r24, r1
		timedout = gpib_cmd_UNL(ptimeoutfunc);
    1588:	03 c0       	rjmp	.+6      	; 0x1590 <gpib_gotoLocal+0x1e>
    158a:	ce 01       	movw	r24, r28
		
	if (timedout)
    158c:	d9 df       	rcall	.-78     	; 0x1540 <gpib_cmd_UNL>

static char s_terminator = '\0'; /* \0 = no termination character - EOI only, other options are '\n' or '\r' */
 
static void gpib_recover(void)
{
	gpib_init();
    158e:	81 11       	cpse	r24, r1
    1590:	54 df       	rcall	.-344    	; 0x143a <gpib_init>
		timedout = gpib_cmd_UNL(ptimeoutfunc);
		
	if (timedout)
		gpib_recover();

}
    1592:	80 e0       	ldi	r24, 0x00	; 0
    1594:	df 91       	pop	r29
    1596:	cf 91       	pop	r28
    1598:	08 95       	ret

0000159a <gpib_localLockout>:
		gpib_recover();	
	return status;
}

bool gpib_localLockout(gpibtimeout_t ptimeoutfunc)
{
    159a:	cf 93       	push	r28
	return gpib_tx(0x5F, true, ptimeoutfunc);
}

static bool gpib_cmd_LLO(gpibtimeout_t ptimeoutfunc) // local lockout
{
	return gpib_tx(0x11, true, ptimeoutfunc);
    159c:	ac 01       	movw	r20, r24
    159e:	61 e0       	ldi	r22, 0x01	; 1
    15a0:	81 e1       	ldi	r24, 0x11	; 17
    15a2:	73 df       	rcall	.-282    	; 0x148a <gpib_tx>
    15a4:	c8 2f       	mov	r28, r24

static char s_terminator = '\0'; /* \0 = no termination character - EOI only, other options are '\n' or '\r' */
 
static void gpib_recover(void)
{
	gpib_init();
    15a6:	81 11       	cpse	r24, r1
    15a8:	48 df       	rcall	.-368    	; 0x143a <gpib_init>

	timedout = gpib_cmd_LLO(ptimeoutfunc);
	if (timedout)
		gpib_recover();
	return timedout;
}
    15aa:	8c 2f       	mov	r24, r28
    15ac:	cf 91       	pop	r28
    15ae:	08 95       	ret

000015b0 <gpib_readdat>:




uint8_t gpib_readdat(bool *pEoi, bool *ptimedout, gpibtimeout_t ptimeoutfunc)
{
    15b0:	af 92       	push	r10
    15b2:	bf 92       	push	r11
    15b4:	df 92       	push	r13
    15b6:	ef 92       	push	r14
    15b8:	ff 92       	push	r15
    15ba:	0f 93       	push	r16
    15bc:	1f 93       	push	r17
    15be:	cf 93       	push	r28
    15c0:	df 93       	push	r29
    15c2:	8c 01       	movw	r16, r24
    15c4:	7b 01       	movw	r14, r22
    15c6:	5a 01       	movw	r10, r20
	
	c = 0;
	eoi = false;	
	
	/* skipping NRFD LOW step, because we are able to handshake and response to data */
	NDAC_LOW;
    15c8:	3f 9a       	sbi	0x07, 7	; 7
	NRFD_HIGH;
    15ca:	3e 98       	cbi	0x07, 6	; 7
	
	do
	{
		timedout = ptimeoutfunc();
    15cc:	f5 01       	movw	r30, r10
    15ce:	09 95       	icall
    15d0:	d8 2f       	mov	r29, r24
	}
	while ( (DAV_STATE != 0) && !timedout ); /* wait until DAV gets low */
    15d2:	1e 9b       	sbis	0x03, 6	; 3
    15d4:	03 c0       	rjmp	.+6      	; 0x15dc <gpib_readdat+0x2c>
    15d6:	88 23       	and	r24, r24
    15d8:	c9 f3       	breq	.-14     	; 0x15cc <gpib_readdat+0x1c>
    15da:	14 c0       	rjmp	.+40     	; 0x1604 <gpib_readdat+0x54>
	
	if (!timedout)
    15dc:	81 11       	cpse	r24, r1
    15de:	12 c0       	rjmp	.+36     	; 0x1604 <gpib_readdat+0x54>
	{
		NRFD_LOW;
    15e0:	3e 9a       	sbi	0x07, 6	; 7
		c = ~PIND;
    15e2:	c9 b1       	in	r28, 0x09	; 9
    15e4:	c0 95       	com	r28
		eoi = (EOI_STATE == 0) ;
    15e6:	d3 b0       	in	r13, 0x03	; 3
    15e8:	d4 fa       	bst	r13, 4
    15ea:	dd 24       	eor	r13, r13
    15ec:	d0 f8       	bld	r13, 0
    15ee:	81 e0       	ldi	r24, 0x01	; 1
    15f0:	d8 26       	eor	r13, r24
		NDAC_HIGH;
    15f2:	3f 98       	cbi	0x07, 7	; 7
		
		do
		{
			timedout = ptimeoutfunc();
    15f4:	f5 01       	movw	r30, r10
    15f6:	09 95       	icall
    15f8:	d8 2f       	mov	r29, r24
		}
		while ( (DAV_STATE == 0) && !timedout ); /* wait until DAV gets high */
    15fa:	1e 99       	sbic	0x03, 6	; 3
    15fc:	05 c0       	rjmp	.+10     	; 0x1608 <gpib_readdat+0x58>
    15fe:	88 23       	and	r24, r24
    1600:	c9 f3       	breq	.-14     	; 0x15f4 <gpib_readdat+0x44>
    1602:	02 c0       	rjmp	.+4      	; 0x1608 <gpib_readdat+0x58>
{
	uint8_t c;
	bool eoi, timedout;	
	
	c = 0;
	eoi = false;	
    1604:	d1 2c       	mov	r13, r1
uint8_t gpib_readdat(bool *pEoi, bool *ptimedout, gpibtimeout_t ptimeoutfunc)
{
	uint8_t c;
	bool eoi, timedout;	
	
	c = 0;
    1606:	c0 e0       	ldi	r28, 0x00	; 0
		}
		while ( (DAV_STATE == 0) && !timedout ); /* wait until DAV gets high */
	}

	
	if (s_terminator == '\0')
    1608:	90 91 6f 01 	lds	r25, 0x016F	; 0x80016f <s_terminator>
    160c:	91 11       	cpse	r25, r1
    160e:	03 c0       	rjmp	.+6      	; 0x1616 <gpib_readdat+0x66>
		*pEoi = eoi;
    1610:	f8 01       	movw	r30, r16
    1612:	d0 82       	st	Z, r13
    1614:	08 c0       	rjmp	.+16     	; 0x1626 <gpib_readdat+0x76>
	else
		*pEoi = eoi || (c == s_terminator);
    1616:	81 e0       	ldi	r24, 0x01	; 1
    1618:	d1 10       	cpse	r13, r1
    161a:	02 c0       	rjmp	.+4      	; 0x1620 <gpib_readdat+0x70>
    161c:	c9 13       	cpse	r28, r25
    161e:	80 e0       	ldi	r24, 0x00	; 0
    1620:	81 70       	andi	r24, 0x01	; 1
    1622:	f8 01       	movw	r30, r16
    1624:	80 83       	st	Z, r24

	if (timedout)
    1626:	d1 11       	cpse	r29, r1

static char s_terminator = '\0'; /* \0 = no termination character - EOI only, other options are '\n' or '\r' */
 
static void gpib_recover(void)
{
	gpib_init();
    1628:	08 df       	rcall	.-496    	; 0x143a <gpib_init>

	if (timedout)
	{
		gpib_recover();
	}
	*ptimedout = timedout;
    162a:	f7 01       	movw	r30, r14
    162c:	d0 83       	st	Z, r29
	return c;
};
    162e:	8c 2f       	mov	r24, r28
    1630:	df 91       	pop	r29
    1632:	cf 91       	pop	r28
    1634:	1f 91       	pop	r17
    1636:	0f 91       	pop	r16
    1638:	ff 90       	pop	r15
    163a:	ef 90       	pop	r14
    163c:	df 90       	pop	r13
    163e:	bf 90       	pop	r11
    1640:	af 90       	pop	r10
    1642:	08 95       	ret

00001644 <gpib_readStatusByte>:
}



uint8_t gpib_readStatusByte(uint8_t addr, gpibtimeout_t ptimeoutfunc)
{
    1644:	ff 92       	push	r15
    1646:	0f 93       	push	r16
    1648:	1f 93       	push	r17
    164a:	cf 93       	push	r28
    164c:	df 93       	push	r29
    164e:	00 d0       	rcall	.+0      	; 0x1650 <gpib_readStatusByte+0xc>
    1650:	cd b7       	in	r28, 0x3d	; 61
    1652:	de b7       	in	r29, 0x3e	; 62
    1654:	f8 2e       	mov	r15, r24
    1656:	8b 01       	movw	r16, r22
	bool timedout, eoi;
	uint8_t status;
	
	timedout = false;
    1658:	1a 82       	std	Y+2, r1	; 0x02
}


static bool gpib_cmd_SPE(gpibtimeout_t ptimeoutfunc) // serial poll enable
{
	return gpib_tx(0x18, true, ptimeoutfunc);
    165a:	ab 01       	movw	r20, r22
    165c:	61 e0       	ldi	r22, 0x01	; 1
    165e:	88 e1       	ldi	r24, 0x18	; 24
    1660:	14 df       	rcall	.-472    	; 0x148a <gpib_tx>
	
	timedout = false;
	status = 0;
	
	if (!timedout)
		timedout = gpib_cmd_SPE(ptimeoutfunc);
    1662:	8a 83       	std	Y+2, r24	; 0x02
	if (!timedout)
    1664:	81 11       	cpse	r24, r1
    1666:	04 c0       	rjmp	.+8      	; 0x1670 <gpib_readStatusByte+0x2c>
		timedout = gpib_cmd_TAG(addr, ptimeoutfunc); 
    1668:	b8 01       	movw	r22, r16
    166a:	8f 2d       	mov	r24, r15
    166c:	3b df       	rcall	.-394    	; 0x14e4 <gpib_cmd_TAG>
    166e:	8a 83       	std	Y+2, r24	; 0x02
	ATN_HIGH; /* make ATN H */	
    1670:	86 98       	cbi	0x10, 6	; 16
	NDAC_LOW;   /* make NDAC L */
    1672:	3f 9a       	sbi	0x07, 7	; 7

	if (!timedout)
    1674:	8a 81       	ldd	r24, Y+2	; 0x02
    1676:	81 11       	cpse	r24, r1
    1678:	09 c0       	rjmp	.+18     	; 0x168c <gpib_readStatusByte+0x48>
		status = gpib_readdat(&eoi, &timedout, ptimeoutfunc);
    167a:	a8 01       	movw	r20, r16
    167c:	be 01       	movw	r22, r28
    167e:	6e 5f       	subi	r22, 0xFE	; 254
    1680:	7f 4f       	sbci	r23, 0xFF	; 255
    1682:	ce 01       	movw	r24, r28
    1684:	01 96       	adiw	r24, 0x01	; 1
    1686:	94 df       	rcall	.-216    	; 0x15b0 <gpib_readdat>
    1688:	f8 2e       	mov	r15, r24
    168a:	01 c0       	rjmp	.+2      	; 0x168e <gpib_readStatusByte+0x4a>
{
	bool timedout, eoi;
	uint8_t status;
	
	timedout = false;
	status = 0;
    168c:	f1 2c       	mov	r15, r1
	NDAC_LOW;   /* make NDAC L */

	if (!timedout)
		status = gpib_readdat(&eoi, &timedout, ptimeoutfunc);
	
	if (!timedout)
    168e:	8a 81       	ldd	r24, Y+2	; 0x02
    1690:	81 11       	cpse	r24, r1
    1692:	05 c0       	rjmp	.+10     	; 0x169e <gpib_readStatusByte+0x5a>
	return gpib_tx(0x3F, true, ptimeoutfunc);
}

static bool gpib_cmd_UNT(gpibtimeout_t ptimeoutfunc)
{
	return gpib_tx(0x5F, true, ptimeoutfunc);
    1694:	a8 01       	movw	r20, r16
    1696:	61 e0       	ldi	r22, 0x01	; 1
    1698:	8f e5       	ldi	r24, 0x5F	; 95
    169a:	f7 de       	rcall	.-530    	; 0x148a <gpib_tx>

	if (!timedout)
		status = gpib_readdat(&eoi, &timedout, ptimeoutfunc);
	
	if (!timedout)
		timedout = gpib_cmd_UNT(ptimeoutfunc); 
    169c:	8a 83       	std	Y+2, r24	; 0x02
	if (!timedout)
    169e:	8a 81       	ldd	r24, Y+2	; 0x02
    16a0:	81 11       	cpse	r24, r1
	return gpib_tx(0x18, true, ptimeoutfunc);
}

static bool gpib_cmd_SPD(gpibtimeout_t ptimeoutfunc) // serial poll disable
{
	return gpib_tx(0x19, true, ptimeoutfunc);
    16a2:	05 c0       	rjmp	.+10     	; 0x16ae <gpib_readStatusByte+0x6a>
    16a4:	a8 01       	movw	r20, r16
    16a6:	61 e0       	ldi	r22, 0x01	; 1
    16a8:	89 e1       	ldi	r24, 0x19	; 25
		status = gpib_readdat(&eoi, &timedout, ptimeoutfunc);
	
	if (!timedout)
		timedout = gpib_cmd_UNT(ptimeoutfunc); 
	if (!timedout)
		timedout = gpib_cmd_SPD(ptimeoutfunc);
    16aa:	ef de       	rcall	.-546    	; 0x148a <gpib_tx>
	if (timedout)
    16ac:	8a 83       	std	Y+2, r24	; 0x02
    16ae:	8a 81       	ldd	r24, Y+2	; 0x02

static char s_terminator = '\0'; /* \0 = no termination character - EOI only, other options are '\n' or '\r' */
 
static void gpib_recover(void)
{
	gpib_init();
    16b0:	81 11       	cpse	r24, r1
    16b2:	c3 de       	rcall	.-634    	; 0x143a <gpib_init>
	if (!timedout)
		timedout = gpib_cmd_SPD(ptimeoutfunc);
	if (timedout)
		gpib_recover();	
	return status;
}
    16b4:	8f 2d       	mov	r24, r15
    16b6:	0f 90       	pop	r0
    16b8:	0f 90       	pop	r0
    16ba:	df 91       	pop	r29
    16bc:	cf 91       	pop	r28
    16be:	1f 91       	pop	r17
    16c0:	0f 91       	pop	r16
    16c2:	ff 90       	pop	r15
    16c4:	08 95       	ret

000016c6 <gpib_untalk_unlisten>:
	*ptimedout = timedout;
	return c;
};

bool gpib_untalk_unlisten(gpibtimeout_t ptimeoutfunc)
{
    16c6:	cf 93       	push	r28
    16c8:	df 93       	push	r29
    16ca:	ec 01       	movw	r28, r24
	bool timedout;	
	timedout = gpib_cmd_UNL(ptimeoutfunc);
    16cc:	39 df       	rcall	.-398    	; 0x1540 <gpib_cmd_UNL>
	if (!timedout)
    16ce:	88 23       	and	r24, r24

static char s_terminator = '\0'; /* \0 = no termination character - EOI only, other options are '\n' or '\r' */
 
static void gpib_recover(void)
{
	gpib_init();
    16d0:	19 f0       	breq	.+6      	; 0x16d8 <gpib_untalk_unlisten+0x12>
    16d2:	b3 de       	rcall	.-666    	; 0x143a <gpib_init>
    16d4:	81 e0       	ldi	r24, 0x01	; 1
    16d6:	06 c0       	rjmp	.+12     	; 0x16e4 <gpib_untalk_unlisten+0x1e>
	return gpib_tx(0x3F, true, ptimeoutfunc);
}

static bool gpib_cmd_UNT(gpibtimeout_t ptimeoutfunc)
{
	return gpib_tx(0x5F, true, ptimeoutfunc);
    16d8:	ae 01       	movw	r20, r28
    16da:	61 e0       	ldi	r22, 0x01	; 1
    16dc:	8f e5       	ldi	r24, 0x5F	; 95
    16de:	d5 de       	rcall	.-598    	; 0x148a <gpib_tx>
{
	bool timedout;	
	timedout = gpib_cmd_UNL(ptimeoutfunc);
	if (!timedout)
		timedout = gpib_cmd_UNT(ptimeoutfunc);
	if (timedout)
    16e0:	81 11       	cpse	r24, r1
    16e2:	f7 cf       	rjmp	.-18     	; 0x16d2 <gpib_untalk_unlisten+0xc>
		gpib_recover();
		
	s_gpib_transaction_active = false;
    16e4:	10 92 70 01 	sts	0x0170, r1	; 0x800170 <s_gpib_transaction_active>
	return timedout;
}
    16e8:	df 91       	pop	r29
    16ea:	cf 91       	pop	r28
    16ec:	08 95       	ret

000016ee <gpib_make_talker>:

bool  gpib_make_talker(uint8_t addr, gpibtimeout_t ptimeoutfunc)
{
    16ee:	0f 93       	push	r16
    16f0:	1f 93       	push	r17
    16f2:	cf 93       	push	r28
    16f4:	df 93       	push	r29
    16f6:	d8 2f       	mov	r29, r24
    16f8:	8b 01       	movw	r16, r22
	bool timedout;
	
	s_gpib_transaction_active = true;
    16fa:	81 e0       	ldi	r24, 0x01	; 1
    16fc:	80 93 70 01 	sts	0x0170, r24	; 0x800170 <s_gpib_transaction_active>
	
	timedout = gpib_cmd_UNL(ptimeoutfunc);
    1700:	cb 01       	movw	r24, r22
    1702:	1e df       	rcall	.-452    	; 0x1540 <gpib_cmd_UNL>
    1704:	c8 2f       	mov	r28, r24
	if (!timedout)
    1706:	81 11       	cpse	r24, r1
    1708:	04 c0       	rjmp	.+8      	; 0x1712 <gpib_make_talker+0x24>
		timedout = gpib_cmd_TAG(addr, ptimeoutfunc); /* address as talker*/
    170a:	b8 01       	movw	r22, r16
    170c:	8d 2f       	mov	r24, r29
    170e:	ea de       	rcall	.-556    	; 0x14e4 <gpib_cmd_TAG>
    1710:	c8 2f       	mov	r28, r24
	ATN_HIGH; /* make ATN H */	
    1712:	86 98       	cbi	0x10, 6	; 16
	NDAC_LOW;   /* make NDAC L */
	
	if (timedout)
    1714:	3f 9a       	sbi	0x07, 7	; 7

static char s_terminator = '\0'; /* \0 = no termination character - EOI only, other options are '\n' or '\r' */
 
static void gpib_recover(void)
{
	gpib_init();
    1716:	c1 11       	cpse	r28, r1
    1718:	90 de       	rcall	.-736    	; 0x143a <gpib_init>
	NDAC_LOW;   /* make NDAC L */
	
	if (timedout)
		gpib_recover();
	return timedout;
}
    171a:	8c 2f       	mov	r24, r28
    171c:	df 91       	pop	r29
    171e:	cf 91       	pop	r28
    1720:	1f 91       	pop	r17
    1722:	0f 91       	pop	r16
    1724:	08 95       	ret

00001726 <gpib_make_listener>:

bool gpib_make_listener(uint8_t addr, gpibtimeout_t ptimeoutfunc)
{
    1726:	1f 93       	push	r17
    1728:	cf 93       	push	r28
    172a:	df 93       	push	r29
    172c:	18 2f       	mov	r17, r24
    172e:	eb 01       	movw	r28, r22
	bool timedout;
	s_gpib_transaction_active = true;
    1730:	81 e0       	ldi	r24, 0x01	; 1
    1732:	80 93 70 01 	sts	0x0170, r24	; 0x800170 <s_gpib_transaction_active>
	return gpib_tx(0x3F, true, ptimeoutfunc);
}

static bool gpib_cmd_UNT(gpibtimeout_t ptimeoutfunc)
{
	return gpib_tx(0x5F, true, ptimeoutfunc);
    1736:	ab 01       	movw	r20, r22
    1738:	61 e0       	ldi	r22, 0x01	; 1
    173a:	8f e5       	ldi	r24, 0x5F	; 95
    173c:	a6 de       	rcall	.-692    	; 0x148a <gpib_tx>
bool gpib_make_listener(uint8_t addr, gpibtimeout_t ptimeoutfunc)
{
	bool timedout;
	s_gpib_transaction_active = true;
	timedout = gpib_cmd_UNT(ptimeoutfunc);
	if (!timedout)
    173e:	88 23       	and	r24, r24
    1740:	11 f0       	breq	.+4      	; 0x1746 <gpib_make_listener+0x20>
		gpib_recover();
	return timedout;
}

bool gpib_make_listener(uint8_t addr, gpibtimeout_t ptimeoutfunc)
{
    1742:	c1 e0       	ldi	r28, 0x01	; 1
    1744:	08 c0       	rjmp	.+16     	; 0x1756 <gpib_make_listener+0x30>
	bool timedout;
	s_gpib_transaction_active = true;
	timedout = gpib_cmd_UNT(ptimeoutfunc);
	if (!timedout)
		timedout = gpib_cmd_UNL(ptimeoutfunc);
    1746:	ce 01       	movw	r24, r28
    1748:	fb de       	rcall	.-522    	; 0x1540 <gpib_cmd_UNL>
	if (!timedout)
    174a:	81 11       	cpse	r24, r1
    174c:	fa cf       	rjmp	.-12     	; 0x1742 <gpib_make_listener+0x1c>
		timedout = gpib_cmd_LAG(addr, ptimeoutfunc); /* address target as listener*/
    174e:	be 01       	movw	r22, r28
    1750:	81 2f       	mov	r24, r17
    1752:	df de       	rcall	.-578    	; 0x1512 <gpib_cmd_LAG>
    1754:	c8 2f       	mov	r28, r24
		
	ATN_HIGH;    /* make ATN H */
    1756:	86 98       	cbi	0x10, 6	; 16
	
	if (timedout)
    1758:	c1 11       	cpse	r28, r1

static char s_terminator = '\0'; /* \0 = no termination character - EOI only, other options are '\n' or '\r' */
 
static void gpib_recover(void)
{
	gpib_init();
    175a:	6f de       	rcall	.-802    	; 0x143a <gpib_init>
    175c:	8c 2f       	mov	r24, r28
	ATN_HIGH;    /* make ATN H */
	
	if (timedout)
		gpib_recover();
	return timedout;
}
    175e:	df 91       	pop	r29
    1760:	cf 91       	pop	r28
    1762:	1f 91       	pop	r17
    1764:	08 95       	ret

00001766 <gpib_writedat>:
    1766:	61 11       	cpse	r22, r1
bool gpib_writedat(uint8_t dat, bool Eoi, gpibtimeout_t ptimeoutfunc)
{
	bool timedout;
	if (Eoi)
	{
		EOI_LOW; /* make EOI L */
    1768:	24 9a       	sbi	0x04, 4	; 4
	return timedout;
}

static bool gpib_dat(uint8_t dat, gpibtimeout_t ptimeoutfunc)
{
	return gpib_tx(dat, false, ptimeoutfunc);
    176a:	60 e0       	ldi	r22, 0x00	; 0
    176c:	8e de       	rcall	.-740    	; 0x148a <gpib_tx>
	if (Eoi)
	{
		EOI_LOW; /* make EOI L */
	}
	timedout = gpib_dat(dat, ptimeoutfunc);
	EOI_HIGH;    /* make EOI H */
    176e:	24 98       	cbi	0x04, 4	; 4
	return timedout;
}
    1770:	08 95       	ret

00001772 <gpib_set_readtermination>:

void gpib_set_readtermination(char terminator)
{
	switch(terminator)
    1772:	8a 30       	cpi	r24, 0x0A	; 10
    1774:	11 f0       	breq	.+4      	; 0x177a <gpib_set_readtermination+0x8>
    1776:	8d 30       	cpi	r24, 0x0D	; 13
    1778:	19 f4       	brne	.+6      	; 0x1780 <gpib_set_readtermination+0xe>
	{
		case '\n':
			s_terminator = '\n';
			break;
		case '\r':
			s_terminator = '\r';
    177a:	80 93 6f 01 	sts	0x016F, r24	; 0x80016f <s_terminator>
			break;
    177e:	08 95       	ret
		default:
			s_terminator = '\0';
    1780:	10 92 6f 01 	sts	0x016F, r1	; 0x80016f <s_terminator>
    1784:	08 95       	ret

00001786 <gpib_search>:
	timeout_val--;
	return false;
}

uint8_t gpib_search(void)
{
    1786:	ef 92       	push	r14
    1788:	ff 92       	push	r15
    178a:	1f 93       	push	r17
    178c:	cf 93       	push	r28
    178e:	df 93       	push	r29

static uint16_t timeout_val;

static void timeout_start(uint16_t timeout)
{
	timeout_val = timeout;
    1790:	84 ef       	ldi	r24, 0xF4	; 244
    1792:	91 e0       	ldi	r25, 0x01	; 1
    1794:	90 93 6e 01 	sts	0x016E, r25	; 0x80016e <timeout_val+0x1>
    1798:	80 93 6d 01 	sts	0x016D, r24	; 0x80016d <timeout_val>
uint8_t gpib_search(void)
{
	uint8_t addr, foundaddr;
	
	timeout_start(500);
	gpib_tx(0x3F, true, is_timedout); // UNL
    179c:	4a eb       	ldi	r20, 0xBA	; 186
    179e:	59 e0       	ldi	r21, 0x09	; 9
    17a0:	61 e0       	ldi	r22, 0x01	; 1
    17a2:	8f e3       	ldi	r24, 0x3F	; 63
    17a4:	72 de       	rcall	.-796    	; 0x148a <gpib_tx>
	
	foundaddr = 255;
	addr = 255;
    17a6:	cf ef       	ldi	r28, 0xFF	; 255

static uint16_t timeout_val;

static void timeout_start(uint16_t timeout)
{
	timeout_val = timeout;
    17a8:	84 ef       	ldi	r24, 0xF4	; 244
    17aa:	e8 2e       	mov	r14, r24
    17ac:	ff 24       	eor	r15, r15
    17ae:	f3 94       	inc	r15
	foundaddr = 255;
	addr = 255;
	do
	{
	
		addr++;
    17b0:	cf 5f       	subi	r28, 0xFF	; 255
    17b2:	1c 2f       	mov	r17, r28
    17b4:	1f 71       	andi	r17, 0x1F	; 31
		if ((addr & 0x1f) != 31)
    17b6:	1f 31       	cpi	r17, 0x1F	; 31
    17b8:	09 f4       	brne	.+2      	; 0x17bc <gpib_search+0x36>
    17ba:	3c c0       	rjmp	.+120    	; 0x1834 <gpib_search+0xae>

static uint16_t timeout_val;

static void timeout_start(uint16_t timeout)
{
	timeout_val = timeout;
    17bc:	f0 92 6e 01 	sts	0x016E, r15	; 0x80016e <timeout_val+0x1>
    17c0:	e0 92 6d 01 	sts	0x016D, r14	; 0x80016d <timeout_val>
	
		addr++;
		if ((addr & 0x1f) != 31)
		{
			timeout_start(500);
			gpib_cmd_LAG(addr, is_timedout);
    17c4:	6a eb       	ldi	r22, 0xBA	; 186
    17c6:	79 e0       	ldi	r23, 0x09	; 9
    17c8:	8c 2f       	mov	r24, r28
    17ca:	a3 de       	rcall	.-698    	; 0x1512 <gpib_cmd_LAG>
			
			ATN_HIGH; /* make ATN H */
    17cc:	86 98       	cbi	0x10, 6	; 16
	#else
		//round up by default
		__ticks_dc = (uint32_t)(ceil(fabs(__tmp)));
	#endif

	__builtin_avr_delay_cycles(__ticks_dc);
    17ce:	8f e3       	ldi	r24, 0x3F	; 63
    17d0:	9f e1       	ldi	r25, 0x1F	; 31
    17d2:	01 97       	sbiw	r24, 0x01	; 1
    17d4:	f1 f7       	brne	.-4      	; 0x17d2 <gpib_search+0x4c>
    17d6:	00 c0       	rjmp	.+0      	; 0x17d8 <gpib_search+0x52>
    17d8:	00 00       	nop
			_delay_ms(2);
			if ( (NDAC_STATE == 0) && (ATN_STATE != 0))
    17da:	37 99       	sbic	0x06, 7	; 6
    17dc:	2b c0       	rjmp	.+86     	; 0x1834 <gpib_search+0xae>
    17de:	7e 9b       	sbis	0x0f, 6	; 15
    17e0:	29 c0       	rjmp	.+82     	; 0x1834 <gpib_search+0xae>
	foundaddr = 255;
	addr = 255;
	do
	{
	
		addr++;
    17e2:	dc 2f       	mov	r29, r28

static uint16_t timeout_val;

static void timeout_start(uint16_t timeout)
{
	timeout_val = timeout;
    17e4:	84 ef       	ldi	r24, 0xF4	; 244
    17e6:	91 e0       	ldi	r25, 0x01	; 1
    17e8:	90 93 6e 01 	sts	0x016E, r25	; 0x80016e <timeout_val+0x1>
    17ec:	80 93 6d 01 	sts	0x016D, r24	; 0x80016d <timeout_val>
		
	}
	while ( (addr < 63) && (foundaddr == 255));
	
	timeout_start(500);
	gpib_tx(0x3F, true, is_timedout); // UNL
    17f0:	4a eb       	ldi	r20, 0xBA	; 186
    17f2:	59 e0       	ldi	r21, 0x09	; 9
    17f4:	61 e0       	ldi	r22, 0x01	; 1
    17f6:	8f e3       	ldi	r24, 0x3F	; 63
    17f8:	48 de       	rcall	.-880    	; 0x148a <gpib_tx>
	
	/* if the device needs a secondary address, ensure, that it really cannot be addressed without secondary address */
	if (addr >= 32)
    17fa:	c0 32       	cpi	r28, 0x20	; 32
    17fc:	00 f1       	brcs	.+64     	; 0x183e <gpib_search+0xb8>
	{
		/* address once without SA. If it responds, force it to this primary addressing only! */
		gpib_cmd_LAG(addr & 0x1f, is_timedout);
    17fe:	6a eb       	ldi	r22, 0xBA	; 186
    1800:	79 e0       	ldi	r23, 0x09	; 9
    1802:	81 2f       	mov	r24, r17
    1804:	86 de       	rcall	.-756    	; 0x1512 <gpib_cmd_LAG>
		ATN_HIGH; /* make ATN H */
    1806:	86 98       	cbi	0x10, 6	; 16
    1808:	8f e3       	ldi	r24, 0x3F	; 63
    180a:	9f e1       	ldi	r25, 0x1F	; 31
    180c:	01 97       	sbiw	r24, 0x01	; 1
    180e:	f1 f7       	brne	.-4      	; 0x180c <gpib_search+0x86>
    1810:	00 c0       	rjmp	.+0      	; 0x1812 <gpib_search+0x8c>
    1812:	00 00       	nop
		_delay_ms(2);
		if ( (NDAC_STATE == 0) && (ATN_STATE != 0))
    1814:	37 99       	sbic	0x06, 7	; 6
    1816:	02 c0       	rjmp	.+4      	; 0x181c <gpib_search+0x96>
    1818:	7e 99       	sbic	0x0f, 6	; 15
    181a:	d1 2f       	mov	r29, r17

static uint16_t timeout_val;

static void timeout_start(uint16_t timeout)
{
	timeout_val = timeout;
    181c:	84 ef       	ldi	r24, 0xF4	; 244
    181e:	91 e0       	ldi	r25, 0x01	; 1
    1820:	90 93 6e 01 	sts	0x016E, r25	; 0x80016e <timeout_val+0x1>
    1824:	80 93 6d 01 	sts	0x016D, r24	; 0x80016d <timeout_val>
		if ( (NDAC_STATE == 0) && (ATN_STATE != 0))
		{
			foundaddr = addr & 0x1f;
		}
		timeout_start(500);
		gpib_tx(0x3F, true, is_timedout); // UNL
    1828:	4a eb       	ldi	r20, 0xBA	; 186
    182a:	59 e0       	ldi	r21, 0x09	; 9
    182c:	61 e0       	ldi	r22, 0x01	; 1
    182e:	8f e3       	ldi	r24, 0x3F	; 63
    1830:	2c de       	rcall	.-936    	; 0x148a <gpib_tx>
	}
	
	//return 1;
		
	return foundaddr;
    1832:	05 c0       	rjmp	.+10     	; 0x183e <gpib_search+0xb8>
				foundaddr = addr;
			}
		}
		
	}
	while ( (addr < 63) && (foundaddr == 255));
    1834:	cf 33       	cpi	r28, 0x3F	; 63
    1836:	09 f0       	breq	.+2      	; 0x183a <gpib_search+0xb4>
    1838:	bb cf       	rjmp	.-138    	; 0x17b0 <gpib_search+0x2a>
    183a:	df ef       	ldi	r29, 0xFF	; 255
    183c:	d3 cf       	rjmp	.-90     	; 0x17e4 <gpib_search+0x5e>
	}
	
	//return 1;
		
	return foundaddr;
}
    183e:	8d 2f       	mov	r24, r29
    1840:	df 91       	pop	r29
    1842:	cf 91       	pop	r28
    1844:	1f 91       	pop	r17
    1846:	ff 90       	pop	r15
    1848:	ef 90       	pop	r14
    184a:	08 95       	ret

0000184c <Endpoint_Write_Stream_LE>:
		else if (Endpoint_IsSETUPReceived())
		  return ENDPOINT_RWCSTREAM_HostAborted;
	}

	return ENDPOINT_RWCSTREAM_NoError;
}
    184c:	cf 92       	push	r12
    184e:	df 92       	push	r13
    1850:	ef 92       	push	r14
    1852:	ff 92       	push	r15
    1854:	0f 93       	push	r16
    1856:	1f 93       	push	r17
    1858:	cf 93       	push	r28
    185a:	df 93       	push	r29
    185c:	ec 01       	movw	r28, r24
    185e:	8b 01       	movw	r16, r22
    1860:	7a 01       	movw	r14, r20
    1862:	12 d2       	rcall	.+1060   	; 0x1c88 <Endpoint_WaitUntilReady>
    1864:	81 11       	cpse	r24, r1
    1866:	32 c0       	rjmp	.+100    	; 0x18cc <Endpoint_Write_Stream_LE+0x80>
    1868:	e1 14       	cp	r14, r1
    186a:	f1 04       	cpc	r15, r1
    186c:	39 f0       	breq	.+14     	; 0x187c <Endpoint_Write_Stream_LE+0x30>
    186e:	f7 01       	movw	r30, r14
    1870:	80 81       	ld	r24, Z
    1872:	91 81       	ldd	r25, Z+1	; 0x01
    1874:	08 1b       	sub	r16, r24
    1876:	19 0b       	sbc	r17, r25
    1878:	c8 0f       	add	r28, r24
    187a:	d9 1f       	adc	r29, r25
    187c:	c1 2c       	mov	r12, r1
    187e:	d1 2c       	mov	r13, r1
    1880:	01 15       	cp	r16, r1
    1882:	11 05       	cpc	r17, r1
    1884:	11 f1       	breq	.+68     	; 0x18ca <Endpoint_Write_Stream_LE+0x7e>
    1886:	80 91 e8 00 	lds	r24, 0x00E8	; 0x8000e8 <__TEXT_REGION_LENGTH__+0x7e00e8>
    188a:	85 fd       	sbrc	r24, 5
    188c:	15 c0       	rjmp	.+42     	; 0x18b8 <Endpoint_Write_Stream_LE+0x6c>
    188e:	80 91 e8 00 	lds	r24, 0x00E8	; 0x8000e8 <__TEXT_REGION_LENGTH__+0x7e00e8>
    1892:	8e 77       	andi	r24, 0x7E	; 126
    1894:	80 93 e8 00 	sts	0x00E8, r24	; 0x8000e8 <__TEXT_REGION_LENGTH__+0x7e00e8>
    1898:	e1 14       	cp	r14, r1
    189a:	f1 04       	cpc	r15, r1
    189c:	49 f0       	breq	.+18     	; 0x18b0 <Endpoint_Write_Stream_LE+0x64>
    189e:	f7 01       	movw	r30, r14
    18a0:	80 81       	ld	r24, Z
    18a2:	91 81       	ldd	r25, Z+1	; 0x01
    18a4:	c8 0e       	add	r12, r24
    18a6:	d9 1e       	adc	r13, r25
    18a8:	d1 82       	std	Z+1, r13	; 0x01
    18aa:	c0 82       	st	Z, r12
    18ac:	85 e0       	ldi	r24, 0x05	; 5
    18ae:	0e c0       	rjmp	.+28     	; 0x18cc <Endpoint_Write_Stream_LE+0x80>
    18b0:	eb d1       	rcall	.+982    	; 0x1c88 <Endpoint_WaitUntilReady>
    18b2:	88 23       	and	r24, r24
    18b4:	29 f3       	breq	.-54     	; 0x1880 <Endpoint_Write_Stream_LE+0x34>
    18b6:	0a c0       	rjmp	.+20     	; 0x18cc <Endpoint_Write_Stream_LE+0x80>
    18b8:	89 91       	ld	r24, Y+
    18ba:	80 93 f1 00 	sts	0x00F1, r24	; 0x8000f1 <__TEXT_REGION_LENGTH__+0x7e00f1>
    18be:	01 50       	subi	r16, 0x01	; 1
    18c0:	11 09       	sbc	r17, r1
    18c2:	ff ef       	ldi	r31, 0xFF	; 255
    18c4:	cf 1a       	sub	r12, r31
    18c6:	df 0a       	sbc	r13, r31
    18c8:	db cf       	rjmp	.-74     	; 0x1880 <Endpoint_Write_Stream_LE+0x34>
    18ca:	80 e0       	ldi	r24, 0x00	; 0
    18cc:	df 91       	pop	r29
    18ce:	cf 91       	pop	r28
    18d0:	1f 91       	pop	r17
    18d2:	0f 91       	pop	r16
    18d4:	ff 90       	pop	r15
    18d6:	ef 90       	pop	r14
    18d8:	df 90       	pop	r13
    18da:	cf 90       	pop	r12
    18dc:	08 95       	ret

000018de <Endpoint_Read_Stream_LE>:
    18de:	cf 92       	push	r12
    18e0:	df 92       	push	r13
    18e2:	ef 92       	push	r14
    18e4:	ff 92       	push	r15
    18e6:	0f 93       	push	r16
    18e8:	1f 93       	push	r17
    18ea:	cf 93       	push	r28
    18ec:	df 93       	push	r29
    18ee:	ec 01       	movw	r28, r24
    18f0:	8b 01       	movw	r16, r22
    18f2:	7a 01       	movw	r14, r20
    18f4:	c9 d1       	rcall	.+914    	; 0x1c88 <Endpoint_WaitUntilReady>
    18f6:	81 11       	cpse	r24, r1
    18f8:	32 c0       	rjmp	.+100    	; 0x195e <Endpoint_Read_Stream_LE+0x80>
    18fa:	e1 14       	cp	r14, r1
    18fc:	f1 04       	cpc	r15, r1
    18fe:	39 f0       	breq	.+14     	; 0x190e <Endpoint_Read_Stream_LE+0x30>
    1900:	f7 01       	movw	r30, r14
    1902:	80 81       	ld	r24, Z
    1904:	91 81       	ldd	r25, Z+1	; 0x01
    1906:	08 1b       	sub	r16, r24
    1908:	19 0b       	sbc	r17, r25
    190a:	c8 0f       	add	r28, r24
    190c:	d9 1f       	adc	r29, r25
    190e:	c1 2c       	mov	r12, r1
    1910:	d1 2c       	mov	r13, r1
    1912:	01 15       	cp	r16, r1
    1914:	11 05       	cpc	r17, r1
    1916:	11 f1       	breq	.+68     	; 0x195c <Endpoint_Read_Stream_LE+0x7e>
    1918:	80 91 e8 00 	lds	r24, 0x00E8	; 0x8000e8 <__TEXT_REGION_LENGTH__+0x7e00e8>
    191c:	85 fd       	sbrc	r24, 5
    191e:	15 c0       	rjmp	.+42     	; 0x194a <Endpoint_Read_Stream_LE+0x6c>
    1920:	80 91 e8 00 	lds	r24, 0x00E8	; 0x8000e8 <__TEXT_REGION_LENGTH__+0x7e00e8>
    1924:	8b 77       	andi	r24, 0x7B	; 123
    1926:	80 93 e8 00 	sts	0x00E8, r24	; 0x8000e8 <__TEXT_REGION_LENGTH__+0x7e00e8>
    192a:	e1 14       	cp	r14, r1
    192c:	f1 04       	cpc	r15, r1
    192e:	49 f0       	breq	.+18     	; 0x1942 <Endpoint_Read_Stream_LE+0x64>
    1930:	f7 01       	movw	r30, r14
    1932:	80 81       	ld	r24, Z
    1934:	91 81       	ldd	r25, Z+1	; 0x01
    1936:	c8 0e       	add	r12, r24
    1938:	d9 1e       	adc	r13, r25
    193a:	d1 82       	std	Z+1, r13	; 0x01
    193c:	c0 82       	st	Z, r12
    193e:	85 e0       	ldi	r24, 0x05	; 5
    1940:	0e c0       	rjmp	.+28     	; 0x195e <Endpoint_Read_Stream_LE+0x80>
    1942:	a2 d1       	rcall	.+836    	; 0x1c88 <Endpoint_WaitUntilReady>
    1944:	88 23       	and	r24, r24
    1946:	29 f3       	breq	.-54     	; 0x1912 <Endpoint_Read_Stream_LE+0x34>
    1948:	0a c0       	rjmp	.+20     	; 0x195e <Endpoint_Read_Stream_LE+0x80>
    194a:	80 91 f1 00 	lds	r24, 0x00F1	; 0x8000f1 <__TEXT_REGION_LENGTH__+0x7e00f1>
    194e:	89 93       	st	Y+, r24
    1950:	01 50       	subi	r16, 0x01	; 1
    1952:	11 09       	sbc	r17, r1
    1954:	ff ef       	ldi	r31, 0xFF	; 255
    1956:	cf 1a       	sub	r12, r31
    1958:	df 0a       	sbc	r13, r31
    195a:	db cf       	rjmp	.-74     	; 0x1912 <Endpoint_Read_Stream_LE+0x34>
    195c:	80 e0       	ldi	r24, 0x00	; 0
    195e:	df 91       	pop	r29
    1960:	cf 91       	pop	r28
    1962:	1f 91       	pop	r17
    1964:	0f 91       	pop	r16
    1966:	ff 90       	pop	r15
    1968:	ef 90       	pop	r14
    196a:	df 90       	pop	r13
    196c:	cf 90       	pop	r12
    196e:	08 95       	ret

00001970 <Endpoint_Write_Control_Stream_LE>:
    1970:	20 91 eb 01 	lds	r18, 0x01EB	; 0x8001eb <USB_ControlRequest+0x6>
    1974:	30 91 ec 01 	lds	r19, 0x01EC	; 0x8001ec <USB_ControlRequest+0x7>
    1978:	26 17       	cp	r18, r22
    197a:	37 07       	cpc	r19, r23
    197c:	48 f0       	brcs	.+18     	; 0x1990 <Endpoint_Write_Control_Stream_LE+0x20>
    197e:	61 15       	cp	r22, r1
    1980:	71 05       	cpc	r23, r1
    1982:	39 f4       	brne	.+14     	; 0x1992 <Endpoint_Write_Control_Stream_LE+0x22>
    1984:	20 91 e8 00 	lds	r18, 0x00E8	; 0x8000e8 <__TEXT_REGION_LENGTH__+0x7e00e8>
    1988:	2e 77       	andi	r18, 0x7E	; 126
    198a:	20 93 e8 00 	sts	0x00E8, r18	; 0x8000e8 <__TEXT_REGION_LENGTH__+0x7e00e8>
    198e:	01 c0       	rjmp	.+2      	; 0x1992 <Endpoint_Write_Control_Stream_LE+0x22>
    1990:	b9 01       	movw	r22, r18
    1992:	fc 01       	movw	r30, r24
    1994:	20 e0       	ldi	r18, 0x00	; 0
    1996:	61 15       	cp	r22, r1
    1998:	71 05       	cpc	r23, r1
    199a:	79 f1       	breq	.+94     	; 0x19fa <Endpoint_Write_Control_Stream_LE+0x8a>
    199c:	80 91 e4 01 	lds	r24, 0x01E4	; 0x8001e4 <USB_DeviceState>
    19a0:	88 23       	and	r24, r24
    19a2:	f1 f1       	breq	.+124    	; 0x1a20 <Endpoint_Write_Control_Stream_LE+0xb0>
    19a4:	85 30       	cpi	r24, 0x05	; 5
    19a6:	f1 f1       	breq	.+124    	; 0x1a24 <Endpoint_Write_Control_Stream_LE+0xb4>
    19a8:	80 91 e8 00 	lds	r24, 0x00E8	; 0x8000e8 <__TEXT_REGION_LENGTH__+0x7e00e8>
    19ac:	83 fd       	sbrc	r24, 3
    19ae:	3c c0       	rjmp	.+120    	; 0x1a28 <Endpoint_Write_Control_Stream_LE+0xb8>
    19b0:	80 91 e8 00 	lds	r24, 0x00E8	; 0x8000e8 <__TEXT_REGION_LENGTH__+0x7e00e8>
    19b4:	82 fd       	sbrc	r24, 2
    19b6:	2e c0       	rjmp	.+92     	; 0x1a14 <Endpoint_Write_Control_Stream_LE+0xa4>
    19b8:	80 91 e8 00 	lds	r24, 0x00E8	; 0x8000e8 <__TEXT_REGION_LENGTH__+0x7e00e8>
    19bc:	80 ff       	sbrs	r24, 0
    19be:	eb cf       	rjmp	.-42     	; 0x1996 <Endpoint_Write_Control_Stream_LE+0x26>
    19c0:	20 91 f3 00 	lds	r18, 0x00F3	; 0x8000f3 <__TEXT_REGION_LENGTH__+0x7e00f3>
    19c4:	80 91 f2 00 	lds	r24, 0x00F2	; 0x8000f2 <__TEXT_REGION_LENGTH__+0x7e00f2>
    19c8:	90 e0       	ldi	r25, 0x00	; 0
    19ca:	92 2b       	or	r25, r18
    19cc:	61 15       	cp	r22, r1
    19ce:	71 05       	cpc	r23, r1
    19d0:	51 f0       	breq	.+20     	; 0x19e6 <Endpoint_Write_Control_Stream_LE+0x76>
    19d2:	88 30       	cpi	r24, 0x08	; 8
    19d4:	91 05       	cpc	r25, r1
    19d6:	38 f4       	brcc	.+14     	; 0x19e6 <Endpoint_Write_Control_Stream_LE+0x76>
    19d8:	21 91       	ld	r18, Z+
    19da:	20 93 f1 00 	sts	0x00F1, r18	; 0x8000f1 <__TEXT_REGION_LENGTH__+0x7e00f1>
    19de:	61 50       	subi	r22, 0x01	; 1
    19e0:	71 09       	sbc	r23, r1
    19e2:	01 96       	adiw	r24, 0x01	; 1
    19e4:	f3 cf       	rjmp	.-26     	; 0x19cc <Endpoint_Write_Control_Stream_LE+0x5c>
    19e6:	21 e0       	ldi	r18, 0x01	; 1
    19e8:	08 97       	sbiw	r24, 0x08	; 8
    19ea:	09 f0       	breq	.+2      	; 0x19ee <Endpoint_Write_Control_Stream_LE+0x7e>
    19ec:	20 e0       	ldi	r18, 0x00	; 0
    19ee:	80 91 e8 00 	lds	r24, 0x00E8	; 0x8000e8 <__TEXT_REGION_LENGTH__+0x7e00e8>
    19f2:	8e 77       	andi	r24, 0x7E	; 126
    19f4:	80 93 e8 00 	sts	0x00E8, r24	; 0x8000e8 <__TEXT_REGION_LENGTH__+0x7e00e8>
    19f8:	ce cf       	rjmp	.-100    	; 0x1996 <Endpoint_Write_Control_Stream_LE+0x26>
    19fa:	21 11       	cpse	r18, r1
    19fc:	cf cf       	rjmp	.-98     	; 0x199c <Endpoint_Write_Control_Stream_LE+0x2c>
    19fe:	0a c0       	rjmp	.+20     	; 0x1a14 <Endpoint_Write_Control_Stream_LE+0xa4>
    1a00:	80 91 e4 01 	lds	r24, 0x01E4	; 0x8001e4 <USB_DeviceState>
    1a04:	88 23       	and	r24, r24
    1a06:	61 f0       	breq	.+24     	; 0x1a20 <Endpoint_Write_Control_Stream_LE+0xb0>
    1a08:	85 30       	cpi	r24, 0x05	; 5
    1a0a:	61 f0       	breq	.+24     	; 0x1a24 <Endpoint_Write_Control_Stream_LE+0xb4>
    1a0c:	80 91 e8 00 	lds	r24, 0x00E8	; 0x8000e8 <__TEXT_REGION_LENGTH__+0x7e00e8>
    1a10:	83 fd       	sbrc	r24, 3
    1a12:	0a c0       	rjmp	.+20     	; 0x1a28 <Endpoint_Write_Control_Stream_LE+0xb8>
    1a14:	80 91 e8 00 	lds	r24, 0x00E8	; 0x8000e8 <__TEXT_REGION_LENGTH__+0x7e00e8>
    1a18:	82 ff       	sbrs	r24, 2
    1a1a:	f2 cf       	rjmp	.-28     	; 0x1a00 <Endpoint_Write_Control_Stream_LE+0x90>
    1a1c:	80 e0       	ldi	r24, 0x00	; 0
    1a1e:	08 95       	ret
    1a20:	82 e0       	ldi	r24, 0x02	; 2
    1a22:	08 95       	ret
    1a24:	83 e0       	ldi	r24, 0x03	; 3
    1a26:	08 95       	ret
    1a28:	81 e0       	ldi	r24, 0x01	; 1
    1a2a:	08 95       	ret

00001a2c <Endpoint_Write_Control_PStream_LE>:
    1a2c:	20 91 eb 01 	lds	r18, 0x01EB	; 0x8001eb <USB_ControlRequest+0x6>
    1a30:	30 91 ec 01 	lds	r19, 0x01EC	; 0x8001ec <USB_ControlRequest+0x7>
    1a34:	26 17       	cp	r18, r22
    1a36:	37 07       	cpc	r19, r23
    1a38:	48 f0       	brcs	.+18     	; 0x1a4c <Endpoint_Write_Control_PStream_LE+0x20>
    1a3a:	61 15       	cp	r22, r1
    1a3c:	71 05       	cpc	r23, r1
    1a3e:	39 f4       	brne	.+14     	; 0x1a4e <Endpoint_Write_Control_PStream_LE+0x22>
    1a40:	20 91 e8 00 	lds	r18, 0x00E8	; 0x8000e8 <__TEXT_REGION_LENGTH__+0x7e00e8>
    1a44:	2e 77       	andi	r18, 0x7E	; 126
    1a46:	20 93 e8 00 	sts	0x00E8, r18	; 0x8000e8 <__TEXT_REGION_LENGTH__+0x7e00e8>
    1a4a:	01 c0       	rjmp	.+2      	; 0x1a4e <Endpoint_Write_Control_PStream_LE+0x22>
    1a4c:	b9 01       	movw	r22, r18
    1a4e:	fc 01       	movw	r30, r24
    1a50:	20 e0       	ldi	r18, 0x00	; 0
    1a52:	61 15       	cp	r22, r1
    1a54:	71 05       	cpc	r23, r1
    1a56:	91 f1       	breq	.+100    	; 0x1abc <Endpoint_Write_Control_PStream_LE+0x90>
    1a58:	80 91 e4 01 	lds	r24, 0x01E4	; 0x8001e4 <USB_DeviceState>
    1a5c:	88 23       	and	r24, r24
    1a5e:	09 f4       	brne	.+2      	; 0x1a62 <Endpoint_Write_Control_PStream_LE+0x36>
    1a60:	40 c0       	rjmp	.+128    	; 0x1ae2 <Endpoint_Write_Control_PStream_LE+0xb6>
    1a62:	85 30       	cpi	r24, 0x05	; 5
    1a64:	09 f4       	brne	.+2      	; 0x1a68 <Endpoint_Write_Control_PStream_LE+0x3c>
    1a66:	3f c0       	rjmp	.+126    	; 0x1ae6 <Endpoint_Write_Control_PStream_LE+0xba>
    1a68:	80 91 e8 00 	lds	r24, 0x00E8	; 0x8000e8 <__TEXT_REGION_LENGTH__+0x7e00e8>
    1a6c:	83 fd       	sbrc	r24, 3
    1a6e:	3d c0       	rjmp	.+122    	; 0x1aea <Endpoint_Write_Control_PStream_LE+0xbe>
    1a70:	80 91 e8 00 	lds	r24, 0x00E8	; 0x8000e8 <__TEXT_REGION_LENGTH__+0x7e00e8>
    1a74:	82 fd       	sbrc	r24, 2
    1a76:	2f c0       	rjmp	.+94     	; 0x1ad6 <Endpoint_Write_Control_PStream_LE+0xaa>
    1a78:	80 91 e8 00 	lds	r24, 0x00E8	; 0x8000e8 <__TEXT_REGION_LENGTH__+0x7e00e8>
    1a7c:	80 ff       	sbrs	r24, 0
    1a7e:	e9 cf       	rjmp	.-46     	; 0x1a52 <Endpoint_Write_Control_PStream_LE+0x26>
    1a80:	20 91 f3 00 	lds	r18, 0x00F3	; 0x8000f3 <__TEXT_REGION_LENGTH__+0x7e00f3>
    1a84:	80 91 f2 00 	lds	r24, 0x00F2	; 0x8000f2 <__TEXT_REGION_LENGTH__+0x7e00f2>
    1a88:	90 e0       	ldi	r25, 0x00	; 0
    1a8a:	92 2b       	or	r25, r18
    1a8c:	61 15       	cp	r22, r1
    1a8e:	71 05       	cpc	r23, r1
    1a90:	59 f0       	breq	.+22     	; 0x1aa8 <Endpoint_Write_Control_PStream_LE+0x7c>
    1a92:	88 30       	cpi	r24, 0x08	; 8
    1a94:	91 05       	cpc	r25, r1
    1a96:	40 f4       	brcc	.+16     	; 0x1aa8 <Endpoint_Write_Control_PStream_LE+0x7c>
    1a98:	24 91       	lpm	r18, Z
    1a9a:	20 93 f1 00 	sts	0x00F1, r18	; 0x8000f1 <__TEXT_REGION_LENGTH__+0x7e00f1>
    1a9e:	31 96       	adiw	r30, 0x01	; 1
    1aa0:	61 50       	subi	r22, 0x01	; 1
    1aa2:	71 09       	sbc	r23, r1
    1aa4:	01 96       	adiw	r24, 0x01	; 1
    1aa6:	f2 cf       	rjmp	.-28     	; 0x1a8c <Endpoint_Write_Control_PStream_LE+0x60>
    1aa8:	21 e0       	ldi	r18, 0x01	; 1
    1aaa:	08 97       	sbiw	r24, 0x08	; 8
    1aac:	09 f0       	breq	.+2      	; 0x1ab0 <Endpoint_Write_Control_PStream_LE+0x84>
    1aae:	20 e0       	ldi	r18, 0x00	; 0
    1ab0:	80 91 e8 00 	lds	r24, 0x00E8	; 0x8000e8 <__TEXT_REGION_LENGTH__+0x7e00e8>
    1ab4:	8e 77       	andi	r24, 0x7E	; 126
    1ab6:	80 93 e8 00 	sts	0x00E8, r24	; 0x8000e8 <__TEXT_REGION_LENGTH__+0x7e00e8>
    1aba:	cb cf       	rjmp	.-106    	; 0x1a52 <Endpoint_Write_Control_PStream_LE+0x26>
    1abc:	21 11       	cpse	r18, r1
    1abe:	cc cf       	rjmp	.-104    	; 0x1a58 <Endpoint_Write_Control_PStream_LE+0x2c>
    1ac0:	0a c0       	rjmp	.+20     	; 0x1ad6 <Endpoint_Write_Control_PStream_LE+0xaa>
    1ac2:	80 91 e4 01 	lds	r24, 0x01E4	; 0x8001e4 <USB_DeviceState>
    1ac6:	88 23       	and	r24, r24
    1ac8:	61 f0       	breq	.+24     	; 0x1ae2 <Endpoint_Write_Control_PStream_LE+0xb6>
    1aca:	85 30       	cpi	r24, 0x05	; 5
    1acc:	61 f0       	breq	.+24     	; 0x1ae6 <Endpoint_Write_Control_PStream_LE+0xba>
    1ace:	80 91 e8 00 	lds	r24, 0x00E8	; 0x8000e8 <__TEXT_REGION_LENGTH__+0x7e00e8>
    1ad2:	83 fd       	sbrc	r24, 3
    1ad4:	0a c0       	rjmp	.+20     	; 0x1aea <Endpoint_Write_Control_PStream_LE+0xbe>
    1ad6:	80 91 e8 00 	lds	r24, 0x00E8	; 0x8000e8 <__TEXT_REGION_LENGTH__+0x7e00e8>
    1ada:	82 ff       	sbrs	r24, 2
    1adc:	f2 cf       	rjmp	.-28     	; 0x1ac2 <Endpoint_Write_Control_PStream_LE+0x96>
    1ade:	80 e0       	ldi	r24, 0x00	; 0
    1ae0:	08 95       	ret
    1ae2:	82 e0       	ldi	r24, 0x02	; 2
    1ae4:	08 95       	ret
    1ae6:	83 e0       	ldi	r24, 0x03	; 3
    1ae8:	08 95       	ret
    1aea:	81 e0       	ldi	r24, 0x01	; 1
    1aec:	08 95       	ret

00001aee <Endpoint_Write_Control_EStream_LE>:

#if defined(TEMPLATE_FUNC_NAME)

uint8_t TEMPLATE_FUNC_NAME (const void* const Buffer,
                            uint16_t Length)
{
    1aee:	cf 92       	push	r12
    1af0:	df 92       	push	r13
    1af2:	ef 92       	push	r14
    1af4:	ff 92       	push	r15
    1af6:	0f 93       	push	r16
    1af8:	1f 93       	push	r17
    1afa:	cf 93       	push	r28
    1afc:	df 93       	push	r29
    1afe:	eb 01       	movw	r28, r22
	uint8_t* DataStream     = ((uint8_t*)Buffer + TEMPLATE_BUFFER_OFFSET(Length));
	bool     LastPacketFull = false;

	if (Length > USB_ControlRequest.wLength)
    1b00:	20 91 eb 01 	lds	r18, 0x01EB	; 0x8001eb <USB_ControlRequest+0x6>
    1b04:	30 91 ec 01 	lds	r19, 0x01EC	; 0x8001ec <USB_ControlRequest+0x7>
    1b08:	26 17       	cp	r18, r22
    1b0a:	37 07       	cpc	r19, r23
    1b0c:	40 f0       	brcs	.+16     	; 0x1b1e <Endpoint_Write_Control_EStream_LE+0x30>
	  Length = USB_ControlRequest.wLength;
	else if (!(Length))
    1b0e:	20 97       	sbiw	r28, 0x00	; 0
    1b10:	39 f4       	brne	.+14     	; 0x1b20 <Endpoint_Write_Control_EStream_LE+0x32>
			 */
			static inline void Endpoint_ClearIN(void) ATTR_ALWAYS_INLINE;
			static inline void Endpoint_ClearIN(void)
			{
				#if !defined(CONTROL_ONLY_DEVICE)
					UEINTX &= ~((1 << TXINI) | (1 << FIFOCON));
    1b12:	20 91 e8 00 	lds	r18, 0x00E8	; 0x8000e8 <__TEXT_REGION_LENGTH__+0x7e00e8>
    1b16:	2e 77       	andi	r18, 0x7E	; 126
    1b18:	20 93 e8 00 	sts	0x00E8, r18	; 0x8000e8 <__TEXT_REGION_LENGTH__+0x7e00e8>
    1b1c:	01 c0       	rjmp	.+2      	; 0x1b20 <Endpoint_Write_Control_EStream_LE+0x32>
    1b1e:	e9 01       	movw	r28, r18
		else if (Endpoint_IsOUTReceived())
		  break;

		if (Endpoint_IsINReady())
		{
			uint16_t BytesInEndpoint = Endpoint_BytesInEndpoint();
    1b20:	6c 01       	movw	r12, r24
    1b22:	20 e0       	ldi	r18, 0x00	; 0
	if (Length > USB_ControlRequest.wLength)
	  Length = USB_ControlRequest.wLength;
	else if (!(Length))
	  Endpoint_ClearIN();

	while (Length || LastPacketFull)
    1b24:	20 97       	sbiw	r28, 0x00	; 0
    1b26:	d9 f1       	breq	.+118    	; 0x1b9e <Endpoint_Write_Control_EStream_LE+0xb0>
	{
		uint8_t USB_DeviceState_LCL = USB_DeviceState;
    1b28:	80 91 e4 01 	lds	r24, 0x01E4	; 0x8001e4 <USB_DeviceState>

		if (USB_DeviceState_LCL == DEVICE_STATE_Unattached)
    1b2c:	88 23       	and	r24, r24
    1b2e:	09 f4       	brne	.+2      	; 0x1b32 <Endpoint_Write_Control_EStream_LE+0x44>
    1b30:	49 c0       	rjmp	.+146    	; 0x1bc4 <Endpoint_Write_Control_EStream_LE+0xd6>
		  return ENDPOINT_RWCSTREAM_DeviceDisconnected;
		else if (USB_DeviceState_LCL == DEVICE_STATE_Suspended)
    1b32:	85 30       	cpi	r24, 0x05	; 5
    1b34:	09 f4       	brne	.+2      	; 0x1b38 <Endpoint_Write_Control_EStream_LE+0x4a>
    1b36:	48 c0       	rjmp	.+144    	; 0x1bc8 <Endpoint_Write_Control_EStream_LE+0xda>
			 *  \return Boolean \c true if the selected endpoint has received a SETUP packet, \c false otherwise.
			 */
			static inline bool Endpoint_IsSETUPReceived(void) ATTR_WARN_UNUSED_RESULT ATTR_ALWAYS_INLINE;
			static inline bool Endpoint_IsSETUPReceived(void)
			{
				return ((UEINTX & (1 << RXSTPI)) ? true : false);
    1b38:	80 91 e8 00 	lds	r24, 0x00E8	; 0x8000e8 <__TEXT_REGION_LENGTH__+0x7e00e8>
		  return ENDPOINT_RWCSTREAM_BusSuspended;
		else if (Endpoint_IsSETUPReceived())
    1b3c:	83 fd       	sbrc	r24, 3
    1b3e:	46 c0       	rjmp	.+140    	; 0x1bcc <Endpoint_Write_Control_EStream_LE+0xde>
			 *  \return Boolean \c true if current endpoint is has received an OUT packet, \c false otherwise.
			 */
			static inline bool Endpoint_IsOUTReceived(void) ATTR_WARN_UNUSED_RESULT ATTR_ALWAYS_INLINE;
			static inline bool Endpoint_IsOUTReceived(void)
			{
				return ((UEINTX & (1 << RXOUTI)) ? true : false);
    1b40:	80 91 e8 00 	lds	r24, 0x00E8	; 0x8000e8 <__TEXT_REGION_LENGTH__+0x7e00e8>
		  return ENDPOINT_RWCSTREAM_HostAborted;
		else if (Endpoint_IsOUTReceived())
    1b44:	82 fd       	sbrc	r24, 2
    1b46:	38 c0       	rjmp	.+112    	; 0x1bb8 <Endpoint_Write_Control_EStream_LE+0xca>
			 *  \return Boolean \c true if the current endpoint is ready for an IN packet, \c false otherwise.
			 */
			static inline bool Endpoint_IsINReady(void) ATTR_WARN_UNUSED_RESULT ATTR_ALWAYS_INLINE;
			static inline bool Endpoint_IsINReady(void)
			{
				return ((UEINTX & (1 << TXINI)) ? true : false);
    1b48:	80 91 e8 00 	lds	r24, 0x00E8	; 0x8000e8 <__TEXT_REGION_LENGTH__+0x7e00e8>
		  break;

		if (Endpoint_IsINReady())
    1b4c:	80 ff       	sbrs	r24, 0
    1b4e:	ea cf       	rjmp	.-44     	; 0x1b24 <Endpoint_Write_Control_EStream_LE+0x36>
			static inline uint16_t Endpoint_BytesInEndpoint(void)
			{
				#if (defined(USB_SERIES_6_AVR) || defined(USB_SERIES_7_AVR))
					return UEBCX;
				#elif defined(USB_SERIES_4_AVR)
					return (((uint16_t)UEBCHX << 8) | UEBCLX);
    1b50:	80 91 f3 00 	lds	r24, 0x00F3	; 0x8000f3 <__TEXT_REGION_LENGTH__+0x7e00f3>
    1b54:	00 91 f2 00 	lds	r16, 0x00F2	; 0x8000f2 <__TEXT_REGION_LENGTH__+0x7e00f2>
    1b58:	10 e0       	ldi	r17, 0x00	; 0
    1b5a:	18 2b       	or	r17, r24
		{
			uint16_t BytesInEndpoint = Endpoint_BytesInEndpoint();
    1b5c:	78 01       	movw	r14, r16
    1b5e:	c7 01       	movw	r24, r14
    1b60:	80 1b       	sub	r24, r16
    1b62:	91 0b       	sbc	r25, r17
    1b64:	8c 0d       	add	r24, r12
    1b66:	9d 1d       	adc	r25, r13

			while (Length && (BytesInEndpoint < USB_Device_ControlEndpointSize))
    1b68:	20 97       	sbiw	r28, 0x00	; 0
    1b6a:	61 f0       	breq	.+24     	; 0x1b84 <Endpoint_Write_Control_EStream_LE+0x96>
    1b6c:	38 e0       	ldi	r19, 0x08	; 8
    1b6e:	e3 16       	cp	r14, r19
    1b70:	f1 04       	cpc	r15, r1
    1b72:	40 f4       	brcc	.+16     	; 0x1b84 <Endpoint_Write_Control_EStream_LE+0x96>
			{
				TEMPLATE_TRANSFER_BYTE(DataStream);
    1b74:	a8 d3       	rcall	.+1872   	; 0x22c6 <eeprom_read_byte>
			 *  \param[in] Data  Data to write into the the currently selected endpoint's FIFO buffer.
			 */
			static inline void Endpoint_Write_8(const uint8_t Data) ATTR_ALWAYS_INLINE;
			static inline void Endpoint_Write_8(const uint8_t Data)
			{
				UEDATX = Data;
    1b76:	80 93 f1 00 	sts	0x00F1, r24	; 0x8000f1 <__TEXT_REGION_LENGTH__+0x7e00f1>
				TEMPLATE_BUFFER_MOVE(DataStream, 1);
				Length--;
    1b7a:	21 97       	sbiw	r28, 0x01	; 1
				BytesInEndpoint++;
    1b7c:	2f ef       	ldi	r18, 0xFF	; 255
    1b7e:	e2 1a       	sub	r14, r18
    1b80:	f2 0a       	sbc	r15, r18
    1b82:	ed cf       	rjmp	.-38     	; 0x1b5e <Endpoint_Write_Control_EStream_LE+0x70>
			}

			LastPacketFull = (BytesInEndpoint == USB_Device_ControlEndpointSize);
    1b84:	21 e0       	ldi	r18, 0x01	; 1
    1b86:	38 e0       	ldi	r19, 0x08	; 8
    1b88:	e3 16       	cp	r14, r19
    1b8a:	f1 04       	cpc	r15, r1
    1b8c:	09 f0       	breq	.+2      	; 0x1b90 <Endpoint_Write_Control_EStream_LE+0xa2>
    1b8e:	20 e0       	ldi	r18, 0x00	; 0
			 */
			static inline void Endpoint_ClearIN(void) ATTR_ALWAYS_INLINE;
			static inline void Endpoint_ClearIN(void)
			{
				#if !defined(CONTROL_ONLY_DEVICE)
					UEINTX &= ~((1 << TXINI) | (1 << FIFOCON));
    1b90:	30 91 e8 00 	lds	r19, 0x00E8	; 0x8000e8 <__TEXT_REGION_LENGTH__+0x7e00e8>
    1b94:	3e 77       	andi	r19, 0x7E	; 126
    1b96:	30 93 e8 00 	sts	0x00E8, r19	; 0x8000e8 <__TEXT_REGION_LENGTH__+0x7e00e8>
    1b9a:	6c 01       	movw	r12, r24
    1b9c:	c3 cf       	rjmp	.-122    	; 0x1b24 <Endpoint_Write_Control_EStream_LE+0x36>
	if (Length > USB_ControlRequest.wLength)
	  Length = USB_ControlRequest.wLength;
	else if (!(Length))
	  Endpoint_ClearIN();

	while (Length || LastPacketFull)
    1b9e:	21 11       	cpse	r18, r1
    1ba0:	c3 cf       	rjmp	.-122    	; 0x1b28 <Endpoint_Write_Control_EStream_LE+0x3a>
    1ba2:	0a c0       	rjmp	.+20     	; 0x1bb8 <Endpoint_Write_Control_EStream_LE+0xca>
		}
	}

	while (!(Endpoint_IsOUTReceived()))
	{
		uint8_t USB_DeviceState_LCL = USB_DeviceState;
    1ba4:	80 91 e4 01 	lds	r24, 0x01E4	; 0x8001e4 <USB_DeviceState>

		if (USB_DeviceState_LCL == DEVICE_STATE_Unattached)
    1ba8:	88 23       	and	r24, r24
    1baa:	61 f0       	breq	.+24     	; 0x1bc4 <Endpoint_Write_Control_EStream_LE+0xd6>
		  return ENDPOINT_RWCSTREAM_DeviceDisconnected;
		else if (USB_DeviceState_LCL == DEVICE_STATE_Suspended)
    1bac:	85 30       	cpi	r24, 0x05	; 5
    1bae:	61 f0       	breq	.+24     	; 0x1bc8 <Endpoint_Write_Control_EStream_LE+0xda>
			 *  \return Boolean \c true if the selected endpoint has received a SETUP packet, \c false otherwise.
			 */
			static inline bool Endpoint_IsSETUPReceived(void) ATTR_WARN_UNUSED_RESULT ATTR_ALWAYS_INLINE;
			static inline bool Endpoint_IsSETUPReceived(void)
			{
				return ((UEINTX & (1 << RXSTPI)) ? true : false);
    1bb0:	80 91 e8 00 	lds	r24, 0x00E8	; 0x8000e8 <__TEXT_REGION_LENGTH__+0x7e00e8>
		  return ENDPOINT_RWCSTREAM_BusSuspended;
		else if (Endpoint_IsSETUPReceived())
    1bb4:	83 fd       	sbrc	r24, 3
    1bb6:	0a c0       	rjmp	.+20     	; 0x1bcc <Endpoint_Write_Control_EStream_LE+0xde>
			 *  \return Boolean \c true if current endpoint is has received an OUT packet, \c false otherwise.
			 */
			static inline bool Endpoint_IsOUTReceived(void) ATTR_WARN_UNUSED_RESULT ATTR_ALWAYS_INLINE;
			static inline bool Endpoint_IsOUTReceived(void)
			{
				return ((UEINTX & (1 << RXOUTI)) ? true : false);
    1bb8:	80 91 e8 00 	lds	r24, 0x00E8	; 0x8000e8 <__TEXT_REGION_LENGTH__+0x7e00e8>
			LastPacketFull = (BytesInEndpoint == USB_Device_ControlEndpointSize);
			Endpoint_ClearIN();
		}
	}

	while (!(Endpoint_IsOUTReceived()))
    1bbc:	82 ff       	sbrs	r24, 2
    1bbe:	f2 cf       	rjmp	.-28     	; 0x1ba4 <Endpoint_Write_Control_EStream_LE+0xb6>
		  return ENDPOINT_RWCSTREAM_BusSuspended;
		else if (Endpoint_IsSETUPReceived())
		  return ENDPOINT_RWCSTREAM_HostAborted;
	}

	return ENDPOINT_RWCSTREAM_NoError;
    1bc0:	80 e0       	ldi	r24, 0x00	; 0
    1bc2:	05 c0       	rjmp	.+10     	; 0x1bce <Endpoint_Write_Control_EStream_LE+0xe0>
	while (Length || LastPacketFull)
	{
		uint8_t USB_DeviceState_LCL = USB_DeviceState;

		if (USB_DeviceState_LCL == DEVICE_STATE_Unattached)
		  return ENDPOINT_RWCSTREAM_DeviceDisconnected;
    1bc4:	82 e0       	ldi	r24, 0x02	; 2
    1bc6:	03 c0       	rjmp	.+6      	; 0x1bce <Endpoint_Write_Control_EStream_LE+0xe0>
		else if (USB_DeviceState_LCL == DEVICE_STATE_Suspended)
		  return ENDPOINT_RWCSTREAM_BusSuspended;
    1bc8:	83 e0       	ldi	r24, 0x03	; 3
    1bca:	01 c0       	rjmp	.+2      	; 0x1bce <Endpoint_Write_Control_EStream_LE+0xe0>
		else if (Endpoint_IsSETUPReceived())
		  return ENDPOINT_RWCSTREAM_HostAborted;
    1bcc:	81 e0       	ldi	r24, 0x01	; 1
		else if (Endpoint_IsSETUPReceived())
		  return ENDPOINT_RWCSTREAM_HostAborted;
	}

	return ENDPOINT_RWCSTREAM_NoError;
}
    1bce:	df 91       	pop	r29
    1bd0:	cf 91       	pop	r28
    1bd2:	1f 91       	pop	r17
    1bd4:	0f 91       	pop	r16
    1bd6:	ff 90       	pop	r15
    1bd8:	ef 90       	pop	r14
    1bda:	df 90       	pop	r13
    1bdc:	cf 90       	pop	r12
    1bde:	08 95       	ret

00001be0 <Endpoint_ConfigureEndpoint_Prv>:
		UEIENX  = 0;
		UEINTX  = 0;
		UECFG1X = 0;
		Endpoint_DisableEndpoint();
	}
}
    1be0:	98 2f       	mov	r25, r24
    1be2:	97 30       	cpi	r25, 0x07	; 7
    1be4:	68 f5       	brcc	.+90     	; 0x1c40 <Endpoint_ConfigureEndpoint_Prv+0x60>
    1be6:	90 93 e9 00 	sts	0x00E9, r25	; 0x8000e9 <__TEXT_REGION_LENGTH__+0x7e00e9>
    1bea:	98 17       	cp	r25, r24
    1bec:	39 f0       	breq	.+14     	; 0x1bfc <Endpoint_ConfigureEndpoint_Prv+0x1c>
    1bee:	70 91 ec 00 	lds	r23, 0x00EC	; 0x8000ec <__TEXT_REGION_LENGTH__+0x7e00ec>
    1bf2:	20 91 ed 00 	lds	r18, 0x00ED	; 0x8000ed <__TEXT_REGION_LENGTH__+0x7e00ed>
    1bf6:	50 91 f0 00 	lds	r21, 0x00F0	; 0x8000f0 <__TEXT_REGION_LENGTH__+0x7e00f0>
    1bfa:	03 c0       	rjmp	.+6      	; 0x1c02 <Endpoint_ConfigureEndpoint_Prv+0x22>
    1bfc:	24 2f       	mov	r18, r20
    1bfe:	76 2f       	mov	r23, r22
    1c00:	50 e0       	ldi	r21, 0x00	; 0
    1c02:	21 fd       	sbrc	r18, 1
    1c04:	02 c0       	rjmp	.+4      	; 0x1c0a <Endpoint_ConfigureEndpoint_Prv+0x2a>
    1c06:	9f 5f       	subi	r25, 0xFF	; 255
    1c08:	ec cf       	rjmp	.-40     	; 0x1be2 <Endpoint_ConfigureEndpoint_Prv+0x2>
    1c0a:	30 91 eb 00 	lds	r19, 0x00EB	; 0x8000eb <__TEXT_REGION_LENGTH__+0x7e00eb>
    1c0e:	3e 7f       	andi	r19, 0xFE	; 254
    1c10:	30 93 eb 00 	sts	0x00EB, r19	; 0x8000eb <__TEXT_REGION_LENGTH__+0x7e00eb>
    1c14:	30 91 ed 00 	lds	r19, 0x00ED	; 0x8000ed <__TEXT_REGION_LENGTH__+0x7e00ed>
    1c18:	3d 7f       	andi	r19, 0xFD	; 253
    1c1a:	30 93 ed 00 	sts	0x00ED, r19	; 0x8000ed <__TEXT_REGION_LENGTH__+0x7e00ed>
    1c1e:	30 91 eb 00 	lds	r19, 0x00EB	; 0x8000eb <__TEXT_REGION_LENGTH__+0x7e00eb>
    1c22:	31 60       	ori	r19, 0x01	; 1
    1c24:	30 93 eb 00 	sts	0x00EB, r19	; 0x8000eb <__TEXT_REGION_LENGTH__+0x7e00eb>
    1c28:	70 93 ec 00 	sts	0x00EC, r23	; 0x8000ec <__TEXT_REGION_LENGTH__+0x7e00ec>
    1c2c:	20 93 ed 00 	sts	0x00ED, r18	; 0x8000ed <__TEXT_REGION_LENGTH__+0x7e00ed>
    1c30:	50 93 f0 00 	sts	0x00F0, r21	; 0x8000f0 <__TEXT_REGION_LENGTH__+0x7e00f0>
    1c34:	20 91 ee 00 	lds	r18, 0x00EE	; 0x8000ee <__TEXT_REGION_LENGTH__+0x7e00ee>
    1c38:	27 fd       	sbrc	r18, 7
    1c3a:	e5 cf       	rjmp	.-54     	; 0x1c06 <Endpoint_ConfigureEndpoint_Prv+0x26>
    1c3c:	80 e0       	ldi	r24, 0x00	; 0
    1c3e:	08 95       	ret
    1c40:	8f 70       	andi	r24, 0x0F	; 15
    1c42:	80 93 e9 00 	sts	0x00E9, r24	; 0x8000e9 <__TEXT_REGION_LENGTH__+0x7e00e9>
    1c46:	81 e0       	ldi	r24, 0x01	; 1
    1c48:	08 95       	ret

00001c4a <Endpoint_ClearStatusStage>:

void Endpoint_ClearStatusStage(void)
{
	if (USB_ControlRequest.bmRequestType & REQDIR_DEVICETOHOST)
    1c4a:	80 91 e5 01 	lds	r24, 0x01E5	; 0x8001e5 <USB_ControlRequest>
    1c4e:	87 ff       	sbrs	r24, 7
    1c50:	11 c0       	rjmp	.+34     	; 0x1c74 <Endpoint_ClearStatusStage+0x2a>
			 *  \return Boolean \c true if current endpoint is has received an OUT packet, \c false otherwise.
			 */
			static inline bool Endpoint_IsOUTReceived(void) ATTR_WARN_UNUSED_RESULT ATTR_ALWAYS_INLINE;
			static inline bool Endpoint_IsOUTReceived(void)
			{
				return ((UEINTX & (1 << RXOUTI)) ? true : false);
    1c52:	80 91 e8 00 	lds	r24, 0x00E8	; 0x8000e8 <__TEXT_REGION_LENGTH__+0x7e00e8>
	{
		while (!(Endpoint_IsOUTReceived()))
    1c56:	82 fd       	sbrc	r24, 2
    1c58:	05 c0       	rjmp	.+10     	; 0x1c64 <Endpoint_ClearStatusStage+0x1a>
		{
			if (USB_DeviceState == DEVICE_STATE_Unattached)
    1c5a:	80 91 e4 01 	lds	r24, 0x01E4	; 0x8001e4 <USB_DeviceState>
    1c5e:	81 11       	cpse	r24, r1
    1c60:	f8 cf       	rjmp	.-16     	; 0x1c52 <Endpoint_ClearStatusStage+0x8>
    1c62:	11 c0       	rjmp	.+34     	; 0x1c86 <Endpoint_ClearStatusStage+0x3c>
			 */
			static inline void Endpoint_ClearOUT(void) ATTR_ALWAYS_INLINE;
			static inline void Endpoint_ClearOUT(void)
			{
				#if !defined(CONTROL_ONLY_DEVICE)
					UEINTX &= ~((1 << RXOUTI) | (1 << FIFOCON));
    1c64:	80 91 e8 00 	lds	r24, 0x00E8	; 0x8000e8 <__TEXT_REGION_LENGTH__+0x7e00e8>
    1c68:	8b 77       	andi	r24, 0x7B	; 123
    1c6a:	0b c0       	rjmp	.+22     	; 0x1c82 <Endpoint_ClearStatusStage+0x38>
	}
	else
	{
		while (!(Endpoint_IsINReady()))
		{
			if (USB_DeviceState == DEVICE_STATE_Unattached)
    1c6c:	80 91 e4 01 	lds	r24, 0x01E4	; 0x8001e4 <USB_DeviceState>
    1c70:	88 23       	and	r24, r24
    1c72:	49 f0       	breq	.+18     	; 0x1c86 <Endpoint_ClearStatusStage+0x3c>
			 *  \return Boolean \c true if the current endpoint is ready for an IN packet, \c false otherwise.
			 */
			static inline bool Endpoint_IsINReady(void) ATTR_WARN_UNUSED_RESULT ATTR_ALWAYS_INLINE;
			static inline bool Endpoint_IsINReady(void)
			{
				return ((UEINTX & (1 << TXINI)) ? true : false);
    1c74:	80 91 e8 00 	lds	r24, 0x00E8	; 0x8000e8 <__TEXT_REGION_LENGTH__+0x7e00e8>

		Endpoint_ClearOUT();
	}
	else
	{
		while (!(Endpoint_IsINReady()))
    1c78:	80 ff       	sbrs	r24, 0
    1c7a:	f8 cf       	rjmp	.-16     	; 0x1c6c <Endpoint_ClearStatusStage+0x22>
			 */
			static inline void Endpoint_ClearIN(void) ATTR_ALWAYS_INLINE;
			static inline void Endpoint_ClearIN(void)
			{
				#if !defined(CONTROL_ONLY_DEVICE)
					UEINTX &= ~((1 << TXINI) | (1 << FIFOCON));
    1c7c:	80 91 e8 00 	lds	r24, 0x00E8	; 0x8000e8 <__TEXT_REGION_LENGTH__+0x7e00e8>
    1c80:	8e 77       	andi	r24, 0x7E	; 126
    1c82:	80 93 e8 00 	sts	0x00E8, r24	; 0x8000e8 <__TEXT_REGION_LENGTH__+0x7e00e8>
    1c86:	08 95       	ret

00001c88 <Endpoint_WaitUntilReady>:
			 *  \return Current USB frame number from the USB controller.
			 */
			static inline uint16_t USB_Device_GetFrameNumber(void) ATTR_ALWAYS_INLINE ATTR_WARN_UNUSED_RESULT;
			static inline uint16_t USB_Device_GetFrameNumber(void)
			{
				return UDFNUM;
    1c88:	20 91 e4 00 	lds	r18, 0x00E4	; 0x8000e4 <__TEXT_REGION_LENGTH__+0x7e00e4>
    1c8c:	30 91 e5 00 	lds	r19, 0x00E5	; 0x8000e5 <__TEXT_REGION_LENGTH__+0x7e00e5>
    1c90:	95 e6       	ldi	r25, 0x65	; 101
			 *  \return The currently selected endpoint's direction, as a \c ENDPOINT_DIR_* mask.
			 */
			static inline uint8_t Endpoint_GetEndpointDirection(void) ATTR_WARN_UNUSED_RESULT ATTR_ALWAYS_INLINE;
			static inline uint8_t Endpoint_GetEndpointDirection(void)
			{
				return (UECFG0X & (1 << EPDIR)) ? ENDPOINT_DIR_IN : ENDPOINT_DIR_OUT;
    1c92:	40 91 ec 00 	lds	r20, 0x00EC	; 0x8000ec <__TEXT_REGION_LENGTH__+0x7e00ec>
    1c96:	84 2f       	mov	r24, r20
    1c98:	81 70       	andi	r24, 0x01	; 1
    1c9a:	40 ff       	sbrs	r20, 0
    1c9c:	23 c0       	rjmp	.+70     	; 0x1ce4 <Endpoint_WaitUntilReady+0x5c>
			 *  \return Boolean \c true if the current endpoint is ready for an IN packet, \c false otherwise.
			 */
			static inline bool Endpoint_IsINReady(void) ATTR_WARN_UNUSED_RESULT ATTR_ALWAYS_INLINE;
			static inline bool Endpoint_IsINReady(void)
			{
				return ((UEINTX & (1 << TXINI)) ? true : false);
    1c9e:	80 91 e8 00 	lds	r24, 0x00E8	; 0x8000e8 <__TEXT_REGION_LENGTH__+0x7e00e8>

	for (;;)
	{
		if (Endpoint_GetEndpointDirection() == ENDPOINT_DIR_IN)
		{
			if (Endpoint_IsINReady())
    1ca2:	80 fd       	sbrc	r24, 0
    1ca4:	1d c0       	rjmp	.+58     	; 0x1ce0 <Endpoint_WaitUntilReady+0x58>
		{
			if (Endpoint_IsOUTReceived())
			  return ENDPOINT_READYWAIT_NoError;
		}

		uint8_t USB_DeviceState_LCL = USB_DeviceState;
    1ca6:	80 91 e4 01 	lds	r24, 0x01E4	; 0x8001e4 <USB_DeviceState>

		if (USB_DeviceState_LCL == DEVICE_STATE_Unattached)
    1caa:	88 23       	and	r24, r24
    1cac:	99 f0       	breq	.+38     	; 0x1cd4 <Endpoint_WaitUntilReady+0x4c>
		  return ENDPOINT_READYWAIT_DeviceDisconnected;
		else if (USB_DeviceState_LCL == DEVICE_STATE_Suspended)
    1cae:	85 30       	cpi	r24, 0x05	; 5
    1cb0:	99 f0       	breq	.+38     	; 0x1cd8 <Endpoint_WaitUntilReady+0x50>
			 *  \return Boolean \c true if the currently selected endpoint is stalled, \c false otherwise.
			 */
			static inline bool Endpoint_IsStalled(void) ATTR_WARN_UNUSED_RESULT ATTR_ALWAYS_INLINE;
			static inline bool Endpoint_IsStalled(void)
			{
				return ((UECONX & (1 << STALLRQ)) ? true : false);
    1cb2:	80 91 eb 00 	lds	r24, 0x00EB	; 0x8000eb <__TEXT_REGION_LENGTH__+0x7e00eb>
		  return ENDPOINT_READYWAIT_BusSuspended;
		else if (Endpoint_IsStalled())
    1cb6:	85 fd       	sbrc	r24, 5
    1cb8:	11 c0       	rjmp	.+34     	; 0x1cdc <Endpoint_WaitUntilReady+0x54>
    1cba:	40 91 e4 00 	lds	r20, 0x00E4	; 0x8000e4 <__TEXT_REGION_LENGTH__+0x7e00e4>
    1cbe:	50 91 e5 00 	lds	r21, 0x00E5	; 0x8000e5 <__TEXT_REGION_LENGTH__+0x7e00e5>
		  return ENDPOINT_READYWAIT_EndpointStalled;

		uint16_t CurrentFrameNumber = USB_Device_GetFrameNumber();

		if (CurrentFrameNumber != PreviousFrameNumber)
    1cc2:	24 17       	cp	r18, r20
    1cc4:	35 07       	cpc	r19, r21
    1cc6:	29 f3       	breq	.-54     	; 0x1c92 <Endpoint_WaitUntilReady+0xa>
    1cc8:	91 50       	subi	r25, 0x01	; 1
		{
			PreviousFrameNumber = CurrentFrameNumber;

			if (!(TimeoutMSRem--))
    1cca:	11 f0       	breq	.+4      	; 0x1cd0 <Endpoint_WaitUntilReady+0x48>
    1ccc:	9a 01       	movw	r18, r20
    1cce:	e1 cf       	rjmp	.-62     	; 0x1c92 <Endpoint_WaitUntilReady+0xa>
			  return ENDPOINT_READYWAIT_Timeout;
    1cd0:	84 e0       	ldi	r24, 0x04	; 4
    1cd2:	08 95       	ret
		}

		uint8_t USB_DeviceState_LCL = USB_DeviceState;

		if (USB_DeviceState_LCL == DEVICE_STATE_Unattached)
		  return ENDPOINT_READYWAIT_DeviceDisconnected;
    1cd4:	82 e0       	ldi	r24, 0x02	; 2
    1cd6:	08 95       	ret
		else if (USB_DeviceState_LCL == DEVICE_STATE_Suspended)
		  return ENDPOINT_READYWAIT_BusSuspended;
    1cd8:	83 e0       	ldi	r24, 0x03	; 3
    1cda:	08 95       	ret
		else if (Endpoint_IsStalled())
		  return ENDPOINT_READYWAIT_EndpointStalled;
    1cdc:	81 e0       	ldi	r24, 0x01	; 1
    1cde:	08 95       	ret
	for (;;)
	{
		if (Endpoint_GetEndpointDirection() == ENDPOINT_DIR_IN)
		{
			if (Endpoint_IsINReady())
			  return ENDPOINT_READYWAIT_NoError;
    1ce0:	80 e0       	ldi	r24, 0x00	; 0
    1ce2:	08 95       	ret
			 *  \return Boolean \c true if current endpoint is has received an OUT packet, \c false otherwise.
			 */
			static inline bool Endpoint_IsOUTReceived(void) ATTR_WARN_UNUSED_RESULT ATTR_ALWAYS_INLINE;
			static inline bool Endpoint_IsOUTReceived(void)
			{
				return ((UEINTX & (1 << RXOUTI)) ? true : false);
    1ce4:	40 91 e8 00 	lds	r20, 0x00E8	; 0x8000e8 <__TEXT_REGION_LENGTH__+0x7e00e8>
		}
		else
		{
			if (Endpoint_IsOUTReceived())
    1ce8:	42 ff       	sbrs	r20, 2
    1cea:	dd cf       	rjmp	.-70     	; 0x1ca6 <Endpoint_WaitUntilReady+0x1e>

			if (!(TimeoutMSRem--))
			  return ENDPOINT_READYWAIT_Timeout;
		}
	}
}
    1cec:	08 95       	ret

00001cee <USB_Disable>:
	USB_ResetInterface();
}

void USB_Disable(void)
{
	USB_INT_DisableAllInterrupts();
    1cee:	67 d0       	rcall	.+206    	; 0x1dbe <USB_INT_DisableAllInterrupts>
	USB_INT_ClearAllInterrupts();
    1cf0:	6e d0       	rcall	.+220    	; 0x1dce <USB_INT_ClearAllInterrupts>
    1cf2:	e0 ee       	ldi	r30, 0xE0	; 224
			 *  enumerating the device once attached until \ref USB_Attach() is called.
			 */
			static inline void USB_Detach(void) ATTR_ALWAYS_INLINE;
			static inline void USB_Detach(void)
			{
				UDCON  |=  (1 << DETACH);
    1cf4:	f0 e0       	ldi	r31, 0x00	; 0
    1cf6:	80 81       	ld	r24, Z
    1cf8:	81 60       	ori	r24, 0x01	; 1
    1cfa:	80 83       	st	Z, r24
    1cfc:	e8 ed       	ldi	r30, 0xD8	; 216
			}

			static inline void USB_Controller_Disable(void) ATTR_ALWAYS_INLINE;
			static inline void USB_Controller_Disable(void)
			{
				USBCON &= ~(1 << USBE);
    1cfe:	f0 e0       	ldi	r31, 0x00	; 0
    1d00:	80 81       	ld	r24, Z
    1d02:	8f 77       	andi	r24, 0x7F	; 127
    1d04:	80 83       	st	Z, r24
    1d06:	19 bc       	out	0x29, r1	; 41
			}

			static inline void USB_PLL_Off(void) ATTR_ALWAYS_INLINE;
			static inline void USB_PLL_Off(void)
			{
				PLLCSR = 0;
    1d08:	a7 ed       	ldi	r26, 0xD7	; 215

			static inline void USB_REG_Off(void) ATTR_ALWAYS_INLINE;
			static inline void USB_REG_Off(void)
			{
			#if defined(USB_SERIES_4_AVR) || defined(USB_SERIES_6_AVR) || defined(USB_SERIES_7_AVR)
				UHWCON &= ~(1 << UVREGE);
    1d0a:	b0 e0       	ldi	r27, 0x00	; 0
    1d0c:	8c 91       	ld	r24, X
    1d0e:	8e 7f       	andi	r24, 0xFE	; 254
    1d10:	8c 93       	st	X, r24
    1d12:	80 81       	ld	r24, Z
			}

			static inline void USB_OTGPAD_Off(void) ATTR_ALWAYS_INLINE;
			static inline void USB_OTGPAD_Off(void)
			{
				USBCON &= ~(1 << OTGPADE);
    1d14:	8f 7e       	andi	r24, 0xEF	; 239
    1d16:	80 83       	st	Z, r24
    1d18:	10 92 e3 01 	sts	0x01E3, r1	; 0x8001e3 <USB_IsInitialized>

	#if defined(USB_CAN_BE_BOTH)
	USB_CurrentMode = USB_MODE_None;
	#endif

	USB_IsInitialized = false;
    1d1c:	08 95       	ret

00001d1e <USB_ResetInterface>:
    1d1e:	0f 93       	push	r16
}

void USB_ResetInterface(void)
{
    1d20:	1f 93       	push	r17
    1d22:	cf 93       	push	r28
    1d24:	df 93       	push	r29
	#if defined(USB_CAN_BE_BOTH)
	bool UIDModeSelectEnabled = ((UHWCON & (1 << UIDE)) != 0);
	#endif

	USB_INT_DisableAllInterrupts();
    1d26:	4b d0       	rcall	.+150    	; 0x1dbe <USB_INT_DisableAllInterrupts>
	USB_INT_ClearAllInterrupts();
    1d28:	52 d0       	rcall	.+164    	; 0x1dce <USB_INT_ClearAllInterrupts>
    1d2a:	c8 ed       	ldi	r28, 0xD8	; 216
			}

			static inline void USB_Controller_Reset(void) ATTR_ALWAYS_INLINE;
			static inline void USB_Controller_Reset(void)
			{
				USBCON &= ~(1 << USBE);
    1d2c:	d0 e0       	ldi	r29, 0x00	; 0
    1d2e:	88 81       	ld	r24, Y
    1d30:	8f 77       	andi	r24, 0x7F	; 127
    1d32:	88 83       	st	Y, r24
    1d34:	88 81       	ld	r24, Y
				USBCON |=  (1 << USBE);
    1d36:	80 68       	ori	r24, 0x80	; 128
    1d38:	88 83       	st	Y, r24
    1d3a:	88 81       	ld	r24, Y
			}

			static inline void USB_CLK_Unfreeze(void) ATTR_ALWAYS_INLINE;
			static inline void USB_CLK_Unfreeze(void)
			{
				USBCON &= ~(1 << FRZCLK);
    1d3c:	8f 7d       	andi	r24, 0xDF	; 223
    1d3e:	88 83       	st	Y, r24
    1d40:	19 bc       	out	0x29, r1	; 41
			}

			static inline void USB_PLL_Off(void) ATTR_ALWAYS_INLINE;
			static inline void USB_PLL_Off(void)
			{
				PLLCSR = 0;
    1d42:	10 92 e4 01 	sts	0x01E4, r1	; 0x8001e4 <USB_DeviceState>
}

#if defined(USB_CAN_BE_DEVICE)
static void USB_Init_Device(void)
{
	USB_DeviceState                 = DEVICE_STATE_Unattached;
    1d46:	10 92 e0 01 	sts	0x01E0, r1	; 0x8001e0 <USB_Device_ConfigurationNumber>
	USB_Device_ConfigurationNumber  = 0;
    1d4a:	10 92 e2 01 	sts	0x01E2, r1	; 0x8001e2 <USB_Device_RemoteWakeupEnabled>

	#if !defined(NO_DEVICE_REMOTE_WAKEUP)
	USB_Device_RemoteWakeupEnabled  = false;
    1d4e:	10 92 e1 01 	sts	0x01E1, r1	; 0x8001e1 <USB_Device_CurrentlySelfPowered>
	#endif

	#if !defined(NO_DEVICE_SELF_POWER)
	USB_Device_CurrentlySelfPowered = false;
    1d52:	00 ee       	ldi	r16, 0xE0	; 224
			}

			static inline void USB_Device_SetFullSpeed(void) ATTR_ALWAYS_INLINE;
			static inline void USB_Device_SetFullSpeed(void)
			{
				UDCON &= ~(1 << LSM);
    1d54:	10 e0       	ldi	r17, 0x00	; 0
    1d56:	f8 01       	movw	r30, r16
    1d58:	80 81       	ld	r24, Z
    1d5a:	8b 7f       	andi	r24, 0xFB	; 251
    1d5c:	80 83       	st	Z, r24
    1d5e:	88 81       	ld	r24, Y
			{
				switch (Interrupt)
				{
					#if (defined(USB_SERIES_4_AVR) || defined(USB_SERIES_6_AVR) || defined(USB_SERIES_7_AVR))
					case USB_INT_VBUSTI:
						USBCON |= (1 << VBUSTE);
    1d60:	81 60       	ori	r24, 0x01	; 1
    1d62:	88 83       	st	Y, r24
    1d64:	42 e0       	ldi	r20, 0x02	; 2
				uint8_t Number = (Address & ENDPOINT_EPNUM_MASK);

				if (Number >= ENDPOINT_TOTAL_ENDPOINTS)
				  return false;

				return Endpoint_ConfigureEndpoint_Prv(Number,
    1d66:	60 e0       	ldi	r22, 0x00	; 0
    1d68:	80 e0       	ldi	r24, 0x00	; 0
    1d6a:	3a df       	rcall	.-396    	; 0x1be0 <Endpoint_ConfigureEndpoint_Prv>
    1d6c:	e1 ee       	ldi	r30, 0xE1	; 225
					#if defined(USB_CAN_BE_DEVICE)
					case USB_INT_WAKEUPI:
						UDINT  &= ~(1 << WAKEUPI);
						break;
					case USB_INT_SUSPI:
						UDINT  &= ~(1 << SUSPI);
    1d6e:	f0 e0       	ldi	r31, 0x00	; 0
    1d70:	80 81       	ld	r24, Z
    1d72:	8e 7f       	andi	r24, 0xFE	; 254
    1d74:	80 83       	st	Z, r24
    1d76:	e2 ee       	ldi	r30, 0xE2	; 226
					#if defined(USB_CAN_BE_DEVICE)
					case USB_INT_WAKEUPI:
						UDIEN  |= (1 << WAKEUPE);
						break;
					case USB_INT_SUSPI:
						UDIEN  |= (1 << SUSPE);
    1d78:	f0 e0       	ldi	r31, 0x00	; 0
    1d7a:	80 81       	ld	r24, Z
    1d7c:	81 60       	ori	r24, 0x01	; 1
    1d7e:	80 83       	st	Z, r24
    1d80:	80 81       	ld	r24, Z
						break;
					case USB_INT_EORSTI:
						UDIEN  |= (1 << EORSTE);
    1d82:	88 60       	ori	r24, 0x08	; 8
    1d84:	80 83       	st	Z, r24
    1d86:	f8 01       	movw	r30, r16
			 *  register and despite the datasheet making no mention of its requirement in host mode.
			 */
			static inline void USB_Attach(void) ATTR_ALWAYS_INLINE;
			static inline void USB_Attach(void)
			{
				UDCON  &= ~(1 << DETACH);
    1d88:	80 81       	ld	r24, Z
    1d8a:	8e 7f       	andi	r24, 0xFE	; 254
    1d8c:	80 83       	st	Z, r24
    1d8e:	88 81       	ld	r24, Y

			#if defined(USB_SERIES_4_AVR) || defined(USB_SERIES_6_AVR) || defined(USB_SERIES_7_AVR)
			static inline void USB_OTGPAD_On(void) ATTR_ALWAYS_INLINE;
			static inline void USB_OTGPAD_On(void)
			{
				USBCON |=  (1 << OTGPADE);
    1d90:	80 61       	ori	r24, 0x10	; 16
    1d92:	88 83       	st	Y, r24
    1d94:	df 91       	pop	r29
	}

	#if (defined(USB_SERIES_4_AVR) || defined(USB_SERIES_6_AVR) || defined(USB_SERIES_7_AVR))
	USB_OTGPAD_On();
	#endif
}
    1d96:	cf 91       	pop	r28
    1d98:	1f 91       	pop	r17
    1d9a:	0f 91       	pop	r16
    1d9c:	08 95       	ret

00001d9e <USB_Init>:
    1d9e:	e8 ed       	ldi	r30, 0xD8	; 216
			}

			static inline void USB_OTGPAD_Off(void) ATTR_ALWAYS_INLINE;
			static inline void USB_OTGPAD_Off(void)
			{
				USBCON &= ~(1 << OTGPADE);
    1da0:	f0 e0       	ldi	r31, 0x00	; 0
    1da2:	80 81       	ld	r24, Z
    1da4:	8f 7e       	andi	r24, 0xEF	; 239
    1da6:	80 83       	st	Z, r24

			static inline void USB_REG_On(void) ATTR_ALWAYS_INLINE;
			static inline void USB_REG_On(void)
			{
			#if defined(USB_SERIES_4_AVR) || defined(USB_SERIES_6_AVR) || defined(USB_SERIES_7_AVR)
				UHWCON |=  (1 << UVREGE);
    1da8:	e7 ed       	ldi	r30, 0xD7	; 215
    1daa:	f0 e0       	ldi	r31, 0x00	; 0
    1dac:	80 81       	ld	r24, Z
    1dae:	81 60       	ori	r24, 0x01	; 1
    1db0:	80 83       	st	Z, r24
	  USB_REG_Off();

	if (!(USB_Options & USB_OPT_MANUAL_PLL))
	{
		#if defined(USB_SERIES_4_AVR)
		PLLFRQ = (1 << PDIV2);
    1db2:	84 e0       	ldi	r24, 0x04	; 4
    1db4:	82 bf       	out	0x32, r24	; 50
		UHWCON &= ~(1 << UIDE);
		USB_CurrentMode = Mode;
	}
	#endif

	USB_IsInitialized = true;
    1db6:	81 e0       	ldi	r24, 0x01	; 1
    1db8:	80 93 e3 01 	sts	0x01E3, r24	; 0x8001e3 <USB_IsInitialized>

	USB_ResetInterface();
    1dbc:	b0 cf       	rjmp	.-160    	; 0x1d1e <USB_ResetInterface>

00001dbe <USB_INT_DisableAllInterrupts>:
void USB_INT_DisableAllInterrupts(void)
{
	#if defined(USB_SERIES_6_AVR) || defined(USB_SERIES_7_AVR)
	USBCON &= ~((1 << VBUSTE) | (1 << IDTE));
	#elif defined(USB_SERIES_4_AVR)
	USBCON &= ~(1 << VBUSTE);
    1dbe:	e8 ed       	ldi	r30, 0xD8	; 216
    1dc0:	f0 e0       	ldi	r31, 0x00	; 0
    1dc2:	80 81       	ld	r24, Z
    1dc4:	8e 7f       	andi	r24, 0xFE	; 254
    1dc6:	80 83       	st	Z, r24
	#if defined(USB_CAN_BE_HOST)
	UHIEN   = 0;
	#endif

	#if defined(USB_CAN_BE_DEVICE)
	UDIEN   = 0;
    1dc8:	10 92 e2 00 	sts	0x00E2, r1	; 0x8000e2 <__TEXT_REGION_LENGTH__+0x7e00e2>
    1dcc:	08 95       	ret

00001dce <USB_INT_ClearAllInterrupts>:
}

void USB_INT_ClearAllInterrupts(void)
{
	#if defined(USB_SERIES_4_AVR) || defined(USB_SERIES_6_AVR) || defined(USB_SERIES_7_AVR)
	USBINT = 0;
    1dce:	10 92 da 00 	sts	0x00DA, r1	; 0x8000da <__TEXT_REGION_LENGTH__+0x7e00da>
	#if defined(USB_CAN_BE_HOST)
	UHINT  = 0;
	#endif

	#if defined(USB_CAN_BE_DEVICE)
	UDINT  = 0;
    1dd2:	10 92 e1 00 	sts	0x00E1, r1	; 0x8000e1 <__TEXT_REGION_LENGTH__+0x7e00e1>
    1dd6:	08 95       	ret

00001dd8 <__vector_10>:
	#endif
}

ISR(USB_GEN_vect, ISR_BLOCK)
{
    1dd8:	1f 92       	push	r1
    1dda:	0f 92       	push	r0
    1ddc:	0f b6       	in	r0, 0x3f	; 63
    1dde:	0f 92       	push	r0
    1de0:	11 24       	eor	r1, r1
    1de2:	2f 93       	push	r18
    1de4:	3f 93       	push	r19
    1de6:	4f 93       	push	r20
    1de8:	5f 93       	push	r21
    1dea:	6f 93       	push	r22
    1dec:	7f 93       	push	r23
    1dee:	8f 93       	push	r24
    1df0:	9f 93       	push	r25
    1df2:	af 93       	push	r26
    1df4:	bf 93       	push	r27
    1df6:	ef 93       	push	r30
    1df8:	ff 93       	push	r31
					case USB_INT_SUSPI:
						return (UDINT  & (1 << SUSPI));
					case USB_INT_EORSTI:
						return (UDINT  & (1 << EORSTI));
					case USB_INT_SOFI:
						return (UDINT  & (1 << SOFI));
    1dfa:	80 91 e1 00 	lds	r24, 0x00E1	; 0x8000e1 <__TEXT_REGION_LENGTH__+0x7e00e1>
	#if defined(USB_CAN_BE_DEVICE)
	#if !defined(NO_SOF_EVENTS)
	if (USB_INT_HasOccurred(USB_INT_SOFI) && USB_INT_IsEnabled(USB_INT_SOFI))
    1dfe:	82 ff       	sbrs	r24, 2
    1e00:	0a c0       	rjmp	.+20     	; 0x1e16 <__vector_10+0x3e>
					case USB_INT_SUSPI:
						return (UDIEN  & (1 << SUSPE));
					case USB_INT_EORSTI:
						return (UDIEN  & (1 << EORSTE));
					case USB_INT_SOFI:
						return (UDIEN  & (1 << SOFE));
    1e02:	80 91 e2 00 	lds	r24, 0x00E2	; 0x8000e2 <__TEXT_REGION_LENGTH__+0x7e00e2>
    1e06:	82 ff       	sbrs	r24, 2
    1e08:	06 c0       	rjmp	.+12     	; 0x1e16 <__vector_10+0x3e>
						break;
					case USB_INT_EORSTI:
						UDINT  &= ~(1 << EORSTI);
						break;
					case USB_INT_SOFI:
						UDINT  &= ~(1 << SOFI);
    1e0a:	80 91 e1 00 	lds	r24, 0x00E1	; 0x8000e1 <__TEXT_REGION_LENGTH__+0x7e00e1>
    1e0e:	8b 7f       	andi	r24, 0xFB	; 251
    1e10:	80 93 e1 00 	sts	0x00E1, r24	; 0x8000e1 <__TEXT_REGION_LENGTH__+0x7e00e1>
	{
		USB_INT_Clear(USB_INT_SOFI);

		EVENT_USB_Device_StartOfFrame();
    1e14:	28 d2       	rcall	.+1104   	; 0x2266 <USB_Event_Stub>
			{
				switch (Interrupt)
				{
					#if (defined(USB_SERIES_4_AVR) || defined(USB_SERIES_6_AVR) || defined(USB_SERIES_7_AVR))
					case USB_INT_VBUSTI:
						return (USBINT & (1 << VBUSTI));
    1e16:	80 91 da 00 	lds	r24, 0x00DA	; 0x8000da <__TEXT_REGION_LENGTH__+0x7e00da>
	}
	#endif

	#if defined(USB_SERIES_4_AVR) || defined(USB_SERIES_6_AVR) || defined(USB_SERIES_7_AVR)
	if (USB_INT_HasOccurred(USB_INT_VBUSTI) && USB_INT_IsEnabled(USB_INT_VBUSTI))
    1e1a:	80 ff       	sbrs	r24, 0
    1e1c:	1f c0       	rjmp	.+62     	; 0x1e5c <__vector_10+0x84>
			{
				switch (Interrupt)
				{
					#if (defined(USB_SERIES_4_AVR) || defined(USB_SERIES_6_AVR) || defined(USB_SERIES_7_AVR))
					case USB_INT_VBUSTI:
						return (USBCON & (1 << VBUSTE));
    1e1e:	80 91 d8 00 	lds	r24, 0x00D8	; 0x8000d8 <__TEXT_REGION_LENGTH__+0x7e00d8>
    1e22:	80 ff       	sbrs	r24, 0
    1e24:	1b c0       	rjmp	.+54     	; 0x1e5c <__vector_10+0x84>
			{
				switch (Interrupt)
				{
					#if (defined(USB_SERIES_4_AVR) || defined(USB_SERIES_6_AVR) || defined(USB_SERIES_7_AVR))
					case USB_INT_VBUSTI:
						USBINT &= ~(1 << VBUSTI);
    1e26:	80 91 da 00 	lds	r24, 0x00DA	; 0x8000da <__TEXT_REGION_LENGTH__+0x7e00da>
    1e2a:	8e 7f       	andi	r24, 0xFE	; 254
    1e2c:	80 93 da 00 	sts	0x00DA, r24	; 0x8000da <__TEXT_REGION_LENGTH__+0x7e00da>
				 *  \return Boolean \c true if the VBUS line is currently detecting power from a host, \c false otherwise.
				 */
				static inline bool USB_VBUS_GetStatus(void) ATTR_WARN_UNUSED_RESULT ATTR_ALWAYS_INLINE;
				static inline bool USB_VBUS_GetStatus(void)
				{
					return ((USBSTA & (1 << VBUS)) ? true : false);
    1e30:	80 91 d9 00 	lds	r24, 0x00D9	; 0x8000d9 <__TEXT_REGION_LENGTH__+0x7e00d9>
	{
		USB_INT_Clear(USB_INT_VBUSTI);

		if (USB_VBUS_GetStatus())
    1e34:	80 ff       	sbrs	r24, 0
    1e36:	0d c0       	rjmp	.+26     	; 0x1e52 <__vector_10+0x7a>

		/* Inline Functions: */
			static inline void USB_PLL_On(void) ATTR_ALWAYS_INLINE;
			static inline void USB_PLL_On(void)
			{
				PLLCSR = USB_PLL_PSC;
    1e38:	80 e1       	ldi	r24, 0x10	; 16
    1e3a:	89 bd       	out	0x29, r24	; 41
				PLLCSR = (USB_PLL_PSC | (1 << PLLE));
    1e3c:	82 e1       	ldi	r24, 0x12	; 18
    1e3e:	89 bd       	out	0x29, r24	; 41
		{
			if (!(USB_Options & USB_OPT_MANUAL_PLL))
			{
				USB_PLL_On();
				while (!(USB_PLL_IsReady()));
    1e40:	09 b4       	in	r0, 0x29	; 41
    1e42:	00 fe       	sbrs	r0, 0
    1e44:	fd cf       	rjmp	.-6      	; 0x1e40 <__vector_10+0x68>
			}

			USB_DeviceState = DEVICE_STATE_Powered;
    1e46:	81 e0       	ldi	r24, 0x01	; 1
    1e48:	80 93 e4 01 	sts	0x01E4, r24	; 0x8001e4 <USB_DeviceState>
			EVENT_USB_Device_Connect();
    1e4c:	0e 94 e8 03 	call	0x7d0	; 0x7d0 <EVENT_USB_Device_Connect>
    1e50:	05 c0       	rjmp	.+10     	; 0x1e5c <__vector_10+0x84>
			}

			static inline void USB_PLL_Off(void) ATTR_ALWAYS_INLINE;
			static inline void USB_PLL_Off(void)
			{
				PLLCSR = 0;
    1e52:	19 bc       	out	0x29, r1	; 41
		else
		{
			if (!(USB_Options & USB_OPT_MANUAL_PLL))
			  USB_PLL_Off();

			USB_DeviceState = DEVICE_STATE_Unattached;
    1e54:	10 92 e4 01 	sts	0x01E4, r1	; 0x8001e4 <USB_DeviceState>
			EVENT_USB_Device_Disconnect();
    1e58:	0e 94 e9 03 	call	0x7d2	; 0x7d2 <EVENT_USB_Device_Disconnect>
					#endif
					#if defined(USB_CAN_BE_DEVICE)
					case USB_INT_WAKEUPI:
						return (UDINT  & (1 << WAKEUPI));
					case USB_INT_SUSPI:
						return (UDINT  & (1 << SUSPI));
    1e5c:	80 91 e1 00 	lds	r24, 0x00E1	; 0x8000e1 <__TEXT_REGION_LENGTH__+0x7e00e1>
		}
	}
	#endif

	if (USB_INT_HasOccurred(USB_INT_SUSPI) && USB_INT_IsEnabled(USB_INT_SUSPI))
    1e60:	80 ff       	sbrs	r24, 0
    1e62:	18 c0       	rjmp	.+48     	; 0x1e94 <__vector_10+0xbc>
					#endif
					#if defined(USB_CAN_BE_DEVICE)
					case USB_INT_WAKEUPI:
						return (UDIEN  & (1 << WAKEUPE));
					case USB_INT_SUSPI:
						return (UDIEN  & (1 << SUSPE));
    1e64:	80 91 e2 00 	lds	r24, 0x00E2	; 0x8000e2 <__TEXT_REGION_LENGTH__+0x7e00e2>
    1e68:	80 ff       	sbrs	r24, 0
    1e6a:	14 c0       	rjmp	.+40     	; 0x1e94 <__vector_10+0xbc>
					#if defined(USB_CAN_BE_DEVICE)
					case USB_INT_WAKEUPI:
						UDIEN  &= ~(1 << WAKEUPE);
						break;
					case USB_INT_SUSPI:
						UDIEN  &= ~(1 << SUSPE);
    1e6c:	80 91 e2 00 	lds	r24, 0x00E2	; 0x8000e2 <__TEXT_REGION_LENGTH__+0x7e00e2>
    1e70:	8e 7f       	andi	r24, 0xFE	; 254
    1e72:	80 93 e2 00 	sts	0x00E2, r24	; 0x8000e2 <__TEXT_REGION_LENGTH__+0x7e00e2>
						USBCON |= (1 << IDTE);
						break;
					#endif
					#if defined(USB_CAN_BE_DEVICE)
					case USB_INT_WAKEUPI:
						UDIEN  |= (1 << WAKEUPE);
    1e76:	80 91 e2 00 	lds	r24, 0x00E2	; 0x8000e2 <__TEXT_REGION_LENGTH__+0x7e00e2>
    1e7a:	80 61       	ori	r24, 0x10	; 16
    1e7c:	80 93 e2 00 	sts	0x00E2, r24	; 0x8000e2 <__TEXT_REGION_LENGTH__+0x7e00e2>
			#endif

			static inline void USB_CLK_Freeze(void) ATTR_ALWAYS_INLINE;
			static inline void USB_CLK_Freeze(void)
			{
				USBCON |=  (1 << FRZCLK);
    1e80:	80 91 d8 00 	lds	r24, 0x00D8	; 0x8000d8 <__TEXT_REGION_LENGTH__+0x7e00d8>
    1e84:	80 62       	ori	r24, 0x20	; 32
    1e86:	80 93 d8 00 	sts	0x00D8, r24	; 0x8000d8 <__TEXT_REGION_LENGTH__+0x7e00d8>
			}

			static inline void USB_PLL_Off(void) ATTR_ALWAYS_INLINE;
			static inline void USB_PLL_Off(void)
			{
				PLLCSR = 0;
    1e8a:	19 bc       	out	0x29, r1	; 41

		#if defined(USB_SERIES_2_AVR) && !defined(NO_LIMITED_CONTROLLER_CONNECT)
		USB_DeviceState = DEVICE_STATE_Unattached;
		EVENT_USB_Device_Disconnect();
		#else
		USB_DeviceState = DEVICE_STATE_Suspended;
    1e8c:	85 e0       	ldi	r24, 0x05	; 5
    1e8e:	80 93 e4 01 	sts	0x01E4, r24	; 0x8001e4 <USB_DeviceState>
		EVENT_USB_Device_Suspend();
    1e92:	e9 d1       	rcall	.+978    	; 0x2266 <USB_Event_Stub>
					case USB_INT_IDTI:
						return (USBINT & (1 << IDTI));
					#endif
					#if defined(USB_CAN_BE_DEVICE)
					case USB_INT_WAKEUPI:
						return (UDINT  & (1 << WAKEUPI));
    1e94:	80 91 e1 00 	lds	r24, 0x00E1	; 0x8000e1 <__TEXT_REGION_LENGTH__+0x7e00e1>
		#endif
	}

	if (USB_INT_HasOccurred(USB_INT_WAKEUPI) && USB_INT_IsEnabled(USB_INT_WAKEUPI))
    1e98:	84 ff       	sbrs	r24, 4
    1e9a:	2f c0       	rjmp	.+94     	; 0x1efa <__vector_10+0x122>
					case USB_INT_IDTI:
						return (USBCON & (1 << IDTE));
					#endif
					#if defined(USB_CAN_BE_DEVICE)
					case USB_INT_WAKEUPI:
						return (UDIEN  & (1 << WAKEUPE));
    1e9c:	80 91 e2 00 	lds	r24, 0x00E2	; 0x8000e2 <__TEXT_REGION_LENGTH__+0x7e00e2>
    1ea0:	84 ff       	sbrs	r24, 4
    1ea2:	2b c0       	rjmp	.+86     	; 0x1efa <__vector_10+0x122>

		/* Inline Functions: */
			static inline void USB_PLL_On(void) ATTR_ALWAYS_INLINE;
			static inline void USB_PLL_On(void)
			{
				PLLCSR = USB_PLL_PSC;
    1ea4:	80 e1       	ldi	r24, 0x10	; 16
    1ea6:	89 bd       	out	0x29, r24	; 41
				PLLCSR = (USB_PLL_PSC | (1 << PLLE));
    1ea8:	82 e1       	ldi	r24, 0x12	; 18
    1eaa:	89 bd       	out	0x29, r24	; 41
	{
		if (!(USB_Options & USB_OPT_MANUAL_PLL))
		{
			USB_PLL_On();
			while (!(USB_PLL_IsReady()));
    1eac:	09 b4       	in	r0, 0x29	; 41
    1eae:	00 fe       	sbrs	r0, 0
    1eb0:	fd cf       	rjmp	.-6      	; 0x1eac <__vector_10+0xd4>
			}

			static inline void USB_CLK_Unfreeze(void) ATTR_ALWAYS_INLINE;
			static inline void USB_CLK_Unfreeze(void)
			{
				USBCON &= ~(1 << FRZCLK);
    1eb2:	80 91 d8 00 	lds	r24, 0x00D8	; 0x8000d8 <__TEXT_REGION_LENGTH__+0x7e00d8>
    1eb6:	8f 7d       	andi	r24, 0xDF	; 223
    1eb8:	80 93 d8 00 	sts	0x00D8, r24	; 0x8000d8 <__TEXT_REGION_LENGTH__+0x7e00d8>
						USBINT &= ~(1 << IDTI);
						break;
					#endif
					#if defined(USB_CAN_BE_DEVICE)
					case USB_INT_WAKEUPI:
						UDINT  &= ~(1 << WAKEUPI);
    1ebc:	80 91 e1 00 	lds	r24, 0x00E1	; 0x8000e1 <__TEXT_REGION_LENGTH__+0x7e00e1>
    1ec0:	8f 7e       	andi	r24, 0xEF	; 239
    1ec2:	80 93 e1 00 	sts	0x00E1, r24	; 0x8000e1 <__TEXT_REGION_LENGTH__+0x7e00e1>
						USBCON &= ~(1 << IDTE);
						break;
					#endif
					#if defined(USB_CAN_BE_DEVICE)
					case USB_INT_WAKEUPI:
						UDIEN  &= ~(1 << WAKEUPE);
    1ec6:	80 91 e2 00 	lds	r24, 0x00E2	; 0x8000e2 <__TEXT_REGION_LENGTH__+0x7e00e2>
    1eca:	8f 7e       	andi	r24, 0xEF	; 239
    1ecc:	80 93 e2 00 	sts	0x00E2, r24	; 0x8000e2 <__TEXT_REGION_LENGTH__+0x7e00e2>
					#if defined(USB_CAN_BE_DEVICE)
					case USB_INT_WAKEUPI:
						UDIEN  |= (1 << WAKEUPE);
						break;
					case USB_INT_SUSPI:
						UDIEN  |= (1 << SUSPE);
    1ed0:	80 91 e2 00 	lds	r24, 0x00E2	; 0x8000e2 <__TEXT_REGION_LENGTH__+0x7e00e2>
    1ed4:	81 60       	ori	r24, 0x01	; 1
    1ed6:	80 93 e2 00 	sts	0x00E2, r24	; 0x8000e2 <__TEXT_REGION_LENGTH__+0x7e00e2>
		USB_INT_Clear(USB_INT_WAKEUPI);

		USB_INT_Disable(USB_INT_WAKEUPI);
		USB_INT_Enable(USB_INT_SUSPI);

		if (USB_Device_ConfigurationNumber)
    1eda:	80 91 e0 01 	lds	r24, 0x01E0	; 0x8001e0 <USB_Device_ConfigurationNumber>
    1ede:	88 23       	and	r24, r24
    1ee0:	11 f0       	breq	.+4      	; 0x1ee6 <__vector_10+0x10e>
		  USB_DeviceState = DEVICE_STATE_Configured;
    1ee2:	84 e0       	ldi	r24, 0x04	; 4
    1ee4:	07 c0       	rjmp	.+14     	; 0x1ef4 <__vector_10+0x11c>
			}

			static inline bool USB_Device_IsAddressSet(void) ATTR_ALWAYS_INLINE ATTR_WARN_UNUSED_RESULT;
			static inline bool USB_Device_IsAddressSet(void)
			{
				return (UDADDR & (1 << ADDEN));
    1ee6:	80 91 e3 00 	lds	r24, 0x00E3	; 0x8000e3 <__TEXT_REGION_LENGTH__+0x7e00e3>
		else
		  USB_DeviceState = (USB_Device_IsAddressSet()) ? DEVICE_STATE_Addressed : DEVICE_STATE_Powered;
    1eea:	87 fd       	sbrc	r24, 7
    1eec:	02 c0       	rjmp	.+4      	; 0x1ef2 <__vector_10+0x11a>
    1eee:	81 e0       	ldi	r24, 0x01	; 1
    1ef0:	01 c0       	rjmp	.+2      	; 0x1ef4 <__vector_10+0x11c>
    1ef2:	83 e0       	ldi	r24, 0x03	; 3
    1ef4:	80 93 e4 01 	sts	0x01E4, r24	; 0x8001e4 <USB_DeviceState>

		#if defined(USB_SERIES_2_AVR) && !defined(NO_LIMITED_CONTROLLER_CONNECT)
		EVENT_USB_Device_Connect();
		#else
		EVENT_USB_Device_WakeUp();
    1ef8:	b6 d1       	rcall	.+876    	; 0x2266 <USB_Event_Stub>
					case USB_INT_WAKEUPI:
						return (UDINT  & (1 << WAKEUPI));
					case USB_INT_SUSPI:
						return (UDINT  & (1 << SUSPI));
					case USB_INT_EORSTI:
						return (UDINT  & (1 << EORSTI));
    1efa:	80 91 e1 00 	lds	r24, 0x00E1	; 0x8000e1 <__TEXT_REGION_LENGTH__+0x7e00e1>
		#endif
	}

	if (USB_INT_HasOccurred(USB_INT_EORSTI) && USB_INT_IsEnabled(USB_INT_EORSTI))
    1efe:	83 ff       	sbrs	r24, 3
    1f00:	27 c0       	rjmp	.+78     	; 0x1f50 <__vector_10+0x178>
					case USB_INT_WAKEUPI:
						return (UDIEN  & (1 << WAKEUPE));
					case USB_INT_SUSPI:
						return (UDIEN  & (1 << SUSPE));
					case USB_INT_EORSTI:
						return (UDIEN  & (1 << EORSTE));
    1f02:	80 91 e2 00 	lds	r24, 0x00E2	; 0x8000e2 <__TEXT_REGION_LENGTH__+0x7e00e2>
    1f06:	83 ff       	sbrs	r24, 3
    1f08:	23 c0       	rjmp	.+70     	; 0x1f50 <__vector_10+0x178>
						break;
					case USB_INT_SUSPI:
						UDINT  &= ~(1 << SUSPI);
						break;
					case USB_INT_EORSTI:
						UDINT  &= ~(1 << EORSTI);
    1f0a:	80 91 e1 00 	lds	r24, 0x00E1	; 0x8000e1 <__TEXT_REGION_LENGTH__+0x7e00e1>
    1f0e:	87 7f       	andi	r24, 0xF7	; 247
    1f10:	80 93 e1 00 	sts	0x00E1, r24	; 0x8000e1 <__TEXT_REGION_LENGTH__+0x7e00e1>
	{
		USB_INT_Clear(USB_INT_EORSTI);

		USB_DeviceState                = DEVICE_STATE_Default;
    1f14:	82 e0       	ldi	r24, 0x02	; 2
    1f16:	80 93 e4 01 	sts	0x01E4, r24	; 0x8001e4 <USB_DeviceState>
		USB_Device_ConfigurationNumber = 0;
    1f1a:	10 92 e0 01 	sts	0x01E0, r1	; 0x8001e0 <USB_Device_ConfigurationNumber>
					#if defined(USB_CAN_BE_DEVICE)
					case USB_INT_WAKEUPI:
						UDINT  &= ~(1 << WAKEUPI);
						break;
					case USB_INT_SUSPI:
						UDINT  &= ~(1 << SUSPI);
    1f1e:	80 91 e1 00 	lds	r24, 0x00E1	; 0x8000e1 <__TEXT_REGION_LENGTH__+0x7e00e1>
    1f22:	8e 7f       	andi	r24, 0xFE	; 254
    1f24:	80 93 e1 00 	sts	0x00E1, r24	; 0x8000e1 <__TEXT_REGION_LENGTH__+0x7e00e1>
					#if defined(USB_CAN_BE_DEVICE)
					case USB_INT_WAKEUPI:
						UDIEN  &= ~(1 << WAKEUPE);
						break;
					case USB_INT_SUSPI:
						UDIEN  &= ~(1 << SUSPE);
    1f28:	80 91 e2 00 	lds	r24, 0x00E2	; 0x8000e2 <__TEXT_REGION_LENGTH__+0x7e00e2>
    1f2c:	8e 7f       	andi	r24, 0xFE	; 254
    1f2e:	80 93 e2 00 	sts	0x00E2, r24	; 0x8000e2 <__TEXT_REGION_LENGTH__+0x7e00e2>
						USBCON |= (1 << IDTE);
						break;
					#endif
					#if defined(USB_CAN_BE_DEVICE)
					case USB_INT_WAKEUPI:
						UDIEN  |= (1 << WAKEUPE);
    1f32:	80 91 e2 00 	lds	r24, 0x00E2	; 0x8000e2 <__TEXT_REGION_LENGTH__+0x7e00e2>
    1f36:	80 61       	ori	r24, 0x10	; 16
    1f38:	80 93 e2 00 	sts	0x00E2, r24	; 0x8000e2 <__TEXT_REGION_LENGTH__+0x7e00e2>
				uint8_t Number = (Address & ENDPOINT_EPNUM_MASK);

				if (Number >= ENDPOINT_TOTAL_ENDPOINTS)
				  return false;

				return Endpoint_ConfigureEndpoint_Prv(Number,
    1f3c:	42 e0       	ldi	r20, 0x02	; 2
    1f3e:	60 e0       	ldi	r22, 0x00	; 0
    1f40:	80 e0       	ldi	r24, 0x00	; 0
    1f42:	4e de       	rcall	.-868    	; 0x1be0 <Endpoint_ConfigureEndpoint_Prv>
						break;
					case USB_INT_SOFI:
						UDIEN  |= (1 << SOFE);
						break;
					case USB_INT_RXSTPI:
						UEIENX |= (1 << RXSTPE);
    1f44:	80 91 f0 00 	lds	r24, 0x00F0	; 0x8000f0 <__TEXT_REGION_LENGTH__+0x7e00f0>
    1f48:	88 60       	ori	r24, 0x08	; 8
    1f4a:	80 93 f0 00 	sts	0x00F0, r24	; 0x8000f0 <__TEXT_REGION_LENGTH__+0x7e00f0>

		#if defined(INTERRUPT_CONTROL_ENDPOINT)
		USB_INT_Enable(USB_INT_RXSTPI);
		#endif

		EVENT_USB_Device_Reset();
    1f4e:	8b d1       	rcall	.+790    	; 0x2266 <USB_Event_Stub>
		USB_ResetInterface();

		EVENT_USB_UIDChange();
	}
	#endif
}
    1f50:	ff 91       	pop	r31
    1f52:	ef 91       	pop	r30
    1f54:	bf 91       	pop	r27
    1f56:	af 91       	pop	r26
    1f58:	9f 91       	pop	r25
    1f5a:	8f 91       	pop	r24
    1f5c:	7f 91       	pop	r23
    1f5e:	6f 91       	pop	r22
    1f60:	5f 91       	pop	r21
    1f62:	4f 91       	pop	r20
    1f64:	3f 91       	pop	r19
    1f66:	2f 91       	pop	r18
    1f68:	0f 90       	pop	r0
    1f6a:	0f be       	out	0x3f, r0	; 63
    1f6c:	0f 90       	pop	r0
    1f6e:	1f 90       	pop	r1
    1f70:	18 95       	reti

00001f72 <__vector_11>:

#if defined(INTERRUPT_CONTROL_ENDPOINT) && defined(USB_CAN_BE_DEVICE)
ISR(USB_COM_vect, ISR_BLOCK)
{
    1f72:	1f 92       	push	r1
    1f74:	0f 92       	push	r0
    1f76:	0f b6       	in	r0, 0x3f	; 63
    1f78:	0f 92       	push	r0
    1f7a:	11 24       	eor	r1, r1
    1f7c:	2f 93       	push	r18
    1f7e:	3f 93       	push	r19
    1f80:	4f 93       	push	r20
    1f82:	5f 93       	push	r21
    1f84:	6f 93       	push	r22
    1f86:	7f 93       	push	r23
    1f88:	8f 93       	push	r24
    1f8a:	9f 93       	push	r25
    1f8c:	af 93       	push	r26
    1f8e:	bf 93       	push	r27
    1f90:	cf 93       	push	r28
    1f92:	df 93       	push	r29
    1f94:	ef 93       	push	r30
    1f96:	ff 93       	push	r31
			 */
			static inline uint8_t Endpoint_GetCurrentEndpoint(void) ATTR_WARN_UNUSED_RESULT ATTR_ALWAYS_INLINE;
			static inline uint8_t Endpoint_GetCurrentEndpoint(void)
			{
				#if !defined(CONTROL_ONLY_DEVICE)
					return ((UENUM & ENDPOINT_EPNUM_MASK) | Endpoint_GetEndpointDirection());
    1f98:	c0 91 e9 00 	lds	r28, 0x00E9	; 0x8000e9 <__TEXT_REGION_LENGTH__+0x7e00e9>
    1f9c:	cf 70       	andi	r28, 0x0F	; 15
			 *  \return The currently selected endpoint's direction, as a \c ENDPOINT_DIR_* mask.
			 */
			static inline uint8_t Endpoint_GetEndpointDirection(void) ATTR_WARN_UNUSED_RESULT ATTR_ALWAYS_INLINE;
			static inline uint8_t Endpoint_GetEndpointDirection(void)
			{
				return (UECFG0X & (1 << EPDIR)) ? ENDPOINT_DIR_IN : ENDPOINT_DIR_OUT;
    1f9e:	80 91 ec 00 	lds	r24, 0x00EC	; 0x8000ec <__TEXT_REGION_LENGTH__+0x7e00ec>
    1fa2:	d8 2f       	mov	r29, r24
    1fa4:	d1 70       	andi	r29, 0x01	; 1
    1fa6:	80 fd       	sbrc	r24, 0
    1fa8:	d0 e8       	ldi	r29, 0x80	; 128
			 */
			static inline void Endpoint_SelectEndpoint(const uint8_t Address) ATTR_ALWAYS_INLINE;
			static inline void Endpoint_SelectEndpoint(const uint8_t Address)
			{
				#if !defined(CONTROL_ONLY_DEVICE)
					UENUM = (Address & ENDPOINT_EPNUM_MASK);
    1faa:	10 92 e9 00 	sts	0x00E9, r1	; 0x8000e9 <__TEXT_REGION_LENGTH__+0x7e00e9>
						break;
					case USB_INT_SOFI:
						UDIEN  &= ~(1 << SOFE);
						break;
					case USB_INT_RXSTPI:
						UEIENX &= ~(1 << RXSTPE);
    1fae:	80 91 f0 00 	lds	r24, 0x00F0	; 0x8000f0 <__TEXT_REGION_LENGTH__+0x7e00f0>
    1fb2:	87 7f       	andi	r24, 0xF7	; 247
    1fb4:	80 93 f0 00 	sts	0x00F0, r24	; 0x8000f0 <__TEXT_REGION_LENGTH__+0x7e00f0>
			static inline void GlobalInterruptEnable(void)
			{
				GCC_MEMORY_BARRIER();

				#if (ARCH == ARCH_AVR8)
				sei();
    1fb8:	78 94       	sei
	Endpoint_SelectEndpoint(ENDPOINT_CONTROLEP);
	USB_INT_Disable(USB_INT_RXSTPI);

	GlobalInterruptEnable();

	USB_Device_ProcessControlRequest();
    1fba:	1e d0       	rcall	.+60     	; 0x1ff8 <USB_Device_ProcessControlRequest>
    1fbc:	10 92 e9 00 	sts	0x00E9, r1	; 0x8000e9 <__TEXT_REGION_LENGTH__+0x7e00e9>
						break;
					case USB_INT_SOFI:
						UDIEN  |= (1 << SOFE);
						break;
					case USB_INT_RXSTPI:
						UEIENX |= (1 << RXSTPE);
    1fc0:	80 91 f0 00 	lds	r24, 0x00F0	; 0x8000f0 <__TEXT_REGION_LENGTH__+0x7e00f0>
    1fc4:	88 60       	ori	r24, 0x08	; 8
    1fc6:	80 93 f0 00 	sts	0x00F0, r24	; 0x8000f0 <__TEXT_REGION_LENGTH__+0x7e00f0>
    1fca:	cd 2b       	or	r28, r29
    1fcc:	cf 70       	andi	r28, 0x0F	; 15
    1fce:	c0 93 e9 00 	sts	0x00E9, r28	; 0x8000e9 <__TEXT_REGION_LENGTH__+0x7e00e9>

	Endpoint_SelectEndpoint(ENDPOINT_CONTROLEP);
	USB_INT_Enable(USB_INT_RXSTPI);
	Endpoint_SelectEndpoint(PrevSelectedEndpoint);
}
    1fd2:	ff 91       	pop	r31
    1fd4:	ef 91       	pop	r30
    1fd6:	df 91       	pop	r29
    1fd8:	cf 91       	pop	r28
    1fda:	bf 91       	pop	r27
    1fdc:	af 91       	pop	r26
    1fde:	9f 91       	pop	r25
    1fe0:	8f 91       	pop	r24
    1fe2:	7f 91       	pop	r23
    1fe4:	6f 91       	pop	r22
    1fe6:	5f 91       	pop	r21
    1fe8:	4f 91       	pop	r20
    1fea:	3f 91       	pop	r19
    1fec:	2f 91       	pop	r18
    1fee:	0f 90       	pop	r0
    1ff0:	0f be       	out	0x3f, r0	; 63
    1ff2:	0f 90       	pop	r0
    1ff4:	1f 90       	pop	r1
    1ff6:	18 95       	reti

00001ff8 <USB_Device_ProcessControlRequest>:
#if !defined(NO_DEVICE_REMOTE_WAKEUP)
bool    USB_Device_RemoteWakeupEnabled;
#endif

void USB_Device_ProcessControlRequest(void)
{
    1ff8:	1f 93       	push	r17
    1ffa:	cf 93       	push	r28
    1ffc:	df 93       	push	r29
    1ffe:	00 d0       	rcall	.+0      	; 0x2000 <USB_Device_ProcessControlRequest+0x8>
    2000:	1f 92       	push	r1
    2002:	cd b7       	in	r28, 0x3d	; 61
    2004:	de b7       	in	r29, 0x3e	; 62
    2006:	e5 ee       	ldi	r30, 0xE5	; 229
    2008:	f1 e0       	ldi	r31, 0x01	; 1
    200a:	8d ee       	ldi	r24, 0xED	; 237
    200c:	91 e0       	ldi	r25, 0x01	; 1
			 *  \return Next byte in the currently selected endpoint's FIFO buffer.
			 */
			static inline uint8_t Endpoint_Read_8(void) ATTR_WARN_UNUSED_RESULT ATTR_ALWAYS_INLINE;
			static inline uint8_t Endpoint_Read_8(void)
			{
				return UEDATX;
    200e:	20 91 f1 00 	lds	r18, 0x00F1	; 0x8000f1 <__TEXT_REGION_LENGTH__+0x7e00f1>
	USB_ControlRequest.wLength       = Endpoint_Read_16_LE();
	#else
	uint8_t* RequestHeader = (uint8_t*)&USB_ControlRequest;

	for (uint8_t RequestHeaderByte = 0; RequestHeaderByte < sizeof(USB_Request_Header_t); RequestHeaderByte++)
	  *(RequestHeader++) = Endpoint_Read_8();
    2012:	21 93       	st	Z+, r18
	USB_ControlRequest.wIndex        = Endpoint_Read_16_LE();
	USB_ControlRequest.wLength       = Endpoint_Read_16_LE();
	#else
	uint8_t* RequestHeader = (uint8_t*)&USB_ControlRequest;

	for (uint8_t RequestHeaderByte = 0; RequestHeaderByte < sizeof(USB_Request_Header_t); RequestHeaderByte++)
    2014:	8e 17       	cp	r24, r30
    2016:	9f 07       	cpc	r25, r31
    2018:	d1 f7       	brne	.-12     	; 0x200e <USB_Device_ProcessControlRequest+0x16>
	  *(RequestHeader++) = Endpoint_Read_8();
	#endif

	EVENT_USB_Device_ControlRequest();
    201a:	0e 94 f9 03 	call	0x7f2	; 0x7f2 <EVENT_USB_Device_ControlRequest>
			 *  \return Boolean \c true if the selected endpoint has received a SETUP packet, \c false otherwise.
			 */
			static inline bool Endpoint_IsSETUPReceived(void) ATTR_WARN_UNUSED_RESULT ATTR_ALWAYS_INLINE;
			static inline bool Endpoint_IsSETUPReceived(void)
			{
				return ((UEINTX & (1 << RXSTPI)) ? true : false);
    201e:	80 91 e8 00 	lds	r24, 0x00E8	; 0x8000e8 <__TEXT_REGION_LENGTH__+0x7e00e8>

	if (Endpoint_IsSETUPReceived())
    2022:	83 ff       	sbrs	r24, 3
    2024:	0b c1       	rjmp	.+534    	; 0x223c <USB_Device_ProcessControlRequest+0x244>
	{
		uint8_t bmRequestType = USB_ControlRequest.bmRequestType;
    2026:	80 91 e5 01 	lds	r24, 0x01E5	; 0x8001e5 <USB_ControlRequest>

		switch (USB_ControlRequest.bRequest)
    202a:	90 91 e6 01 	lds	r25, 0x01E6	; 0x8001e6 <USB_ControlRequest+0x1>
    202e:	95 30       	cpi	r25, 0x05	; 5
    2030:	09 f4       	brne	.+2      	; 0x2034 <USB_Device_ProcessControlRequest+0x3c>
    2032:	83 c0       	rjmp	.+262    	; 0x213a <USB_Device_ProcessControlRequest+0x142>
    2034:	30 f4       	brcc	.+12     	; 0x2042 <USB_Device_ProcessControlRequest+0x4a>
    2036:	91 30       	cpi	r25, 0x01	; 1
    2038:	a9 f1       	breq	.+106    	; 0x20a4 <USB_Device_ProcessControlRequest+0xac>
    203a:	68 f0       	brcs	.+26     	; 0x2056 <USB_Device_ProcessControlRequest+0x5e>
    203c:	93 30       	cpi	r25, 0x03	; 3
    203e:	91 f1       	breq	.+100    	; 0x20a4 <USB_Device_ProcessControlRequest+0xac>
    2040:	fd c0       	rjmp	.+506    	; 0x223c <USB_Device_ProcessControlRequest+0x244>
    2042:	98 30       	cpi	r25, 0x08	; 8
    2044:	09 f4       	brne	.+2      	; 0x2048 <USB_Device_ProcessControlRequest+0x50>
    2046:	c9 c0       	rjmp	.+402    	; 0x21da <USB_Device_ProcessControlRequest+0x1e2>
    2048:	99 30       	cpi	r25, 0x09	; 9
    204a:	09 f4       	brne	.+2      	; 0x204e <USB_Device_ProcessControlRequest+0x56>
    204c:	d5 c0       	rjmp	.+426    	; 0x21f8 <USB_Device_ProcessControlRequest+0x200>
    204e:	96 30       	cpi	r25, 0x06	; 6
    2050:	09 f0       	breq	.+2      	; 0x2054 <USB_Device_ProcessControlRequest+0x5c>
    2052:	f4 c0       	rjmp	.+488    	; 0x223c <USB_Device_ProcessControlRequest+0x244>
    2054:	94 c0       	rjmp	.+296    	; 0x217e <USB_Device_ProcessControlRequest+0x186>
		{
			case REQ_GetStatus:
				if ((bmRequestType == (REQDIR_DEVICETOHOST | REQTYPE_STANDARD | REQREC_DEVICE)) ||
    2056:	80 38       	cpi	r24, 0x80	; 128
    2058:	21 f0       	breq	.+8      	; 0x2062 <USB_Device_ProcessControlRequest+0x6a>
    205a:	82 38       	cpi	r24, 0x82	; 130
    205c:	09 f0       	breq	.+2      	; 0x2060 <USB_Device_ProcessControlRequest+0x68>
    205e:	ee c0       	rjmp	.+476    	; 0x223c <USB_Device_ProcessControlRequest+0x244>
    2060:	08 c0       	rjmp	.+16     	; 0x2072 <USB_Device_ProcessControlRequest+0x7a>
	Endpoint_ClearOUT();
}

static void USB_Device_GetStatus(void)
{
	uint8_t CurrentStatus = 0;
    2062:	80 91 e1 01 	lds	r24, 0x01E1	; 0x8001e1 <USB_Device_CurrentlySelfPowered>
			if (USB_Device_CurrentlySelfPowered)
			  CurrentStatus |= FEATURE_SELFPOWERED_ENABLED;
			#endif

			#if !defined(NO_DEVICE_REMOTE_WAKEUP)
			if (USB_Device_RemoteWakeupEnabled)
    2066:	90 91 e2 01 	lds	r25, 0x01E2	; 0x8001e2 <USB_Device_RemoteWakeupEnabled>
    206a:	99 23       	and	r25, r25
    206c:	89 f0       	breq	.+34     	; 0x2090 <USB_Device_ProcessControlRequest+0x98>
			  CurrentStatus |= FEATURE_REMOTE_WAKEUP_ENABLED;
    206e:	82 60       	ori	r24, 0x02	; 2
    2070:	0f c0       	rjmp	.+30     	; 0x2090 <USB_Device_ProcessControlRequest+0x98>
			break;
		}
		case (REQDIR_DEVICETOHOST | REQTYPE_STANDARD | REQREC_ENDPOINT):
		{
			#if !defined(CONTROL_ONLY_DEVICE)
			uint8_t EndpointIndex = ((uint8_t)USB_ControlRequest.wIndex & ENDPOINT_EPNUM_MASK);
    2072:	80 91 e9 01 	lds	r24, 0x01E9	; 0x8001e9 <USB_ControlRequest+0x4>
    2076:	8f 70       	andi	r24, 0x0F	; 15

			if (EndpointIndex >= ENDPOINT_TOTAL_ENDPOINTS)
    2078:	87 30       	cpi	r24, 0x07	; 7
    207a:	08 f0       	brcs	.+2      	; 0x207e <USB_Device_ProcessControlRequest+0x86>
    207c:	df c0       	rjmp	.+446    	; 0x223c <USB_Device_ProcessControlRequest+0x244>
			 */
			static inline void Endpoint_SelectEndpoint(const uint8_t Address) ATTR_ALWAYS_INLINE;
			static inline void Endpoint_SelectEndpoint(const uint8_t Address)
			{
				#if !defined(CONTROL_ONLY_DEVICE)
					UENUM = (Address & ENDPOINT_EPNUM_MASK);
    207e:	80 93 e9 00 	sts	0x00E9, r24	; 0x8000e9 <__TEXT_REGION_LENGTH__+0x7e00e9>
			 *  \return Boolean \c true if the currently selected endpoint is stalled, \c false otherwise.
			 */
			static inline bool Endpoint_IsStalled(void) ATTR_WARN_UNUSED_RESULT ATTR_ALWAYS_INLINE;
			static inline bool Endpoint_IsStalled(void)
			{
				return ((UECONX & (1 << STALLRQ)) ? true : false);
    2082:	80 91 eb 00 	lds	r24, 0x00EB	; 0x8000eb <__TEXT_REGION_LENGTH__+0x7e00eb>
				return;

			Endpoint_SelectEndpoint(EndpointIndex);

			CurrentStatus = Endpoint_IsStalled();
    2086:	85 fb       	bst	r24, 5
    2088:	88 27       	eor	r24, r24
    208a:	80 f9       	bld	r24, 0
			 */
			static inline void Endpoint_SelectEndpoint(const uint8_t Address) ATTR_ALWAYS_INLINE;
			static inline void Endpoint_SelectEndpoint(const uint8_t Address)
			{
				#if !defined(CONTROL_ONLY_DEVICE)
					UENUM = (Address & ENDPOINT_EPNUM_MASK);
    208c:	10 92 e9 00 	sts	0x00E9, r1	; 0x8000e9 <__TEXT_REGION_LENGTH__+0x7e00e9>
			 *  \note This is not applicable for non CONTROL type endpoints.
			 */
			static inline void Endpoint_ClearSETUP(void) ATTR_ALWAYS_INLINE;
			static inline void Endpoint_ClearSETUP(void)
			{
				UEINTX &= ~(1 << RXSTPI);
    2090:	90 91 e8 00 	lds	r25, 0x00E8	; 0x8000e8 <__TEXT_REGION_LENGTH__+0x7e00e8>
    2094:	97 7f       	andi	r25, 0xF7	; 247
    2096:	90 93 e8 00 	sts	0x00E8, r25	; 0x8000e8 <__TEXT_REGION_LENGTH__+0x7e00e8>
			 *  \param[in] Data  Data to write to the currently selected endpoint's FIFO buffer.
			 */
			static inline void Endpoint_Write_16_LE(const uint16_t Data) ATTR_ALWAYS_INLINE;
			static inline void Endpoint_Write_16_LE(const uint16_t Data)
			{
				UEDATX = (Data & 0xFF);
    209a:	80 93 f1 00 	sts	0x00F1, r24	; 0x8000f1 <__TEXT_REGION_LENGTH__+0x7e00f1>
				UEDATX = (Data >> 8);
    209e:	10 92 f1 00 	sts	0x00F1, r1	; 0x8000f1 <__TEXT_REGION_LENGTH__+0x7e00f1>
    20a2:	a6 c0       	rjmp	.+332    	; 0x21f0 <USB_Device_ProcessControlRequest+0x1f8>
				}

				break;
			case REQ_ClearFeature:
			case REQ_SetFeature:
				if ((bmRequestType == (REQDIR_HOSTTODEVICE | REQTYPE_STANDARD | REQREC_DEVICE)) ||
    20a4:	28 2f       	mov	r18, r24
    20a6:	2d 7f       	andi	r18, 0xFD	; 253
    20a8:	09 f0       	breq	.+2      	; 0x20ac <USB_Device_ProcessControlRequest+0xb4>
    20aa:	c8 c0       	rjmp	.+400    	; 0x223c <USB_Device_ProcessControlRequest+0x244>
	Endpoint_ClearStatusStage();
}

static void USB_Device_ClearSetFeature(void)
{
	switch (USB_ControlRequest.bmRequestType & CONTROL_REQTYPE_RECIPIENT)
    20ac:	88 23       	and	r24, r24
    20ae:	19 f0       	breq	.+6      	; 0x20b6 <USB_Device_ProcessControlRequest+0xbe>
    20b0:	82 30       	cpi	r24, 0x02	; 2
    20b2:	61 f0       	breq	.+24     	; 0x20cc <USB_Device_ProcessControlRequest+0xd4>
    20b4:	c3 c0       	rjmp	.+390    	; 0x223c <USB_Device_ProcessControlRequest+0x244>
	{
		#if !defined(NO_DEVICE_REMOTE_WAKEUP)
		case REQREC_DEVICE:
		{
			if ((uint8_t)USB_ControlRequest.wValue == FEATURE_SEL_DeviceRemoteWakeup)
    20b6:	80 91 e7 01 	lds	r24, 0x01E7	; 0x8001e7 <USB_ControlRequest+0x2>
    20ba:	81 30       	cpi	r24, 0x01	; 1
    20bc:	09 f0       	breq	.+2      	; 0x20c0 <USB_Device_ProcessControlRequest+0xc8>
    20be:	be c0       	rjmp	.+380    	; 0x223c <USB_Device_ProcessControlRequest+0x244>
			  USB_Device_RemoteWakeupEnabled = (USB_ControlRequest.bRequest == REQ_SetFeature);
    20c0:	93 30       	cpi	r25, 0x03	; 3
    20c2:	09 f0       	breq	.+2      	; 0x20c6 <USB_Device_ProcessControlRequest+0xce>
    20c4:	80 e0       	ldi	r24, 0x00	; 0
    20c6:	80 93 e2 01 	sts	0x01E2, r24	; 0x8001e2 <USB_Device_RemoteWakeupEnabled>
    20ca:	2e c0       	rjmp	.+92     	; 0x2128 <USB_Device_ProcessControlRequest+0x130>
		}
		#endif
		#if !defined(CONTROL_ONLY_DEVICE)
		case REQREC_ENDPOINT:
		{
			if ((uint8_t)USB_ControlRequest.wValue == FEATURE_SEL_EndpointHalt)
    20cc:	80 91 e7 01 	lds	r24, 0x01E7	; 0x8001e7 <USB_ControlRequest+0x2>
    20d0:	81 11       	cpse	r24, r1
    20d2:	2a c0       	rjmp	.+84     	; 0x2128 <USB_Device_ProcessControlRequest+0x130>
			{
				uint8_t EndpointIndex = ((uint8_t)USB_ControlRequest.wIndex & ENDPOINT_EPNUM_MASK);
    20d4:	80 91 e9 01 	lds	r24, 0x01E9	; 0x8001e9 <USB_ControlRequest+0x4>
    20d8:	8f 70       	andi	r24, 0x0F	; 15

				if (EndpointIndex == ENDPOINT_CONTROLEP || EndpointIndex >= ENDPOINT_TOTAL_ENDPOINTS)
    20da:	2f ef       	ldi	r18, 0xFF	; 255
    20dc:	28 0f       	add	r18, r24
    20de:	26 30       	cpi	r18, 0x06	; 6
    20e0:	08 f0       	brcs	.+2      	; 0x20e4 <USB_Device_ProcessControlRequest+0xec>
    20e2:	ac c0       	rjmp	.+344    	; 0x223c <USB_Device_ProcessControlRequest+0x244>
			 */
			static inline void Endpoint_SelectEndpoint(const uint8_t Address) ATTR_ALWAYS_INLINE;
			static inline void Endpoint_SelectEndpoint(const uint8_t Address)
			{
				#if !defined(CONTROL_ONLY_DEVICE)
					UENUM = (Address & ENDPOINT_EPNUM_MASK);
    20e4:	80 93 e9 00 	sts	0x00E9, r24	; 0x8000e9 <__TEXT_REGION_LENGTH__+0x7e00e9>
			 * \return Boolean \c true if the currently selected endpoint is enabled, \c false otherwise.
			 */
			static inline bool Endpoint_IsEnabled(void) ATTR_WARN_UNUSED_RESULT ATTR_ALWAYS_INLINE;
			static inline bool Endpoint_IsEnabled(void)
			{
				return ((UECONX & (1 << EPEN)) ? true : false);
    20e8:	20 91 eb 00 	lds	r18, 0x00EB	; 0x8000eb <__TEXT_REGION_LENGTH__+0x7e00eb>
				  return;

				Endpoint_SelectEndpoint(EndpointIndex);

				if (Endpoint_IsEnabled())
    20ec:	20 ff       	sbrs	r18, 0
    20ee:	1c c0       	rjmp	.+56     	; 0x2128 <USB_Device_ProcessControlRequest+0x130>
				{
					if (USB_ControlRequest.bRequest == REQ_SetFeature)
    20f0:	93 30       	cpi	r25, 0x03	; 3
    20f2:	21 f4       	brne	.+8      	; 0x20fc <USB_Device_ProcessControlRequest+0x104>
			 *  \ingroup Group_EndpointPacketManagement_AVR8
			 */
			static inline void Endpoint_StallTransaction(void) ATTR_ALWAYS_INLINE;
			static inline void Endpoint_StallTransaction(void)
			{
				UECONX |= (1 << STALLRQ);
    20f4:	80 91 eb 00 	lds	r24, 0x00EB	; 0x8000eb <__TEXT_REGION_LENGTH__+0x7e00eb>
    20f8:	80 62       	ori	r24, 0x20	; 32
    20fa:	14 c0       	rjmp	.+40     	; 0x2124 <USB_Device_ProcessControlRequest+0x12c>
			 *  \ingroup Group_EndpointPacketManagement_AVR8
			 */
			static inline void Endpoint_ClearStall(void) ATTR_ALWAYS_INLINE;
			static inline void Endpoint_ClearStall(void)
			{
				UECONX |= (1 << STALLRQC);
    20fc:	90 91 eb 00 	lds	r25, 0x00EB	; 0x8000eb <__TEXT_REGION_LENGTH__+0x7e00eb>
    2100:	90 61       	ori	r25, 0x10	; 16
    2102:	90 93 eb 00 	sts	0x00EB, r25	; 0x8000eb <__TEXT_REGION_LENGTH__+0x7e00eb>
			 *  \param[in] Address  Endpoint address whose FIFO buffers are to be reset.
			 */
			static inline void Endpoint_ResetEndpoint(const uint8_t Address) ATTR_ALWAYS_INLINE;
			static inline void Endpoint_ResetEndpoint(const uint8_t Address)
			{
				UERST = (1 << (Address & ENDPOINT_EPNUM_MASK));
    2106:	21 e0       	ldi	r18, 0x01	; 1
    2108:	30 e0       	ldi	r19, 0x00	; 0
    210a:	a9 01       	movw	r20, r18
    210c:	02 c0       	rjmp	.+4      	; 0x2112 <USB_Device_ProcessControlRequest+0x11a>
    210e:	44 0f       	add	r20, r20
    2110:	55 1f       	adc	r21, r21
    2112:	8a 95       	dec	r24
    2114:	e2 f7       	brpl	.-8      	; 0x210e <USB_Device_ProcessControlRequest+0x116>
    2116:	40 93 ea 00 	sts	0x00EA, r20	; 0x8000ea <__TEXT_REGION_LENGTH__+0x7e00ea>
				UERST = 0;
    211a:	10 92 ea 00 	sts	0x00EA, r1	; 0x8000ea <__TEXT_REGION_LENGTH__+0x7e00ea>

			/** Resets the data toggle of the currently selected endpoint. */
			static inline void Endpoint_ResetDataToggle(void) ATTR_ALWAYS_INLINE;
			static inline void Endpoint_ResetDataToggle(void)
			{
				UECONX |= (1 << RSTDT);
    211e:	80 91 eb 00 	lds	r24, 0x00EB	; 0x8000eb <__TEXT_REGION_LENGTH__+0x7e00eb>
    2122:	88 60       	ori	r24, 0x08	; 8
    2124:	80 93 eb 00 	sts	0x00EB, r24	; 0x8000eb <__TEXT_REGION_LENGTH__+0x7e00eb>
			 */
			static inline void Endpoint_SelectEndpoint(const uint8_t Address) ATTR_ALWAYS_INLINE;
			static inline void Endpoint_SelectEndpoint(const uint8_t Address)
			{
				#if !defined(CONTROL_ONLY_DEVICE)
					UENUM = (Address & ENDPOINT_EPNUM_MASK);
    2128:	10 92 e9 00 	sts	0x00E9, r1	; 0x8000e9 <__TEXT_REGION_LENGTH__+0x7e00e9>
			 *  \note This is not applicable for non CONTROL type endpoints.
			 */
			static inline void Endpoint_ClearSETUP(void) ATTR_ALWAYS_INLINE;
			static inline void Endpoint_ClearSETUP(void)
			{
				UEINTX &= ~(1 << RXSTPI);
    212c:	80 91 e8 00 	lds	r24, 0x00E8	; 0x8000e8 <__TEXT_REGION_LENGTH__+0x7e00e8>
    2130:	87 7f       	andi	r24, 0xF7	; 247
    2132:	80 93 e8 00 	sts	0x00E8, r24	; 0x8000e8 <__TEXT_REGION_LENGTH__+0x7e00e8>

	Endpoint_SelectEndpoint(ENDPOINT_CONTROLEP);

	Endpoint_ClearSETUP();

	Endpoint_ClearStatusStage();
    2136:	89 dd       	rcall	.-1262   	; 0x1c4a <Endpoint_ClearStatusStage>
    2138:	81 c0       	rjmp	.+258    	; 0x223c <USB_Device_ProcessControlRequest+0x244>
					USB_Device_ClearSetFeature();
				}

				break;
			case REQ_SetAddress:
				if (bmRequestType == (REQDIR_HOSTTODEVICE | REQTYPE_STANDARD | REQREC_DEVICE))
    213a:	81 11       	cpse	r24, r1
    213c:	7f c0       	rjmp	.+254    	; 0x223c <USB_Device_ProcessControlRequest+0x244>
	}
}

static void USB_Device_SetAddress(void)
{
	uint8_t DeviceAddress = (USB_ControlRequest.wValue & 0x7F);
    213e:	10 91 e7 01 	lds	r17, 0x01E7	; 0x8001e7 <USB_ControlRequest+0x2>
    2142:	1f 77       	andi	r17, 0x7F	; 127
			#endif

			static inline void USB_Device_SetDeviceAddress(const uint8_t Address) ATTR_ALWAYS_INLINE;
			static inline void USB_Device_SetDeviceAddress(const uint8_t Address)
			{
				UDADDR = (UDADDR & (1 << ADDEN)) | (Address & 0x7F);
    2144:	80 91 e3 00 	lds	r24, 0x00E3	; 0x8000e3 <__TEXT_REGION_LENGTH__+0x7e00e3>
    2148:	80 78       	andi	r24, 0x80	; 128
    214a:	81 2b       	or	r24, r17
    214c:	80 93 e3 00 	sts	0x00E3, r24	; 0x8000e3 <__TEXT_REGION_LENGTH__+0x7e00e3>
    2150:	80 91 e8 00 	lds	r24, 0x00E8	; 0x8000e8 <__TEXT_REGION_LENGTH__+0x7e00e8>
    2154:	87 7f       	andi	r24, 0xF7	; 247
    2156:	80 93 e8 00 	sts	0x00E8, r24	; 0x8000e8 <__TEXT_REGION_LENGTH__+0x7e00e8>

	USB_Device_SetDeviceAddress(DeviceAddress);

	Endpoint_ClearSETUP();

	Endpoint_ClearStatusStage();
    215a:	77 dd       	rcall	.-1298   	; 0x1c4a <Endpoint_ClearStatusStage>
			 *  \return Boolean \c true if the current endpoint is ready for an IN packet, \c false otherwise.
			 */
			static inline bool Endpoint_IsINReady(void) ATTR_WARN_UNUSED_RESULT ATTR_ALWAYS_INLINE;
			static inline bool Endpoint_IsINReady(void)
			{
				return ((UEINTX & (1 << TXINI)) ? true : false);
    215c:	80 91 e8 00 	lds	r24, 0x00E8	; 0x8000e8 <__TEXT_REGION_LENGTH__+0x7e00e8>

	while (!(Endpoint_IsINReady()));
    2160:	80 ff       	sbrs	r24, 0
    2162:	fc cf       	rjmp	.-8      	; 0x215c <USB_Device_ProcessControlRequest+0x164>
			static inline void USB_Device_EnableDeviceAddress(const uint8_t Address) ATTR_ALWAYS_INLINE;
			static inline void USB_Device_EnableDeviceAddress(const uint8_t Address)
			{
				(void)Address;

				UDADDR |= (1 << ADDEN);
    2164:	80 91 e3 00 	lds	r24, 0x00E3	; 0x8000e3 <__TEXT_REGION_LENGTH__+0x7e00e3>
    2168:	80 68       	ori	r24, 0x80	; 128
    216a:	80 93 e3 00 	sts	0x00E3, r24	; 0x8000e3 <__TEXT_REGION_LENGTH__+0x7e00e3>

	USB_Device_EnableDeviceAddress(DeviceAddress);

	USB_DeviceState = (DeviceAddress) ? DEVICE_STATE_Addressed : DEVICE_STATE_Default;
    216e:	11 11       	cpse	r17, r1
    2170:	02 c0       	rjmp	.+4      	; 0x2176 <USB_Device_ProcessControlRequest+0x17e>
    2172:	82 e0       	ldi	r24, 0x02	; 2
    2174:	01 c0       	rjmp	.+2      	; 0x2178 <USB_Device_ProcessControlRequest+0x180>
    2176:	83 e0       	ldi	r24, 0x03	; 3
    2178:	80 93 e4 01 	sts	0x01E4, r24	; 0x8001e4 <USB_DeviceState>
    217c:	5f c0       	rjmp	.+190    	; 0x223c <USB_Device_ProcessControlRequest+0x244>
				if (bmRequestType == (REQDIR_HOSTTODEVICE | REQTYPE_STANDARD | REQREC_DEVICE))
				  USB_Device_SetAddress();

				break;
			case REQ_GetDescriptor:
				if ((bmRequestType == (REQDIR_DEVICETOHOST | REQTYPE_STANDARD | REQREC_DEVICE)) ||
    217e:	80 58       	subi	r24, 0x80	; 128
    2180:	82 30       	cpi	r24, 0x02	; 2
    2182:	08 f0       	brcs	.+2      	; 0x2186 <USB_Device_ProcessControlRequest+0x18e>
    2184:	5b c0       	rjmp	.+182    	; 0x223c <USB_Device_ProcessControlRequest+0x244>
		USB_Device_GetInternalSerialDescriptor();
		return;
	}
	#endif

	if ((DescriptorSize = CALLBACK_USB_GetDescriptor(USB_ControlRequest.wValue, USB_ControlRequest.wIndex,
    2186:	60 91 e9 01 	lds	r22, 0x01E9	; 0x8001e9 <USB_ControlRequest+0x4>
    218a:	70 91 ea 01 	lds	r23, 0x01EA	; 0x8001ea <USB_ControlRequest+0x5>
    218e:	9e 01       	movw	r18, r28
    2190:	2d 5f       	subi	r18, 0xFD	; 253
    2192:	3f 4f       	sbci	r19, 0xFF	; 255
    2194:	ae 01       	movw	r20, r28
    2196:	4f 5f       	subi	r20, 0xFF	; 255
    2198:	5f 4f       	sbci	r21, 0xFF	; 255
    219a:	80 91 e7 01 	lds	r24, 0x01E7	; 0x8001e7 <USB_ControlRequest+0x2>
    219e:	90 91 e8 01 	lds	r25, 0x01E8	; 0x8001e8 <USB_ControlRequest+0x3>
    21a2:	aa d8       	rcall	.-3756   	; 0x12f8 <CALLBACK_USB_GetDescriptor>
    21a4:	bc 01       	movw	r22, r24
    21a6:	89 2b       	or	r24, r25
    21a8:	09 f4       	brne	.+2      	; 0x21ac <USB_Device_ProcessControlRequest+0x1b4>
    21aa:	48 c0       	rjmp	.+144    	; 0x223c <USB_Device_ProcessControlRequest+0x244>
			 *  \note This is not applicable for non CONTROL type endpoints.
			 */
			static inline void Endpoint_ClearSETUP(void) ATTR_ALWAYS_INLINE;
			static inline void Endpoint_ClearSETUP(void)
			{
				UEINTX &= ~(1 << RXSTPI);
    21ac:	80 91 e8 00 	lds	r24, 0x00E8	; 0x8000e8 <__TEXT_REGION_LENGTH__+0x7e00e8>
    21b0:	87 7f       	andi	r24, 0xF7	; 247
    21b2:	80 93 e8 00 	sts	0x00E8, r24	; 0x8000e8 <__TEXT_REGION_LENGTH__+0x7e00e8>
	#elif defined(USE_EEPROM_DESCRIPTORS)
	Endpoint_Write_Control_EStream_LE(DescriptorPointer, DescriptorSize);
	#elif defined(USE_FLASH_DESCRIPTORS)
	Endpoint_Write_Control_PStream_LE(DescriptorPointer, DescriptorSize);
	#else
	if (DescriptorAddressSpace == MEMSPACE_FLASH)
    21b6:	2b 81       	ldd	r18, Y+3	; 0x03
    21b8:	89 81       	ldd	r24, Y+1	; 0x01
    21ba:	9a 81       	ldd	r25, Y+2	; 0x02
    21bc:	21 11       	cpse	r18, r1
	  Endpoint_Write_Control_PStream_LE(DescriptorPointer, DescriptorSize);
    21be:	02 c0       	rjmp	.+4      	; 0x21c4 <USB_Device_ProcessControlRequest+0x1cc>
    21c0:	35 dc       	rcall	.-1942   	; 0x1a2c <Endpoint_Write_Control_PStream_LE>
	else if (DescriptorAddressSpace == MEMSPACE_EEPROM)
    21c2:	05 c0       	rjmp	.+10     	; 0x21ce <USB_Device_ProcessControlRequest+0x1d6>
	  Endpoint_Write_Control_EStream_LE(DescriptorPointer, DescriptorSize);
    21c4:	21 30       	cpi	r18, 0x01	; 1
    21c6:	11 f4       	brne	.+4      	; 0x21cc <USB_Device_ProcessControlRequest+0x1d4>
    21c8:	92 dc       	rcall	.-1756   	; 0x1aee <Endpoint_Write_Control_EStream_LE>
	else
	  Endpoint_Write_Control_Stream_LE(DescriptorPointer, DescriptorSize);
    21ca:	01 c0       	rjmp	.+2      	; 0x21ce <USB_Device_ProcessControlRequest+0x1d6>
    21cc:	d1 db       	rcall	.-2142   	; 0x1970 <Endpoint_Write_Control_Stream_LE>
			 */
			static inline void Endpoint_ClearOUT(void) ATTR_ALWAYS_INLINE;
			static inline void Endpoint_ClearOUT(void)
			{
				#if !defined(CONTROL_ONLY_DEVICE)
					UEINTX &= ~((1 << RXOUTI) | (1 << FIFOCON));
    21ce:	80 91 e8 00 	lds	r24, 0x00E8	; 0x8000e8 <__TEXT_REGION_LENGTH__+0x7e00e8>
    21d2:	8b 77       	andi	r24, 0x7B	; 123
    21d4:	80 93 e8 00 	sts	0x00E8, r24	; 0x8000e8 <__TEXT_REGION_LENGTH__+0x7e00e8>
    21d8:	31 c0       	rjmp	.+98     	; 0x223c <USB_Device_ProcessControlRequest+0x244>
					USB_Device_GetDescriptor();
				}

				break;
			case REQ_GetConfiguration:
				if (bmRequestType == (REQDIR_DEVICETOHOST | REQTYPE_STANDARD | REQREC_DEVICE))
    21da:	80 38       	cpi	r24, 0x80	; 128
    21dc:	79 f5       	brne	.+94     	; 0x223c <USB_Device_ProcessControlRequest+0x244>
			 *  \note This is not applicable for non CONTROL type endpoints.
			 */
			static inline void Endpoint_ClearSETUP(void) ATTR_ALWAYS_INLINE;
			static inline void Endpoint_ClearSETUP(void)
			{
				UEINTX &= ~(1 << RXSTPI);
    21de:	80 91 e8 00 	lds	r24, 0x00E8	; 0x8000e8 <__TEXT_REGION_LENGTH__+0x7e00e8>
    21e2:	87 7f       	andi	r24, 0xF7	; 247
    21e4:	80 93 e8 00 	sts	0x00E8, r24	; 0x8000e8 <__TEXT_REGION_LENGTH__+0x7e00e8>

static void USB_Device_GetConfiguration(void)
{
	Endpoint_ClearSETUP();

	Endpoint_Write_8(USB_Device_ConfigurationNumber);
    21e8:	80 91 e0 01 	lds	r24, 0x01E0	; 0x8001e0 <USB_Device_ConfigurationNumber>
			 *  \param[in] Data  Data to write into the the currently selected endpoint's FIFO buffer.
			 */
			static inline void Endpoint_Write_8(const uint8_t Data) ATTR_ALWAYS_INLINE;
			static inline void Endpoint_Write_8(const uint8_t Data)
			{
				UEDATX = Data;
    21ec:	80 93 f1 00 	sts	0x00F1, r24	; 0x8000f1 <__TEXT_REGION_LENGTH__+0x7e00f1>
			 */
			static inline void Endpoint_ClearIN(void) ATTR_ALWAYS_INLINE;
			static inline void Endpoint_ClearIN(void)
			{
				#if !defined(CONTROL_ONLY_DEVICE)
					UEINTX &= ~((1 << TXINI) | (1 << FIFOCON));
    21f0:	80 91 e8 00 	lds	r24, 0x00E8	; 0x8000e8 <__TEXT_REGION_LENGTH__+0x7e00e8>
    21f4:	8e 77       	andi	r24, 0x7E	; 126
    21f6:	9d cf       	rjmp	.-198    	; 0x2132 <USB_Device_ProcessControlRequest+0x13a>
				if (bmRequestType == (REQDIR_DEVICETOHOST | REQTYPE_STANDARD | REQREC_DEVICE))
				  USB_Device_GetConfiguration();

				break;
			case REQ_SetConfiguration:
				if (bmRequestType == (REQDIR_HOSTTODEVICE | REQTYPE_STANDARD | REQREC_DEVICE))
    21f8:	81 11       	cpse	r24, r1
    21fa:	20 c0       	rjmp	.+64     	; 0x223c <USB_Device_ProcessControlRequest+0x244>
}

static void USB_Device_SetConfiguration(void)
{
	#if defined(FIXED_NUM_CONFIGURATIONS)
	if ((uint8_t)USB_ControlRequest.wValue > FIXED_NUM_CONFIGURATIONS)
    21fc:	80 91 e7 01 	lds	r24, 0x01E7	; 0x8001e7 <USB_ControlRequest+0x2>
    2200:	90 91 e8 01 	lds	r25, 0x01E8	; 0x8001e8 <USB_ControlRequest+0x3>
    2204:	99 27       	eor	r25, r25
    2206:	02 97       	sbiw	r24, 0x02	; 2
    2208:	cc f4       	brge	.+50     	; 0x223c <USB_Device_ProcessControlRequest+0x244>
			 *  \note This is not applicable for non CONTROL type endpoints.
			 */
			static inline void Endpoint_ClearSETUP(void) ATTR_ALWAYS_INLINE;
			static inline void Endpoint_ClearSETUP(void)
			{
				UEINTX &= ~(1 << RXSTPI);
    220a:	80 91 e8 00 	lds	r24, 0x00E8	; 0x8000e8 <__TEXT_REGION_LENGTH__+0x7e00e8>
    220e:	87 7f       	andi	r24, 0xF7	; 247
    2210:	80 93 e8 00 	sts	0x00E8, r24	; 0x8000e8 <__TEXT_REGION_LENGTH__+0x7e00e8>
	#endif
	#endif

	Endpoint_ClearSETUP();

	USB_Device_ConfigurationNumber = (uint8_t)USB_ControlRequest.wValue;
    2214:	80 91 e7 01 	lds	r24, 0x01E7	; 0x8001e7 <USB_ControlRequest+0x2>
    2218:	80 93 e0 01 	sts	0x01E0, r24	; 0x8001e0 <USB_Device_ConfigurationNumber>

	Endpoint_ClearStatusStage();
    221c:	16 dd       	rcall	.-1492   	; 0x1c4a <Endpoint_ClearStatusStage>

	if (USB_Device_ConfigurationNumber)
    221e:	80 91 e0 01 	lds	r24, 0x01E0	; 0x8001e0 <USB_Device_ConfigurationNumber>
    2222:	81 11       	cpse	r24, r1
    2224:	06 c0       	rjmp	.+12     	; 0x2232 <USB_Device_ProcessControlRequest+0x23a>
			}

			static inline bool USB_Device_IsAddressSet(void) ATTR_ALWAYS_INLINE ATTR_WARN_UNUSED_RESULT;
			static inline bool USB_Device_IsAddressSet(void)
			{
				return (UDADDR & (1 << ADDEN));
    2226:	80 91 e3 00 	lds	r24, 0x00E3	; 0x8000e3 <__TEXT_REGION_LENGTH__+0x7e00e3>
	  USB_DeviceState = DEVICE_STATE_Configured;
	else
	  USB_DeviceState = (USB_Device_IsAddressSet()) ? DEVICE_STATE_Configured : DEVICE_STATE_Powered;
    222a:	87 fd       	sbrc	r24, 7
    222c:	02 c0       	rjmp	.+4      	; 0x2232 <USB_Device_ProcessControlRequest+0x23a>
    222e:	81 e0       	ldi	r24, 0x01	; 1
    2230:	01 c0       	rjmp	.+2      	; 0x2234 <USB_Device_ProcessControlRequest+0x23c>
    2232:	84 e0       	ldi	r24, 0x04	; 4
    2234:	80 93 e4 01 	sts	0x01E4, r24	; 0x8001e4 <USB_DeviceState>

	EVENT_USB_Device_ConfigurationChanged();
    2238:	0e 94 ea 03 	call	0x7d4	; 0x7d4 <EVENT_USB_Device_ConfigurationChanged>
			 *  \return Boolean \c true if the selected endpoint has received a SETUP packet, \c false otherwise.
			 */
			static inline bool Endpoint_IsSETUPReceived(void) ATTR_WARN_UNUSED_RESULT ATTR_ALWAYS_INLINE;
			static inline bool Endpoint_IsSETUPReceived(void)
			{
				return ((UEINTX & (1 << RXSTPI)) ? true : false);
    223c:	80 91 e8 00 	lds	r24, 0x00E8	; 0x8000e8 <__TEXT_REGION_LENGTH__+0x7e00e8>
			default:
				break;
		}
	}

	if (Endpoint_IsSETUPReceived())
    2240:	83 ff       	sbrs	r24, 3
    2242:	0a c0       	rjmp	.+20     	; 0x2258 <USB_Device_ProcessControlRequest+0x260>
			 *  \note This is not applicable for non CONTROL type endpoints.
			 */
			static inline void Endpoint_ClearSETUP(void) ATTR_ALWAYS_INLINE;
			static inline void Endpoint_ClearSETUP(void)
			{
				UEINTX &= ~(1 << RXSTPI);
    2244:	80 91 e8 00 	lds	r24, 0x00E8	; 0x8000e8 <__TEXT_REGION_LENGTH__+0x7e00e8>
    2248:	87 7f       	andi	r24, 0xF7	; 247
    224a:	80 93 e8 00 	sts	0x00E8, r24	; 0x8000e8 <__TEXT_REGION_LENGTH__+0x7e00e8>
			 *  \ingroup Group_EndpointPacketManagement_AVR8
			 */
			static inline void Endpoint_StallTransaction(void) ATTR_ALWAYS_INLINE;
			static inline void Endpoint_StallTransaction(void)
			{
				UECONX |= (1 << STALLRQ);
    224e:	80 91 eb 00 	lds	r24, 0x00EB	; 0x8000eb <__TEXT_REGION_LENGTH__+0x7e00eb>
    2252:	80 62       	ori	r24, 0x20	; 32
    2254:	80 93 eb 00 	sts	0x00EB, r24	; 0x8000eb <__TEXT_REGION_LENGTH__+0x7e00eb>
	{
		Endpoint_ClearSETUP();
		Endpoint_StallTransaction();
	}
}
    2258:	0f 90       	pop	r0
    225a:	0f 90       	pop	r0
    225c:	0f 90       	pop	r0
    225e:	df 91       	pop	r29
    2260:	cf 91       	pop	r28
    2262:	1f 91       	pop	r17
    2264:	08 95       	ret

00002266 <USB_Event_Stub>:
#define  __INCLUDE_FROM_EVENTS_C
#define  __INCLUDE_FROM_USB_DRIVER
#include "Events.h"

void USB_Event_Stub(void)
{
    2266:	08 95       	ret

00002268 <USB_USBTask>:
#if defined(USB_CAN_BE_DEVICE) && !defined(DEVICE_STATE_AS_GPIOR)
volatile uint8_t     USB_DeviceState;
#endif

void USB_USBTask(void)
{
    2268:	cf 93       	push	r28
}

#if defined(USB_CAN_BE_DEVICE)
static void USB_DeviceTask(void)
{
	if (USB_DeviceState == DEVICE_STATE_Unattached)
    226a:	80 91 e4 01 	lds	r24, 0x01E4	; 0x8001e4 <USB_DeviceState>
    226e:	88 23       	and	r24, r24
    2270:	99 f0       	breq	.+38     	; 0x2298 <USB_USBTask+0x30>
			 */
			static inline uint8_t Endpoint_GetCurrentEndpoint(void) ATTR_WARN_UNUSED_RESULT ATTR_ALWAYS_INLINE;
			static inline uint8_t Endpoint_GetCurrentEndpoint(void)
			{
				#if !defined(CONTROL_ONLY_DEVICE)
					return ((UENUM & ENDPOINT_EPNUM_MASK) | Endpoint_GetEndpointDirection());
    2272:	c0 91 e9 00 	lds	r28, 0x00E9	; 0x8000e9 <__TEXT_REGION_LENGTH__+0x7e00e9>
    2276:	cf 70       	andi	r28, 0x0F	; 15
			 *  \return The currently selected endpoint's direction, as a \c ENDPOINT_DIR_* mask.
			 */
			static inline uint8_t Endpoint_GetEndpointDirection(void) ATTR_WARN_UNUSED_RESULT ATTR_ALWAYS_INLINE;
			static inline uint8_t Endpoint_GetEndpointDirection(void)
			{
				return (UECFG0X & (1 << EPDIR)) ? ENDPOINT_DIR_IN : ENDPOINT_DIR_OUT;
    2278:	90 91 ec 00 	lds	r25, 0x00EC	; 0x8000ec <__TEXT_REGION_LENGTH__+0x7e00ec>
    227c:	89 2f       	mov	r24, r25
    227e:	81 70       	andi	r24, 0x01	; 1
    2280:	90 fd       	sbrc	r25, 0
    2282:	80 e8       	ldi	r24, 0x80	; 128
			 */
			static inline uint8_t Endpoint_GetCurrentEndpoint(void) ATTR_WARN_UNUSED_RESULT ATTR_ALWAYS_INLINE;
			static inline uint8_t Endpoint_GetCurrentEndpoint(void)
			{
				#if !defined(CONTROL_ONLY_DEVICE)
					return ((UENUM & ENDPOINT_EPNUM_MASK) | Endpoint_GetEndpointDirection());
    2284:	c8 2b       	or	r28, r24
			 */
			static inline void Endpoint_SelectEndpoint(const uint8_t Address) ATTR_ALWAYS_INLINE;
			static inline void Endpoint_SelectEndpoint(const uint8_t Address)
			{
				#if !defined(CONTROL_ONLY_DEVICE)
					UENUM = (Address & ENDPOINT_EPNUM_MASK);
    2286:	10 92 e9 00 	sts	0x00E9, r1	; 0x8000e9 <__TEXT_REGION_LENGTH__+0x7e00e9>
			 *  \return Boolean \c true if the selected endpoint has received a SETUP packet, \c false otherwise.
			 */
			static inline bool Endpoint_IsSETUPReceived(void) ATTR_WARN_UNUSED_RESULT ATTR_ALWAYS_INLINE;
			static inline bool Endpoint_IsSETUPReceived(void)
			{
				return ((UEINTX & (1 << RXSTPI)) ? true : false);
    228a:	80 91 e8 00 	lds	r24, 0x00E8	; 0x8000e8 <__TEXT_REGION_LENGTH__+0x7e00e8>

	uint8_t PrevEndpoint = Endpoint_GetCurrentEndpoint();

	Endpoint_SelectEndpoint(ENDPOINT_CONTROLEP);

	if (Endpoint_IsSETUPReceived())
    228e:	83 fd       	sbrc	r24, 3
	  USB_Device_ProcessControlRequest();
    2290:	b3 de       	rcall	.-666    	; 0x1ff8 <USB_Device_ProcessControlRequest>
			 */
			static inline void Endpoint_SelectEndpoint(const uint8_t Address) ATTR_ALWAYS_INLINE;
			static inline void Endpoint_SelectEndpoint(const uint8_t Address)
			{
				#if !defined(CONTROL_ONLY_DEVICE)
					UENUM = (Address & ENDPOINT_EPNUM_MASK);
    2292:	cf 70       	andi	r28, 0x0F	; 15
    2294:	c0 93 e9 00 	sts	0x00E9, r28	; 0x8000e9 <__TEXT_REGION_LENGTH__+0x7e00e9>
	#elif defined(USB_CAN_BE_HOST)
		USB_HostTask();
	#elif defined(USB_CAN_BE_DEVICE)
		USB_DeviceTask();
	#endif
}
    2298:	cf 91       	pop	r28
    229a:	08 95       	ret

0000229c <__udivmodqi4>:
    229c:	99 1b       	sub	r25, r25
    229e:	79 e0       	ldi	r23, 0x09	; 9
    22a0:	04 c0       	rjmp	.+8      	; 0x22aa <__udivmodqi4_ep>

000022a2 <__udivmodqi4_loop>:
    22a2:	99 1f       	adc	r25, r25
    22a4:	96 17       	cp	r25, r22
    22a6:	08 f0       	brcs	.+2      	; 0x22aa <__udivmodqi4_ep>
    22a8:	96 1b       	sub	r25, r22

000022aa <__udivmodqi4_ep>:
    22aa:	88 1f       	adc	r24, r24
    22ac:	7a 95       	dec	r23
    22ae:	c9 f7       	brne	.-14     	; 0x22a2 <__udivmodqi4_loop>
    22b0:	80 95       	com	r24
    22b2:	08 95       	ret

000022b4 <memcpy>:
    22b4:	fb 01       	movw	r30, r22
    22b6:	dc 01       	movw	r26, r24
    22b8:	02 c0       	rjmp	.+4      	; 0x22be <memcpy+0xa>
    22ba:	01 90       	ld	r0, Z+
    22bc:	0d 92       	st	X+, r0
    22be:	41 50       	subi	r20, 0x01	; 1
    22c0:	50 40       	sbci	r21, 0x00	; 0
    22c2:	d8 f7       	brcc	.-10     	; 0x22ba <memcpy+0x6>
    22c4:	08 95       	ret

000022c6 <eeprom_read_byte>:
    22c6:	f9 99       	sbic	0x1f, 1	; 31
    22c8:	fe cf       	rjmp	.-4      	; 0x22c6 <eeprom_read_byte>
    22ca:	92 bd       	out	0x22, r25	; 34
    22cc:	81 bd       	out	0x21, r24	; 33
    22ce:	f8 9a       	sbi	0x1f, 0	; 31
    22d0:	99 27       	eor	r25, r25
    22d2:	80 b5       	in	r24, 0x20	; 32
    22d4:	08 95       	ret

000022d6 <eeprom_write_byte>:
    22d6:	26 2f       	mov	r18, r22

000022d8 <eeprom_write_r18>:
    22d8:	f9 99       	sbic	0x1f, 1	; 31
    22da:	fe cf       	rjmp	.-4      	; 0x22d8 <eeprom_write_r18>
    22dc:	1f ba       	out	0x1f, r1	; 31
    22de:	92 bd       	out	0x22, r25	; 34
    22e0:	81 bd       	out	0x21, r24	; 33
    22e2:	20 bd       	out	0x20, r18	; 32
    22e4:	0f b6       	in	r0, 0x3f	; 63
    22e6:	f8 94       	cli
    22e8:	fa 9a       	sbi	0x1f, 2	; 31
    22ea:	f9 9a       	sbi	0x1f, 1	; 31
    22ec:	0f be       	out	0x3f, r0	; 63
    22ee:	01 96       	adiw	r24, 0x01	; 1
    22f0:	08 95       	ret

000022f2 <_exit>:
    22f2:	f8 94       	cli

000022f4 <__stop_program>:
    22f4:	ff cf       	rjmp	.-2      	; 0x22f4 <__stop_program>
